 Goddess

 Timestamp is 6690c78d (Fri Jul 12 13:05:01 2024)

 Preferred load address is 00400000

 Start         Length     Name                   Class
 0001:00000000 000a5c4cH .text                   CODE
 0001:000a5c50 000027beH .text$x                 CODE
 0002:00000000 00000270H .idata$5                DATA
 0002:00000270 00004644H .rdata                  DATA
 0002:000048b8 0000104cH .rdata$r                DATA
 0002:00005908 000043b0H .xdata$x                DATA
 0002:00009cb8 00000064H .idata$2                DATA
 0002:00009d1c 00000014H .idata$3                DATA
 0002:00009d30 00000270H .idata$4                DATA
 0002:00009fa0 00000a9cH .idata$6                DATA
 0002:0000aa3c 00000000H .edata                  DATA
 0003:00000000 00000004H .CRT$XCA                DATA
 0003:00000004 000000f4H .CRT$XCU                DATA
 0003:000000f8 00000004H .CRT$XCZ                DATA
 0003:000000fc 00000004H .CRT$XIA                DATA
 0003:00000100 0000000cH .CRT$XIC                DATA
 0003:0000010c 00000004H .CRT$XIY                DATA
 0003:00000110 00000004H .CRT$XIZ                DATA
 0003:00000114 00000004H .CRT$XPA                DATA
 0003:00000118 00000004H .CRT$XPX                DATA
 0003:0000011c 00000004H .CRT$XPZ                DATA
 0003:00000120 00000004H .CRT$XTA                DATA
 0003:00000124 00000004H .CRT$XTB                DATA
 0003:00000128 00000004H .CRT$XTZ                DATA
 0003:00000130 0000b0ecH .data                   DATA
 0003:0000b220 00098088H .bss                    DATA
 0004:00000000 00000118H .rsrc$01                DATA
 0004:00000120 00001050H .rsrc$02                DATA

  Address         Publics by Value              Rva+Base     Lib:Object

 0001:000001a5       ??0CDataQueue@CClientNode@@QAE@II@Z 004011a5 f   ClientNode.obj
 0001:00000212       ??1CDataQueue@CClientNode@@QAE@XZ 00401212 f   ClientNode.obj
 0001:0000026c       ?AddData@CDataQueue@CClientNode@@QAE_NPBEI@Z 0040126c f   ClientNode.obj
 0001:000002eb       ?Get@CDataQueue@CClientNode@@QAEPAVCBuffer@Win32@OnlineGameLib@@XZ 004012eb f   ClientNode.obj
 0001:00000394       ??0CClientNode@@QAE@PAUIServer@@I@Z 00401394 f   ClientNode.obj
 0001:000004bf       ??1CClientNode@@UAE@XZ     004014bf f   ClientNode.obj
 0001:000005c2       ?AddNode@CClientNode@@SAPAV1@PAUIServer@@I@Z 004015c2 f   ClientNode.obj
 0001:00000697       ?DelNode@CClientNode@@SAXI@Z 00401697 f   ClientNode.obj
 0001:000007b9       ?Start@CClientNode@@SA_NPAUIServer@@@Z 004017b9 f   ClientNode.obj
 0001:0000080a       ?End@CClientNode@@SAXXZ    0040180a f   ClientNode.obj
 0001:00000871       ?ThreadFunction@CClientNode@@KGIPAX@Z 00401871 f   ClientNode.obj
 0001:000009d5       ?AppendData@CClientNode@@QAEXPBXI@Z 004019d5 f   ClientNode.obj
 0001:00000a3f       ?SmallPackProcess@CClientNode@@IAEXPBXI@Z 00401a3f f   ClientNode.obj
 0001:00000a75       ?LargePackProcess@CClientNode@@IAEXPBXI@Z 00401a75 f   ClientNode.obj
 0001:00000b36       ?Process@CClientNode@@QAEXXZ 00401b36 f   ClientNode.obj
 0001:00000c3b       ?_QueryRoleList@CClientNode@@AAEXPBXI@Z 00401c3b f   ClientNode.obj
 0001:00000e77       ?_CreateRole@CClientNode@@AAEXPBXI@Z 00401e77 f   ClientNode.obj
 0001:00000f66       ?_SaveRoleInfo@CClientNode@@AAEXPBXI@Z 00401f66 f   ClientNode.obj
 0001:00001087       ?_DelRole@CClientNode@@AAEXPBXI@Z 00402087 f   ClientNode.obj
 0001:00001180       ?_RelayExtend@CClientNode@@AAEXPBXI@Z 00402180 f   ClientNode.obj
 0001:000012f0       ?_GetRoleInfo@CClientNode@@AAEXPBXI@Z 004022f0 f   ClientNode.obj
 0001:000015d8       ?_GetGameStat@CClientNode@@AAEXPBXI@Z 004025d8 f   ClientNode.obj
 0001:000018d6       ?_LockOrUnlockRole@CClientNode@@AAEXPBXI@Z 004028d6 f   ClientNode.obj
 0001:00001a28       ?IsRoleLock@CClientNode@@AAE_NPAD@Z 00402a28 f   ClientNode.obj
 0001:00001b11       ?IsRoleLockBySelf@CClientNode@@AAE_NPAD@Z 00402b11 f   ClientNode.obj
 0001:00001c03       ?UnlockRoleSelf@CClientNode@@AAE_NPAD@Z 00402c03 f   ClientNode.obj
 0001:00001d07       ?UnlockAllRole@CClientNode@@AAEXI@Z 00402d07 f   ClientNode.obj
 0001:00001de0       ??0CCriticalSection@Win32@OnlineGameLib@@QAE@XZ 00402de0 f i ClientNode.obj
 0001:00001e00       ??1CCriticalSection@Win32@OnlineGameLib@@QAE@XZ 00402e00 f i ClientNode.obj
 0001:00001e20       ??1?$map@IPAVCClientNode@@U?$less@I@std@@V?$allocator@PAVCClientNode@@@3@@std@@QAE@XZ 00402e20 f i ClientNode.obj
 0001:00001e40       ??0Owner@CCriticalSection@Win32@OnlineGameLib@@QAE@AAV123@@Z 00402e40 f i ClientNode.obj
 0001:00001e70       ?Enter@CCriticalSection@Win32@OnlineGameLib@@QAEXXZ 00402e70 f i ClientNode.obj
 0001:00001e90       ??1Owner@CCriticalSection@Win32@OnlineGameLib@@QAE@XZ 00402e90 f i ClientNode.obj
 0001:00001eb0       ?Leave@CCriticalSection@Win32@OnlineGameLib@@QAEXXZ 00402eb0 f i ClientNode.obj
 0001:00001ed0       ?AddRef@CBuffer@Win32@OnlineGameLib@@QAEXXZ 00402ed0 f i ClientNode.obj
 0001:00001ef0       ??_GCClientNode@@UAEPAXI@Z 00402ef0 f i ClientNode.obj
 0001:00001ef0       ??_ECClientNode@@UAEPAXI@Z 00402ef0 f i ClientNode.obj
 0001:00001f20       ?_trace@@YAXPBDZZ          00402f20 f i ClientNode.obj
 0001:00001f30       ?Peek@CPackager@Win32@OnlineGameLib@@SAEPBXI@Z 00402f30 f i ClientNode.obj
 0001:00001f50       ?GetUsed@CBuffer@Win32@OnlineGameLib@@QBEIXZ 00402f50 f i ClientNode.obj
 0001:00001f70       ?GetBuffer@CBuffer@Win32@OnlineGameLib@@QBEPBEXZ 00402f70 f i ClientNode.obj
 0001:00001f90       ?Use@CBuffer@Win32@OnlineGameLib@@QAEXI@Z 00402f90 f i ClientNode.obj
 0001:00001fb0       ??1?$map@V?$basic_string@DU?$char_traits@D@std@@V?$allocator@D@2@@std@@IU?$less@V?$basic_string@DU?$char_traits@D@std@@V?$allocator@D@2@@std@@@2@V?$allocator@I@2@@std@@QAE@XZ 00402fb0 f i ClientNode.obj
 0001:00001fd0       ??0?$basic_string@DU?$char_traits@D@std@@V?$allocator@D@2@@std@@QAE@PBDABV?$allocator@D@1@@Z 00402fd0 f i ClientNode.obj
 0001:00002000       ??1?$basic_string@DU?$char_traits@D@std@@V?$allocator@D@2@@std@@QAE@XZ 00403000 f i ClientNode.obj
 0001:00002020       ??0?$map@IPAVCClientNode@@U?$less@I@std@@V?$allocator@PAVCClientNode@@@3@@std@@QAE@ABU?$less@I@1@ABV?$allocator@PAVCClientNode@@@1@@Z 00403020 f i ClientNode.obj
 0001:00002050       ?begin@?$map@IPAVCClientNode@@U?$less@I@std@@V?$allocator@PAVCClientNode@@@3@@std@@QAE?AViterator@?$_Tree@IU?$pair@$$CBIPAVCClientNode@@@std@@U_Kfn@?$map@IPAVCClientNode@@U?$less@I@std@@V?$allocator@PAVCClientNode@@@3@@2@U?$less@I@2@V?$allocator@PAVCClientNode@@@2@@2@XZ 00403050 f i ClientNode.obj
 0001:00002080       ?end@?$map@IPAVCClientNode@@U?$less@I@std@@V?$allocator@PAVCClientNode@@@3@@std@@QAE?AViterator@?$_Tree@IU?$pair@$$CBIPAVCClientNode@@@std@@U_Kfn@?$map@IPAVCClientNode@@U?$less@I@std@@V?$allocator@PAVCClientNode@@@3@@2@U?$less@I@2@V?$allocator@PAVCClientNode@@@2@@2@XZ 00403080 f i ClientNode.obj
 0001:000020b0       ?insert@?$map@IPAVCClientNode@@U?$less@I@std@@V?$allocator@PAVCClientNode@@@3@@std@@QAE?AU?$pair@Viterator@?$_Tree@IU?$pair@$$CBIPAVCClientNode@@@std@@U_Kfn@?$map@IPAVCClientNode@@U?$less@I@std@@V?$allocator@PAVCClientNode@@@3@@2@U?$less@I@2@V?$allocator@PAVCClientNode@@@2@@std@@_N@2@ABU?$pair@$$CBIPAVCClientNode@@@2@@Z 004030b0 f i ClientNode.obj
 0001:00002100       ?erase@?$map@IPAVCClientNode@@U?$less@I@std@@V?$allocator@PAVCClientNode@@@3@@std@@QAEIABI@Z 00403100 f i ClientNode.obj
 0001:00002120       ?find@?$map@IPAVCClientNode@@U?$less@I@std@@V?$allocator@PAVCClientNode@@@3@@std@@QAE?AViterator@?$_Tree@IU?$pair@$$CBIPAVCClientNode@@@std@@U_Kfn@?$map@IPAVCClientNode@@U?$less@I@std@@V?$allocator@PAVCClientNode@@@3@@2@U?$less@I@2@V?$allocator@PAVCClientNode@@@2@@2@ABI@Z 00403120 f i ClientNode.obj
 0001:00002150       ??1?$_Tree@IU?$pair@$$CBIPAVCClientNode@@@std@@U_Kfn@?$map@IPAVCClientNode@@U?$less@I@std@@V?$allocator@PAVCClientNode@@@3@@2@U?$less@I@2@V?$allocator@PAVCClientNode@@@2@@std@@QAE@XZ 00403150 f i ClientNode.obj
 0001:00002220       ??0?$pair@$$CBIPAVCClientNode@@@std@@QAE@ABIABQAVCClientNode@@@Z 00403220 f i ClientNode.obj
 0001:00002250       ??0iterator@?$_Tree@IU?$pair@$$CBIPAVCClientNode@@@std@@U_Kfn@?$map@IPAVCClientNode@@U?$less@I@std@@V?$allocator@PAVCClientNode@@@3@@2@U?$less@I@2@V?$allocator@PAVCClientNode@@@2@@std@@QAE@XZ 00403250 f i ClientNode.obj
 0001:00002270       ??Diterator@?$_Tree@IU?$pair@$$CBIPAVCClientNode@@@std@@U_Kfn@?$map@IPAVCClientNode@@U?$less@I@std@@V?$allocator@PAVCClientNode@@@3@@2@U?$less@I@2@V?$allocator@PAVCClientNode@@@2@@std@@QBEAAU?$pair@$$CBIPAVCClientNode@@@2@XZ 00403270 f i ClientNode.obj
 0001:00002290       ??Eiterator@?$_Tree@IU?$pair@$$CBIPAVCClientNode@@@std@@U_Kfn@?$map@IPAVCClientNode@@U?$less@I@std@@V?$allocator@PAVCClientNode@@@3@@2@U?$less@I@2@V?$allocator@PAVCClientNode@@@2@@std@@QAE?AV012@H@Z 00403290 f i ClientNode.obj
 0001:000022c0       ??9iterator@?$_Tree@IU?$pair@$$CBIPAVCClientNode@@@std@@U_Kfn@?$map@IPAVCClientNode@@U?$less@I@std@@V?$allocator@PAVCClientNode@@@3@@2@U?$less@I@2@V?$allocator@PAVCClientNode@@@2@@std@@QBE_NABV012@@Z 004032c0 f i ClientNode.obj
 0001:000022f0       ??0?$list@PAVCBuffer@Win32@OnlineGameLib@@V?$allocator@PAVCBuffer@Win32@OnlineGameLib@@@std@@@std@@QAE@ABV?$allocator@PAVCBuffer@Win32@OnlineGameLib@@@1@@Z 004032f0 f i ClientNode.obj
 0001:00002330       ??1?$list@PAVCBuffer@Win32@OnlineGameLib@@V?$allocator@PAVCBuffer@Win32@OnlineGameLib@@@std@@@std@@QAE@XZ 00403330 f i ClientNode.obj
 0001:00002390       ?empty@?$list@PAVCBuffer@Win32@OnlineGameLib@@V?$allocator@PAVCBuffer@Win32@OnlineGameLib@@@std@@@std@@QBE_NXZ 00403390 f i ClientNode.obj
 0001:000023b0       ?front@?$list@PAVCBuffer@Win32@OnlineGameLib@@V?$allocator@PAVCBuffer@Win32@OnlineGameLib@@@std@@@std@@QAEAAPAVCBuffer@Win32@OnlineGameLib@@XZ 004033b0 f i ClientNode.obj
 0001:000023d0       ?pop_front@?$list@PAVCBuffer@Win32@OnlineGameLib@@V?$allocator@PAVCBuffer@Win32@OnlineGameLib@@@std@@@std@@QAEXXZ 004033d0 f i ClientNode.obj
 0001:00002400       ?push_back@?$list@PAVCBuffer@Win32@OnlineGameLib@@V?$allocator@PAVCBuffer@Win32@OnlineGameLib@@@std@@@std@@QAEXABQAVCBuffer@Win32@OnlineGameLib@@@Z 00403400 f i ClientNode.obj
 0001:00002430       ??0?$map@V?$basic_string@DU?$char_traits@D@std@@V?$allocator@D@2@@std@@IU?$less@V?$basic_string@DU?$char_traits@D@std@@V?$allocator@D@2@@std@@@2@V?$allocator@I@2@@std@@QAE@ABU?$less@V?$basic_string@DU?$char_traits@D@std@@V?$allocator@D@2@@std@@@1@ABV?$allocator@I@1@@Z 00403430 f i ClientNode.obj
 0001:00002460       ?begin@?$map@V?$basic_string@DU?$char_traits@D@std@@V?$allocator@D@2@@std@@IU?$less@V?$basic_string@DU?$char_traits@D@std@@V?$allocator@D@2@@std@@@2@V?$allocator@I@2@@std@@QAE?AViterator@?$_Tree@V?$basic_string@DU?$char_traits@D@std@@V?$allocator@D@2@@std@@U?$pair@$$CBV?$basic_string@DU?$char_traits@D@std@@V?$allocator@D@2@@std@@I@2@U_Kfn@?$map@V?$basic_string@DU?$char_traits@D@std@@V?$allocator@D@2@@std@@IU?$less@V?$basic_string@DU?$char_traits@D@std@@V?$allocator@D@2@@std@@@2@V?$allocator@I@2@@2@U?$less@V?$basic_string@DU?$char_traits@D@std@@V?$allocator@D@2@@std@@@2@V?$allocator@I@2@@2@XZ 00403460 f i ClientNode.obj
 0001:00002490       ?end@?$map@V?$basic_string@DU?$char_traits@D@std@@V?$allocator@D@2@@std@@IU?$less@V?$basic_string@DU?$char_traits@D@std@@V?$allocator@D@2@@std@@@2@V?$allocator@I@2@@std@@QAE?AViterator@?$_Tree@V?$basic_string@DU?$char_traits@D@std@@V?$allocator@D@2@@std@@U?$pair@$$CBV?$basic_string@DU?$char_traits@D@std@@V?$allocator@D@2@@std@@I@2@U_Kfn@?$map@V?$basic_string@DU?$char_traits@D@std@@V?$allocator@D@2@@std@@IU?$less@V?$basic_string@DU?$char_traits@D@std@@V?$allocator@D@2@@std@@@2@V?$allocator@I@2@@2@U?$less@V?$basic_string@DU?$char_traits@D@std@@V?$allocator@D@2@@std@@@2@V?$allocator@I@2@@2@XZ 00403490 f i ClientNode.obj
 0001:000024c0       ??A?$map@V?$basic_string@DU?$char_traits@D@std@@V?$allocator@D@2@@std@@IU?$less@V?$basic_string@DU?$char_traits@D@std@@V?$allocator@D@2@@std@@@2@V?$allocator@I@2@@std@@QAEAAIABV?$basic_string@DU?$char_traits@D@std@@V?$allocator@D@2@@1@@Z 004034c0 f i ClientNode.obj
 0001:00002550       ?erase@?$map@V?$basic_string@DU?$char_traits@D@std@@V?$allocator@D@2@@std@@IU?$less@V?$basic_string@DU?$char_traits@D@std@@V?$allocator@D@2@@std@@@2@V?$allocator@I@2@@std@@QAE?AViterator@?$_Tree@V?$basic_string@DU?$char_traits@D@std@@V?$allocator@D@2@@std@@U?$pair@$$CBV?$basic_string@DU?$char_traits@D@std@@V?$allocator@D@2@@std@@I@2@U_Kfn@?$map@V?$basic_string@DU?$char_traits@D@std@@V?$allocator@D@2@@std@@IU?$less@V?$basic_string@DU?$char_traits@D@std@@V?$allocator@D@2@@std@@@2@V?$allocator@I@2@@2@U?$less@V?$basic_string@DU?$char_traits@D@std@@V?$allocator@D@2@@std@@@2@V?$allocator@I@2@@2@V342@@Z 00403550 f i ClientNode.obj
 0001:00002580       ?find@?$map@V?$basic_string@DU?$char_traits@D@std@@V?$allocator@D@2@@std@@IU?$less@V?$basic_string@DU?$char_traits@D@std@@V?$allocator@D@2@@std@@@2@V?$allocator@I@2@@std@@QAE?AViterator@?$_Tree@V?$basic_string@DU?$char_traits@D@std@@V?$allocator@D@2@@std@@U?$pair@$$CBV?$basic_string@DU?$char_traits@D@std@@V?$allocator@D@2@@std@@I@2@U_Kfn@?$map@V?$basic_string@DU?$char_traits@D@std@@V?$allocator@D@2@@std@@IU?$less@V?$basic_string@DU?$char_traits@D@std@@V?$allocator@D@2@@std@@@2@V?$allocator@I@2@@2@U?$less@V?$basic_string@DU?$char_traits@D@std@@V?$allocator@D@2@@std@@@2@V?$allocator@I@2@@2@ABV?$basic_string@DU?$char_traits@D@std@@V?$allocator@D@2@@2@@Z 00403580 f i ClientNode.obj
 0001:000025b0       ??1?$_Tree@V?$basic_string@DU?$char_traits@D@std@@V?$allocator@D@2@@std@@U?$pair@$$CBV?$basic_string@DU?$char_traits@D@std@@V?$allocator@D@2@@std@@I@2@U_Kfn@?$map@V?$basic_string@DU?$char_traits@D@std@@V?$allocator@D@2@@std@@IU?$less@V?$basic_string@DU?$char_traits@D@std@@V?$allocator@D@2@@std@@@2@V?$allocator@I@2@@2@U?$less@V?$basic_string@DU?$char_traits@D@std@@V?$allocator@D@2@@std@@@2@V?$allocator@I@2@@std@@QAE@XZ 004035b0 f i ClientNode.obj
 0001:00002680       ??Citerator@?$_Tree@V?$basic_string@DU?$char_traits@D@std@@V?$allocator@D@2@@std@@U?$pair@$$CBV?$basic_string@DU?$char_traits@D@std@@V?$allocator@D@2@@std@@I@2@U_Kfn@?$map@V?$basic_string@DU?$char_traits@D@std@@V?$allocator@D@2@@std@@IU?$less@V?$basic_string@DU?$char_traits@D@std@@V?$allocator@D@2@@std@@@2@V?$allocator@I@2@@2@U?$less@V?$basic_string@DU?$char_traits@D@std@@V?$allocator@D@2@@std@@@2@V?$allocator@I@2@@std@@QBEPAU?$pair@$$CBV?$basic_string@DU?$char_traits@D@std@@V?$allocator@D@2@@std@@I@2@XZ 00403680 f i ClientNode.obj
 0001:000026a0       ??Eiterator@?$_Tree@V?$basic_string@DU?$char_traits@D@std@@V?$allocator@D@2@@std@@U?$pair@$$CBV?$basic_string@DU?$char_traits@D@std@@V?$allocator@D@2@@std@@I@2@U_Kfn@?$map@V?$basic_string@DU?$char_traits@D@std@@V?$allocator@D@2@@std@@IU?$less@V?$basic_string@DU?$char_traits@D@std@@V?$allocator@D@2@@std@@@2@V?$allocator@I@2@@2@U?$less@V?$basic_string@DU?$char_traits@D@std@@V?$allocator@D@2@@std@@@2@V?$allocator@I@2@@std@@QAE?AV012@H@Z 004036a0 f i ClientNode.obj
 0001:000026d0       ??9iterator@?$_Tree@V?$basic_string@DU?$char_traits@D@std@@V?$allocator@D@2@@std@@U?$pair@$$CBV?$basic_string@DU?$char_traits@D@std@@V?$allocator@D@2@@std@@I@2@U_Kfn@?$map@V?$basic_string@DU?$char_traits@D@std@@V?$allocator@D@2@@std@@IU?$less@V?$basic_string@DU?$char_traits@D@std@@V?$allocator@D@2@@std@@@2@V?$allocator@I@2@@2@U?$less@V?$basic_string@DU?$char_traits@D@std@@V?$allocator@D@2@@std@@@2@V?$allocator@I@2@@std@@QBE_NABV012@@Z 004036d0 f i ClientNode.obj
 0001:00002700       ??1?$pair@$$CBV?$basic_string@DU?$char_traits@D@std@@V?$allocator@D@2@@std@@I@std@@QAE@XZ 00403700 f i ClientNode.obj
 0001:00002720       ?assign@?$basic_string@DU?$char_traits@D@std@@V?$allocator@D@2@@std@@QAEAAV12@PBD@Z 00403720 f i ClientNode.obj
 0001:00002750       ?length@?$char_traits@D@std@@SAIPBD@Z 00403750 f i ClientNode.obj
 0001:00002770       ?_Tidy@?$basic_string@DU?$char_traits@D@std@@V?$allocator@D@2@@std@@AAEX_N@Z 00403770 f i ClientNode.obj
 0001:00002830       ?_Value@?$_Tree@IU?$pair@$$CBIPAVCClientNode@@@std@@U_Kfn@?$map@IPAVCClientNode@@U?$less@I@std@@V?$allocator@PAVCClientNode@@@3@@2@U?$less@I@2@V?$allocator@PAVCClientNode@@@2@@std@@KAAAU?$pair@$$CBIPAVCClientNode@@@2@PAU_Node@12@@Z 00403830 f i ClientNode.obj
 0001:00002840       ??0?$_Tree@IU?$pair@$$CBIPAVCClientNode@@@std@@U_Kfn@?$map@IPAVCClientNode@@U?$less@I@std@@V?$allocator@PAVCClientNode@@@3@@2@U?$less@I@2@V?$allocator@PAVCClientNode@@@2@@std@@QAE@ABU?$less@I@1@_NABV?$allocator@PAVCClientNode@@@1@@Z 00403840 f i ClientNode.obj
 0001:00002880       ?begin@?$_Tree@IU?$pair@$$CBIPAVCClientNode@@@std@@U_Kfn@?$map@IPAVCClientNode@@U?$less@I@std@@V?$allocator@PAVCClientNode@@@3@@2@U?$less@I@2@V?$allocator@PAVCClientNode@@@2@@std@@QAE?AViterator@12@XZ 00403880 f i ClientNode.obj
 0001:000028b0       ?end@?$_Tree@IU?$pair@$$CBIPAVCClientNode@@@std@@U_Kfn@?$map@IPAVCClientNode@@U?$less@I@std@@V?$allocator@PAVCClientNode@@@3@@2@U?$less@I@2@V?$allocator@PAVCClientNode@@@2@@std@@QAE?AViterator@12@XZ 004038b0 f i ClientNode.obj
 0001:000028e0       ?insert@?$_Tree@IU?$pair@$$CBIPAVCClientNode@@@std@@U_Kfn@?$map@IPAVCClientNode@@U?$less@I@std@@V?$allocator@PAVCClientNode@@@3@@2@U?$less@I@2@V?$allocator@PAVCClientNode@@@2@@std@@QAE?AU?$pair@Viterator@?$_Tree@IU?$pair@$$CBIPAVCClientNode@@@std@@U_Kfn@?$map@IPAVCClientNode@@U?$less@I@std@@V?$allocator@PAVCClientNode@@@3@@2@U?$less@I@2@V?$allocator@PAVCClientNode@@@2@@std@@_N@2@ABU?$pair@$$CBIPAVCClientNode@@@2@@Z 004038e0 f i ClientNode.obj
 0001:00002b20       ?erase@?$_Tree@IU?$pair@$$CBIPAVCClientNode@@@std@@U_Kfn@?$map@IPAVCClientNode@@U?$less@I@std@@V?$allocator@PAVCClientNode@@@3@@2@U?$less@I@2@V?$allocator@PAVCClientNode@@@2@@std@@QAE?AViterator@12@V312@0@Z 00403b20 f i ClientNode.obj
 0001:00002c60       ?erase@?$_Tree@IU?$pair@$$CBIPAVCClientNode@@@std@@U_Kfn@?$map@IPAVCClientNode@@U?$less@I@std@@V?$allocator@PAVCClientNode@@@3@@2@U?$less@I@2@V?$allocator@PAVCClientNode@@@2@@std@@QAEIABI@Z 00403c60 f i ClientNode.obj
 0001:00002cc0       ?find@?$_Tree@IU?$pair@$$CBIPAVCClientNode@@@std@@U_Kfn@?$map@IPAVCClientNode@@U?$less@I@std@@V?$allocator@PAVCClientNode@@@3@@2@U?$less@I@2@V?$allocator@PAVCClientNode@@@2@@std@@QAE?AViterator@12@ABI@Z 00403cc0 f i ClientNode.obj
 0001:00002d60       ?_Freenode@?$_Tree@IU?$pair@$$CBIPAVCClientNode@@@std@@U_Kfn@?$map@IPAVCClientNode@@U?$less@I@std@@V?$allocator@PAVCClientNode@@@3@@2@U?$less@I@2@V?$allocator@PAVCClientNode@@@2@@std@@IAEXPAU_Node@12@@Z 00403d60 f i ClientNode.obj
 0001:00002d80       ??0const_iterator@?$_Tree@IU?$pair@$$CBIPAVCClientNode@@@std@@U_Kfn@?$map@IPAVCClientNode@@U?$less@I@std@@V?$allocator@PAVCClientNode@@@3@@2@U?$less@I@2@V?$allocator@PAVCClientNode@@@2@@std@@QAE@XZ 00403d80 f i ClientNode.obj
 0001:00002d90       ??Eiterator@?$_Tree@IU?$pair@$$CBIPAVCClientNode@@@std@@U_Kfn@?$map@IPAVCClientNode@@U?$less@I@std@@V?$allocator@PAVCClientNode@@@3@@2@U?$less@I@2@V?$allocator@PAVCClientNode@@@2@@std@@QAEAAV012@XZ 00403d90 f i ClientNode.obj
 0001:00002db0       ??8iterator@?$_Tree@IU?$pair@$$CBIPAVCClientNode@@@std@@U_Kfn@?$map@IPAVCClientNode@@U?$less@I@std@@V?$allocator@PAVCClientNode@@@3@@2@U?$less@I@2@V?$allocator@PAVCClientNode@@@2@@std@@QBE_NABV012@@Z 00403db0 f i ClientNode.obj
 0001:00002dd0       ?begin@?$list@PAVCBuffer@Win32@OnlineGameLib@@V?$allocator@PAVCBuffer@Win32@OnlineGameLib@@@std@@@std@@QAE?AViterator@12@XZ 00403dd0 f i ClientNode.obj
 0001:00002e10       ?end@?$list@PAVCBuffer@Win32@OnlineGameLib@@V?$allocator@PAVCBuffer@Win32@OnlineGameLib@@@std@@@std@@QAE?AViterator@12@XZ 00403e10 f i ClientNode.obj
 0001:00002e40       ?size@?$list@PAVCBuffer@Win32@OnlineGameLib@@V?$allocator@PAVCBuffer@Win32@OnlineGameLib@@@std@@@std@@QBEIXZ 00403e40 f i ClientNode.obj
 0001:00002e60       ?insert@?$list@PAVCBuffer@Win32@OnlineGameLib@@V?$allocator@PAVCBuffer@Win32@OnlineGameLib@@@std@@@std@@QAE?AViterator@12@V312@ABQAVCBuffer@Win32@OnlineGameLib@@@Z 00403e60 f i ClientNode.obj
 0001:00002f20       ?erase@?$list@PAVCBuffer@Win32@OnlineGameLib@@V?$allocator@PAVCBuffer@Win32@OnlineGameLib@@@std@@@std@@QAE?AViterator@12@V312@@Z 00403f20 f i ClientNode.obj
 0001:00002fe0       ?erase@?$list@PAVCBuffer@Win32@OnlineGameLib@@V?$allocator@PAVCBuffer@Win32@OnlineGameLib@@@std@@@std@@QAE?AViterator@12@V312@0@Z 00403fe0 f i ClientNode.obj
 0001:00003030       ?_Buynode@?$list@PAVCBuffer@Win32@OnlineGameLib@@V?$allocator@PAVCBuffer@Win32@OnlineGameLib@@@std@@@std@@IAEPAU_Node@12@PAU312@0@Z 00404030 f i ClientNode.obj
 0001:000030a0       ?_Freenode@?$list@PAVCBuffer@Win32@OnlineGameLib@@V?$allocator@PAVCBuffer@Win32@OnlineGameLib@@@std@@@std@@IAEXPAU_Node@12@@Z 004040a0 f i ClientNode.obj
 0001:000030c0       ??Diterator@?$list@PAVCBuffer@Win32@OnlineGameLib@@V?$allocator@PAVCBuffer@Win32@OnlineGameLib@@@std@@@std@@QBEAAPAVCBuffer@Win32@OnlineGameLib@@XZ 004040c0 f i ClientNode.obj
 0001:000030e0       ?insert@?$map@V?$basic_string@DU?$char_traits@D@std@@V?$allocator@D@2@@std@@IU?$less@V?$basic_string@DU?$char_traits@D@std@@V?$allocator@D@2@@std@@@2@V?$allocator@I@2@@std@@QAE?AU?$pair@Viterator@?$_Tree@V?$basic_string@DU?$char_traits@D@std@@V?$allocator@D@2@@std@@U?$pair@$$CBV?$basic_string@DU?$char_traits@D@std@@V?$allocator@D@2@@std@@I@2@U_Kfn@?$map@V?$basic_string@DU?$char_traits@D@std@@V?$allocator@D@2@@std@@IU?$less@V?$basic_string@DU?$char_traits@D@std@@V?$allocator@D@2@@std@@@2@V?$allocator@I@2@@2@U?$less@V?$basic_string@DU?$char_traits@D@std@@V?$allocator@D@2@@std@@@2@V?$allocator@I@2@@std@@_N@2@ABU?$pair@$$CBV?$basic_string@DU?$char_traits@D@std@@V?$allocator@D@2@@std@@I@2@@Z 004040e0 f i ClientNode.obj
 0001:00003130       ??0?$_Tree@V?$basic_string@DU?$char_traits@D@std@@V?$allocator@D@2@@std@@U?$pair@$$CBV?$basic_string@DU?$char_traits@D@std@@V?$allocator@D@2@@std@@I@2@U_Kfn@?$map@V?$basic_string@DU?$char_traits@D@std@@V?$allocator@D@2@@std@@IU?$less@V?$basic_string@DU?$char_traits@D@std@@V?$allocator@D@2@@std@@@2@V?$allocator@I@2@@2@U?$less@V?$basic_string@DU?$char_traits@D@std@@V?$allocator@D@2@@std@@@2@V?$allocator@I@2@@std@@QAE@ABU?$less@V?$basic_string@DU?$char_traits@D@std@@V?$allocator@D@2@@std@@@1@_NABV?$allocator@I@1@@Z 00404130 f i ClientNode.obj
 0001:00003170       ?begin@?$_Tree@V?$basic_string@DU?$char_traits@D@std@@V?$allocator@D@2@@std@@U?$pair@$$CBV?$basic_string@DU?$char_traits@D@std@@V?$allocator@D@2@@std@@I@2@U_Kfn@?$map@V?$basic_string@DU?$char_traits@D@std@@V?$allocator@D@2@@std@@IU?$less@V?$basic_string@DU?$char_traits@D@std@@V?$allocator@D@2@@std@@@2@V?$allocator@I@2@@2@U?$less@V?$basic_string@DU?$char_traits@D@std@@V?$allocator@D@2@@std@@@2@V?$allocator@I@2@@std@@QAE?AViterator@12@XZ 00404170 f i ClientNode.obj
 0001:000031a0       ?end@?$_Tree@V?$basic_string@DU?$char_traits@D@std@@V?$allocator@D@2@@std@@U?$pair@$$CBV?$basic_string@DU?$char_traits@D@std@@V?$allocator@D@2@@std@@I@2@U_Kfn@?$map@V?$basic_string@DU?$char_traits@D@std@@V?$allocator@D@2@@std@@IU?$less@V?$basic_string@DU?$char_traits@D@std@@V?$allocator@D@2@@std@@@2@V?$allocator@I@2@@2@U?$less@V?$basic_string@DU?$char_traits@D@std@@V?$allocator@D@2@@std@@@2@V?$allocator@I@2@@std@@QAE?AViterator@12@XZ 004041a0 f i ClientNode.obj
 0001:000031d0       ?erase@?$_Tree@V?$basic_string@DU?$char_traits@D@std@@V?$allocator@D@2@@std@@U?$pair@$$CBV?$basic_string@DU?$char_traits@D@std@@V?$allocator@D@2@@std@@I@2@U_Kfn@?$map@V?$basic_string@DU?$char_traits@D@std@@V?$allocator@D@2@@std@@IU?$less@V?$basic_string@DU?$char_traits@D@std@@V?$allocator@D@2@@std@@@2@V?$allocator@I@2@@2@U?$less@V?$basic_string@DU?$char_traits@D@std@@V?$allocator@D@2@@std@@@2@V?$allocator@I@2@@std@@QAE?AViterator@12@V312@@Z 004041d0 f i ClientNode.obj
 0001:00003a20       ?erase@?$_Tree@V?$basic_string@DU?$char_traits@D@std@@V?$allocator@D@2@@std@@U?$pair@$$CBV?$basic_string@DU?$char_traits@D@std@@V?$allocator@D@2@@std@@I@2@U_Kfn@?$map@V?$basic_string@DU?$char_traits@D@std@@V?$allocator@D@2@@std@@IU?$less@V?$basic_string@DU?$char_traits@D@std@@V?$allocator@D@2@@std@@@2@V?$allocator@I@2@@2@U?$less@V?$basic_string@DU?$char_traits@D@std@@V?$allocator@D@2@@std@@@2@V?$allocator@I@2@@std@@QAE?AViterator@12@V312@0@Z 00404a20 f i ClientNode.obj
 0001:00003b60       ?find@?$_Tree@V?$basic_string@DU?$char_traits@D@std@@V?$allocator@D@2@@std@@U?$pair@$$CBV?$basic_string@DU?$char_traits@D@std@@V?$allocator@D@2@@std@@I@2@U_Kfn@?$map@V?$basic_string@DU?$char_traits@D@std@@V?$allocator@D@2@@std@@IU?$less@V?$basic_string@DU?$char_traits@D@std@@V?$allocator@D@2@@std@@@2@V?$allocator@I@2@@2@U?$less@V?$basic_string@DU?$char_traits@D@std@@V?$allocator@D@2@@std@@@2@V?$allocator@I@2@@std@@QAE?AViterator@12@ABV?$basic_string@DU?$char_traits@D@std@@V?$allocator@D@2@@2@@Z 00404b60 f i ClientNode.obj
 0001:00003c00       ?_Freenode@?$_Tree@V?$basic_string@DU?$char_traits@D@std@@V?$allocator@D@2@@std@@U?$pair@$$CBV?$basic_string@DU?$char_traits@D@std@@V?$allocator@D@2@@std@@I@2@U_Kfn@?$map@V?$basic_string@DU?$char_traits@D@std@@V?$allocator@D@2@@std@@IU?$less@V?$basic_string@DU?$char_traits@D@std@@V?$allocator@D@2@@std@@@2@V?$allocator@I@2@@2@U?$less@V?$basic_string@DU?$char_traits@D@std@@V?$allocator@D@2@@std@@@2@V?$allocator@I@2@@std@@IAEXPAU_Node@12@@Z 00404c00 f i ClientNode.obj
 0001:00003c20       ?deallocate@?$allocator@I@std@@QAEXPAXI@Z 00404c20 f i ClientNode.obj
 0001:00003c40       ??0?$pair@$$CBV?$basic_string@DU?$char_traits@D@std@@V?$allocator@D@2@@std@@I@std@@QAE@ABV?$basic_string@DU?$char_traits@D@std@@V?$allocator@D@2@@1@ABI@Z 00404c40 f i ClientNode.obj
 0001:00003c70       ??0?$basic_string@DU?$char_traits@D@std@@V?$allocator@D@2@@std@@QAE@ABV01@@Z 00404c70 f i ClientNode.obj
 0001:00003cb0       ?assign@?$basic_string@DU?$char_traits@D@std@@V?$allocator@D@2@@std@@QAEAAV12@ABV12@II@Z 00404cb0 f i ClientNode.obj
 0001:00003e10       ?copy@?$char_traits@D@std@@SAPADPADPBDI@Z 00404e10 f i ClientNode.obj
 0001:00003e30       ?c_str@?$basic_string@DU?$char_traits@D@std@@V?$allocator@D@2@@std@@QBEPBDXZ 00404e30 f i ClientNode.obj
 0001:00003e60       ?size@?$basic_string@DU?$char_traits@D@std@@V?$allocator@D@2@@std@@QBEIXZ 00404e60 f i ClientNode.obj
 0001:00003e80       ?_Nullstr@?$basic_string@DU?$char_traits@D@std@@V?$allocator@D@2@@std@@CAPBDXZ 00404e80 f i ClientNode.obj
 0001:00003e90       ??Diterator@?$_Tree@V?$basic_string@DU?$char_traits@D@std@@V?$allocator@D@2@@std@@U?$pair@$$CBV?$basic_string@DU?$char_traits@D@std@@V?$allocator@D@2@@std@@I@2@U_Kfn@?$map@V?$basic_string@DU?$char_traits@D@std@@V?$allocator@D@2@@std@@IU?$less@V?$basic_string@DU?$char_traits@D@std@@V?$allocator@D@2@@std@@@2@V?$allocator@I@2@@2@U?$less@V?$basic_string@DU?$char_traits@D@std@@V?$allocator@D@2@@std@@@2@V?$allocator@I@2@@std@@QBEAAU?$pair@$$CBV?$basic_string@DU?$char_traits@D@std@@V?$allocator@D@2@@std@@I@2@XZ 00404e90 f i ClientNode.obj
 0001:00003eb0       ??Eiterator@?$_Tree@V?$basic_string@DU?$char_traits@D@std@@V?$allocator@D@2@@std@@U?$pair@$$CBV?$basic_string@DU?$char_traits@D@std@@V?$allocator@D@2@@std@@I@2@U_Kfn@?$map@V?$basic_string@DU?$char_traits@D@std@@V?$allocator@D@2@@std@@IU?$less@V?$basic_string@DU?$char_traits@D@std@@V?$allocator@D@2@@std@@@2@V?$allocator@I@2@@2@U?$less@V?$basic_string@DU?$char_traits@D@std@@V?$allocator@D@2@@std@@@2@V?$allocator@I@2@@std@@QAEAAV012@XZ 00404eb0 f i ClientNode.obj
 0001:00003ed0       ??8iterator@?$_Tree@V?$basic_string@DU?$char_traits@D@std@@V?$allocator@D@2@@std@@U?$pair@$$CBV?$basic_string@DU?$char_traits@D@std@@V?$allocator@D@2@@std@@I@2@U_Kfn@?$map@V?$basic_string@DU?$char_traits@D@std@@V?$allocator@D@2@@std@@IU?$less@V?$basic_string@DU?$char_traits@D@std@@V?$allocator@D@2@@std@@@2@V?$allocator@I@2@@2@U?$less@V?$basic_string@DU?$char_traits@D@std@@V?$allocator@D@2@@std@@@2@V?$allocator@I@2@@std@@QBE_NABV012@@Z 00404ed0 f i ClientNode.obj
 0001:00003ef0       ??0?$pair@Viterator@?$_Tree@IU?$pair@$$CBIPAVCClientNode@@@std@@U_Kfn@?$map@IPAVCClientNode@@U?$less@I@std@@V?$allocator@PAVCClientNode@@@3@@2@U?$less@I@2@V?$allocator@PAVCClientNode@@@2@@std@@_N@std@@QAE@ABViterator@?$_Tree@IU?$pair@$$CBIPAVCClientNode@@@std@@U_Kfn@?$map@IPAVCClientNode@@U?$less@I@std@@V?$allocator@PAVCClientNode@@@3@@2@U?$less@I@2@V?$allocator@PAVCClientNode@@@2@@1@AB_N@Z 00404ef0 f i ClientNode.obj
 0001:00003f20       ?assign@?$basic_string@DU?$char_traits@D@std@@V?$allocator@D@2@@std@@QAEAAV12@PBDI@Z 00404f20 f i ClientNode.obj
 0001:00003f70       ?erase@?$basic_string@DU?$char_traits@D@std@@V?$allocator@D@2@@std@@QAEAAV12@II@Z 00404f70 f i ClientNode.obj
 0001:00004020       ?move@?$char_traits@D@std@@SAPADPADPBDI@Z 00405020 f i ClientNode.obj
 0001:00004040       ?capacity@?$basic_string@DU?$char_traits@D@std@@V?$allocator@D@2@@std@@QBEIXZ 00405040 f i ClientNode.obj
 0001:00004060       ?_Eos@?$basic_string@DU?$char_traits@D@std@@V?$allocator@D@2@@std@@AAEXI@Z 00405060 f i ClientNode.obj
 0001:000040a0       ?assign@?$char_traits@D@std@@SAXAADABD@Z 004050a0 f i ClientNode.obj
 0001:000040b0       ?_Grow@?$basic_string@DU?$char_traits@D@std@@V?$allocator@D@2@@std@@AAE_NI_N@Z 004050b0 f i ClientNode.obj
 0001:000041f0       ?_Refcnt@?$basic_string@DU?$char_traits@D@std@@V?$allocator@D@2@@std@@AAEAAEPBD@Z 004051f0 f i ClientNode.obj
 0001:00004210       ?deallocate@?$allocator@D@std@@QAEXPAXI@Z 00405210 f i ClientNode.obj
 0001:00004230       ?_Charalloc@?$allocator@PAVCBuffer@Win32@OnlineGameLib@@@std@@QAEPADI@Z 00405230 f i ClientNode.obj
 0001:00004250       ?deallocate@?$allocator@PAVCBuffer@Win32@OnlineGameLib@@@std@@QAEXPAXI@Z 00405250 f i ClientNode.obj
 0001:00004270       ?construct@?$allocator@PAVCBuffer@Win32@OnlineGameLib@@@std@@QAEXPAPAVCBuffer@Win32@OnlineGameLib@@ABQAV345@@Z 00405270 f i ClientNode.obj
 0001:00004290       ?destroy@?$allocator@PAVCBuffer@Win32@OnlineGameLib@@@std@@QAEXPAPAVCBuffer@Win32@OnlineGameLib@@@Z 00405290 f i ClientNode.obj
 0001:000042b0       ??R_Kfn@?$map@IPAVCClientNode@@U?$less@I@std@@V?$allocator@PAVCClientNode@@@3@@std@@QBEABIABU?$pair@$$CBIPAVCClientNode@@@2@@Z 004052b0 f i ClientNode.obj
 0001:000042c0       ??R?$less@I@std@@QBE_NABI0@Z 004052c0 f i ClientNode.obj
 0001:000042e0       ?deallocate@?$allocator@PAVCClientNode@@@std@@QAEXPAXI@Z 004052e0 f i ClientNode.obj
 0001:00004300       ?_Key@?$_Tree@IU?$pair@$$CBIPAVCClientNode@@@std@@U_Kfn@?$map@IPAVCClientNode@@U?$less@I@std@@V?$allocator@PAVCClientNode@@@3@@2@U?$less@I@2@V?$allocator@PAVCClientNode@@@2@@std@@KAABIPAU_Node@12@@Z 00405300 f i ClientNode.obj
 0001:00004320       ?_Left@?$_Tree@IU?$pair@$$CBIPAVCClientNode@@@std@@U_Kfn@?$map@IPAVCClientNode@@U?$less@I@std@@V?$allocator@PAVCClientNode@@@3@@2@U?$less@I@2@V?$allocator@PAVCClientNode@@@2@@std@@KAAAPAU_Node@12@PAU312@@Z 00405320 f i ClientNode.obj
 0001:00004330       ?_Right@?$_Tree@IU?$pair@$$CBIPAVCClientNode@@@std@@U_Kfn@?$map@IPAVCClientNode@@U?$less@I@std@@V?$allocator@PAVCClientNode@@@3@@2@U?$less@I@2@V?$allocator@PAVCClientNode@@@2@@std@@KAAAPAU_Node@12@PAU312@@Z 00405330 f i ClientNode.obj
 0001:00004340       ?size@?$_Tree@IU?$pair@$$CBIPAVCClientNode@@@std@@U_Kfn@?$map@IPAVCClientNode@@U?$less@I@std@@V?$allocator@PAVCClientNode@@@3@@2@U?$less@I@2@V?$allocator@PAVCClientNode@@@2@@std@@QBEIXZ 00405340 f i ClientNode.obj
 0001:00004360       ?erase@?$_Tree@IU?$pair@$$CBIPAVCClientNode@@@std@@U_Kfn@?$map@IPAVCClientNode@@U?$less@I@std@@V?$allocator@PAVCClientNode@@@3@@2@U?$less@I@2@V?$allocator@PAVCClientNode@@@2@@std@@QAE?AViterator@12@V312@@Z 00405360 f i ClientNode.obj
 0001:00004bb0       ?lower_bound@?$_Tree@IU?$pair@$$CBIPAVCClientNode@@@std@@U_Kfn@?$map@IPAVCClientNode@@U?$less@I@std@@V?$allocator@PAVCClientNode@@@3@@2@U?$less@I@2@V?$allocator@PAVCClientNode@@@2@@std@@QAE?AViterator@12@ABI@Z 00405bb0 f i ClientNode.obj
 0001:00004be0       ?equal_range@?$_Tree@IU?$pair@$$CBIPAVCClientNode@@@std@@U_Kfn@?$map@IPAVCClientNode@@U?$less@I@std@@V?$allocator@PAVCClientNode@@@3@@2@U?$less@I@2@V?$allocator@PAVCClientNode@@@2@@std@@QAE?AU?$pair@Viterator@?$_Tree@IU?$pair@$$CBIPAVCClientNode@@@std@@U_Kfn@?$map@IPAVCClientNode@@U?$less@I@std@@V?$allocator@PAVCClientNode@@@3@@2@U?$less@I@2@V?$allocator@PAVCClientNode@@@2@@std@@V123@@2@ABI@Z 00405be0 f i ClientNode.obj
 0001:00004c30       ?_Erase@?$_Tree@IU?$pair@$$CBIPAVCClientNode@@@std@@U_Kfn@?$map@IPAVCClientNode@@U?$less@I@std@@V?$allocator@PAVCClientNode@@@3@@2@U?$less@I@2@V?$allocator@PAVCClientNode@@@2@@std@@IAEXPAU_Node@12@@Z 00405c30 f i ClientNode.obj
 0001:00004ce0       ?_Init@?$_Tree@IU?$pair@$$CBIPAVCClientNode@@@std@@U_Kfn@?$map@IPAVCClientNode@@U?$less@I@std@@V?$allocator@PAVCClientNode@@@3@@2@U?$less@I@2@V?$allocator@PAVCClientNode@@@2@@std@@IAEXXZ 00405ce0 f i ClientNode.obj
 0001:00004dc0       ?_Insert@?$_Tree@IU?$pair@$$CBIPAVCClientNode@@@std@@U_Kfn@?$map@IPAVCClientNode@@U?$less@I@std@@V?$allocator@PAVCClientNode@@@3@@2@U?$less@I@2@V?$allocator@PAVCClientNode@@@2@@std@@IAE?AViterator@12@PAU_Node@12@0ABU?$pair@$$CBIPAVCClientNode@@@2@@Z 00405dc0 f i ClientNode.obj
 0001:00005290       ?_Lmost@?$_Tree@IU?$pair@$$CBIPAVCClientNode@@@std@@U_Kfn@?$map@IPAVCClientNode@@U?$less@I@std@@V?$allocator@PAVCClientNode@@@3@@2@U?$less@I@2@V?$allocator@PAVCClientNode@@@2@@std@@IAEAAPAU_Node@12@XZ 00406290 f i ClientNode.obj
 0001:000052b0       ?_Rmost@?$_Tree@IU?$pair@$$CBIPAVCClientNode@@@std@@U_Kfn@?$map@IPAVCClientNode@@U?$less@I@std@@V?$allocator@PAVCClientNode@@@3@@2@U?$less@I@2@V?$allocator@PAVCClientNode@@@2@@std@@IAEAAPAU_Node@12@XZ 004062b0 f i ClientNode.obj
 0001:000052d0       ?_Root@?$_Tree@IU?$pair@$$CBIPAVCClientNode@@@std@@U_Kfn@?$map@IPAVCClientNode@@U?$less@I@std@@V?$allocator@PAVCClientNode@@@3@@2@U?$less@I@2@V?$allocator@PAVCClientNode@@@2@@std@@IAEAAPAU_Node@12@XZ 004062d0 f i ClientNode.obj
 0001:000052f0       ?_Inc@const_iterator@?$_Tree@IU?$pair@$$CBIPAVCClientNode@@@std@@U_Kfn@?$map@IPAVCClientNode@@U?$less@I@std@@V?$allocator@PAVCClientNode@@@3@@2@U?$less@I@2@V?$allocator@PAVCClientNode@@@2@@std@@QAEXXZ 004062f0 f i ClientNode.obj
 0001:000053d0       ?_Mynode@const_iterator@?$_Tree@IU?$pair@$$CBIPAVCClientNode@@@std@@U_Kfn@?$map@IPAVCClientNode@@U?$less@I@std@@V?$allocator@PAVCClientNode@@@3@@2@U?$less@I@2@V?$allocator@PAVCClientNode@@@2@@std@@QBEPAU_Node@23@XZ 004063d0 f i ClientNode.obj
 0001:000053e0       ??0iterator@?$_Tree@IU?$pair@$$CBIPAVCClientNode@@@std@@U_Kfn@?$map@IPAVCClientNode@@U?$less@I@std@@V?$allocator@PAVCClientNode@@@3@@2@U?$less@I@2@V?$allocator@PAVCClientNode@@@2@@std@@QAE@PAU_Node@12@@Z 004063e0 f i ClientNode.obj
 0001:00005400       ??Fiterator@?$_Tree@IU?$pair@$$CBIPAVCClientNode@@@std@@U_Kfn@?$map@IPAVCClientNode@@U?$less@I@std@@V?$allocator@PAVCClientNode@@@3@@2@U?$less@I@2@V?$allocator@PAVCClientNode@@@2@@std@@QAEAAV012@XZ 00406400 f i ClientNode.obj
 0001:00005420       ?_Next@_Acc@?$list@PAVCBuffer@Win32@OnlineGameLib@@V?$allocator@PAVCBuffer@Win32@OnlineGameLib@@@std@@@std@@SAAAPAU_Node@23@PAU423@@Z 00406420 f i ClientNode.obj
 0001:00005430       ?_Prev@_Acc@?$list@PAVCBuffer@Win32@OnlineGameLib@@V?$allocator@PAVCBuffer@Win32@OnlineGameLib@@@std@@@std@@SAAAPAU_Node@23@PAU423@@Z 00406430 f i ClientNode.obj
 0001:00005440       ?_Value@_Acc@?$list@PAVCBuffer@Win32@OnlineGameLib@@V?$allocator@PAVCBuffer@Win32@OnlineGameLib@@@std@@@std@@SAAAPAVCBuffer@Win32@OnlineGameLib@@PAU_Node@23@@Z 00406440 f i ClientNode.obj
 0001:00005450       ?_Mynode@const_iterator@?$list@PAVCBuffer@Win32@OnlineGameLib@@V?$allocator@PAVCBuffer@Win32@OnlineGameLib@@@std@@@std@@QBEPAU_Node@23@XZ 00406450 f i ClientNode.obj
 0001:00005460       ??0iterator@?$list@PAVCBuffer@Win32@OnlineGameLib@@V?$allocator@PAVCBuffer@Win32@OnlineGameLib@@@std@@@std@@QAE@PAU_Node@12@@Z 00406460 f i ClientNode.obj
 0001:00005480       ??Eiterator@?$list@PAVCBuffer@Win32@OnlineGameLib@@V?$allocator@PAVCBuffer@Win32@OnlineGameLib@@@std@@@std@@QAE?AV012@H@Z 00406480 f i ClientNode.obj
 0001:000054b0       ??9iterator@?$list@PAVCBuffer@Win32@OnlineGameLib@@V?$allocator@PAVCBuffer@Win32@OnlineGameLib@@@std@@@std@@QBE_NABV012@@Z 004064b0 f i ClientNode.obj
 0001:000054e0       ??R?$less@V?$basic_string@DU?$char_traits@D@std@@V?$allocator@D@2@@std@@@std@@QBE_NABV?$basic_string@DU?$char_traits@D@std@@V?$allocator@D@2@@1@0@Z 004064e0 f i ClientNode.obj
 0001:00005500       ?_Color@?$_Tree@V?$basic_string@DU?$char_traits@D@std@@V?$allocator@D@2@@std@@U?$pair@$$CBV?$basic_string@DU?$char_traits@D@std@@V?$allocator@D@2@@std@@I@2@U_Kfn@?$map@V?$basic_string@DU?$char_traits@D@std@@V?$allocator@D@2@@std@@IU?$less@V?$basic_string@DU?$char_traits@D@std@@V?$allocator@D@2@@std@@@2@V?$allocator@I@2@@2@U?$less@V?$basic_string@DU?$char_traits@D@std@@V?$allocator@D@2@@std@@@2@V?$allocator@I@2@@std@@KAAAW4_Redbl@12@PAU_Node@12@@Z 00406500 f i ClientNode.obj
 0001:00005510       ?_Key@?$_Tree@V?$basic_string@DU?$char_traits@D@std@@V?$allocator@D@2@@std@@U?$pair@$$CBV?$basic_string@DU?$char_traits@D@std@@V?$allocator@D@2@@std@@I@2@U_Kfn@?$map@V?$basic_string@DU?$char_traits@D@std@@V?$allocator@D@2@@std@@IU?$less@V?$basic_string@DU?$char_traits@D@std@@V?$allocator@D@2@@std@@@2@V?$allocator@I@2@@2@U?$less@V?$basic_string@DU?$char_traits@D@std@@V?$allocator@D@2@@std@@@2@V?$allocator@I@2@@std@@KAABV?$basic_string@DU?$char_traits@D@std@@V?$allocator@D@2@@2@PAU_Node@12@@Z 00406510 f i ClientNode.obj
 0001:00005530       ?_Left@?$_Tree@V?$basic_string@DU?$char_traits@D@std@@V?$allocator@D@2@@std@@U?$pair@$$CBV?$basic_string@DU?$char_traits@D@std@@V?$allocator@D@2@@std@@I@2@U_Kfn@?$map@V?$basic_string@DU?$char_traits@D@std@@V?$allocator@D@2@@std@@IU?$less@V?$basic_string@DU?$char_traits@D@std@@V?$allocator@D@2@@std@@@2@V?$allocator@I@2@@2@U?$less@V?$basic_string@DU?$char_traits@D@std@@V?$allocator@D@2@@std@@@2@V?$allocator@I@2@@std@@KAAAPAU_Node@12@PAU312@@Z 00406530 f i ClientNode.obj
 0001:00005540       ?_Parent@?$_Tree@V?$basic_string@DU?$char_traits@D@std@@V?$allocator@D@2@@std@@U?$pair@$$CBV?$basic_string@DU?$char_traits@D@std@@V?$allocator@D@2@@std@@I@2@U_Kfn@?$map@V?$basic_string@DU?$char_traits@D@std@@V?$allocator@D@2@@std@@IU?$less@V?$basic_string@DU?$char_traits@D@std@@V?$allocator@D@2@@std@@@2@V?$allocator@I@2@@2@U?$less@V?$basic_string@DU?$char_traits@D@std@@V?$allocator@D@2@@std@@@2@V?$allocator@I@2@@std@@KAAAPAU_Node@12@PAU312@@Z 00406540 f i ClientNode.obj
 0001:00005550       ?_Right@?$_Tree@V?$basic_string@DU?$char_traits@D@std@@V?$allocator@D@2@@std@@U?$pair@$$CBV?$basic_string@DU?$char_traits@D@std@@V?$allocator@D@2@@std@@I@2@U_Kfn@?$map@V?$basic_string@DU?$char_traits@D@std@@V?$allocator@D@2@@std@@IU?$less@V?$basic_string@DU?$char_traits@D@std@@V?$allocator@D@2@@std@@@2@V?$allocator@I@2@@2@U?$less@V?$basic_string@DU?$char_traits@D@std@@V?$allocator@D@2@@std@@@2@V?$allocator@I@2@@std@@KAAAPAU_Node@12@PAU312@@Z 00406550 f i ClientNode.obj
 0001:00005560       ?_Value@?$_Tree@V?$basic_string@DU?$char_traits@D@std@@V?$allocator@D@2@@std@@U?$pair@$$CBV?$basic_string@DU?$char_traits@D@std@@V?$allocator@D@2@@std@@I@2@U_Kfn@?$map@V?$basic_string@DU?$char_traits@D@std@@V?$allocator@D@2@@std@@IU?$less@V?$basic_string@DU?$char_traits@D@std@@V?$allocator@D@2@@std@@@2@V?$allocator@I@2@@2@U?$less@V?$basic_string@DU?$char_traits@D@std@@V?$allocator@D@2@@std@@@2@V?$allocator@I@2@@std@@KAAAU?$pair@$$CBV?$basic_string@DU?$char_traits@D@std@@V?$allocator@D@2@@std@@I@2@PAU_Node@12@@Z 00406560 f i ClientNode.obj
 0001:00005570       ?size@?$_Tree@V?$basic_string@DU?$char_traits@D@std@@V?$allocator@D@2@@std@@U?$pair@$$CBV?$basic_string@DU?$char_traits@D@std@@V?$allocator@D@2@@std@@I@2@U_Kfn@?$map@V?$basic_string@DU?$char_traits@D@std@@V?$allocator@D@2@@std@@IU?$less@V?$basic_string@DU?$char_traits@D@std@@V?$allocator@D@2@@std@@@2@V?$allocator@I@2@@2@U?$less@V?$basic_string@DU?$char_traits@D@std@@V?$allocator@D@2@@std@@@2@V?$allocator@I@2@@std@@QBEIXZ 00406570 f i ClientNode.obj
 0001:00005590       ?insert@?$_Tree@V?$basic_string@DU?$char_traits@D@std@@V?$allocator@D@2@@std@@U?$pair@$$CBV?$basic_string@DU?$char_traits@D@std@@V?$allocator@D@2@@std@@I@2@U_Kfn@?$map@V?$basic_string@DU?$char_traits@D@std@@V?$allocator@D@2@@std@@IU?$less@V?$basic_string@DU?$char_traits@D@std@@V?$allocator@D@2@@std@@@2@V?$allocator@I@2@@2@U?$less@V?$basic_string@DU?$char_traits@D@std@@V?$allocator@D@2@@std@@@2@V?$allocator@I@2@@std@@QAE?AU?$pair@Viterator@?$_Tree@V?$basic_string@DU?$char_traits@D@std@@V?$allocator@D@2@@std@@U?$pair@$$CBV?$basic_string@DU?$char_traits@D@std@@V?$allocator@D@2@@std@@I@2@U_Kfn@?$map@V?$basic_string@DU?$char_traits@D@std@@V?$allocator@D@2@@std@@IU?$less@V?$basic_string@DU?$char_traits@D@std@@V?$allocator@D@2@@std@@@2@V?$allocator@I@2@@2@U?$less@V?$basic_string@DU?$char_traits@D@std@@V?$allocator@D@2@@std@@@2@V?$allocator@I@2@@std@@_N@2@ABU?$pair@$$CBV?$basic_string@DU?$char_traits@D@std@@V?$allocator@D@2@@std@@I@2@@Z 00406590 f i ClientNode.obj
 0001:000057d0       ?lower_bound@?$_Tree@V?$basic_string@DU?$char_traits@D@std@@V?$allocator@D@2@@std@@U?$pair@$$CBV?$basic_string@DU?$char_traits@D@std@@V?$allocator@D@2@@std@@I@2@U_Kfn@?$map@V?$basic_string@DU?$char_traits@D@std@@V?$allocator@D@2@@std@@IU?$less@V?$basic_string@DU?$char_traits@D@std@@V?$allocator@D@2@@std@@@2@V?$allocator@I@2@@2@U?$less@V?$basic_string@DU?$char_traits@D@std@@V?$allocator@D@2@@std@@@2@V?$allocator@I@2@@std@@QAE?AViterator@12@ABV?$basic_string@DU?$char_traits@D@std@@V?$allocator@D@2@@2@@Z 004067d0 f i ClientNode.obj
 0001:00005800       ?_Erase@?$_Tree@V?$basic_string@DU?$char_traits@D@std@@V?$allocator@D@2@@std@@U?$pair@$$CBV?$basic_string@DU?$char_traits@D@std@@V?$allocator@D@2@@std@@I@2@U_Kfn@?$map@V?$basic_string@DU?$char_traits@D@std@@V?$allocator@D@2@@std@@IU?$less@V?$basic_string@DU?$char_traits@D@std@@V?$allocator@D@2@@std@@@2@V?$allocator@I@2@@2@U?$less@V?$basic_string@DU?$char_traits@D@std@@V?$allocator@D@2@@std@@@2@V?$allocator@I@2@@std@@IAEXPAU_Node@12@@Z 00406800 f i ClientNode.obj
 0001:000058b0       ?_Init@?$_Tree@V?$basic_string@DU?$char_traits@D@std@@V?$allocator@D@2@@std@@U?$pair@$$CBV?$basic_string@DU?$char_traits@D@std@@V?$allocator@D@2@@std@@I@2@U_Kfn@?$map@V?$basic_string@DU?$char_traits@D@std@@V?$allocator@D@2@@std@@IU?$less@V?$basic_string@DU?$char_traits@D@std@@V?$allocator@D@2@@std@@@2@V?$allocator@I@2@@2@U?$less@V?$basic_string@DU?$char_traits@D@std@@V?$allocator@D@2@@std@@@2@V?$allocator@I@2@@std@@IAEXXZ 004068b0 f i ClientNode.obj
 0001:00005990       ?_Lmost@?$_Tree@V?$basic_string@DU?$char_traits@D@std@@V?$allocator@D@2@@std@@U?$pair@$$CBV?$basic_string@DU?$char_traits@D@std@@V?$allocator@D@2@@std@@I@2@U_Kfn@?$map@V?$basic_string@DU?$char_traits@D@std@@V?$allocator@D@2@@std@@IU?$less@V?$basic_string@DU?$char_traits@D@std@@V?$allocator@D@2@@std@@@2@V?$allocator@I@2@@2@U?$less@V?$basic_string@DU?$char_traits@D@std@@V?$allocator@D@2@@std@@@2@V?$allocator@I@2@@std@@IAEAAPAU_Node@12@XZ 00406990 f i ClientNode.obj
 0001:000059b0       ?_Lrotate@?$_Tree@V?$basic_string@DU?$char_traits@D@std@@V?$allocator@D@2@@std@@U?$pair@$$CBV?$basic_string@DU?$char_traits@D@std@@V?$allocator@D@2@@std@@I@2@U_Kfn@?$map@V?$basic_string@DU?$char_traits@D@std@@V?$allocator@D@2@@std@@IU?$less@V?$basic_string@DU?$char_traits@D@std@@V?$allocator@D@2@@std@@@2@V?$allocator@I@2@@2@U?$less@V?$basic_string@DU?$char_traits@D@std@@V?$allocator@D@2@@std@@@2@V?$allocator@I@2@@std@@IAEXPAU_Node@12@@Z 004069b0 f i ClientNode.obj
 0001:00005b20       ?_Max@?$_Tree@V?$basic_string@DU?$char_traits@D@std@@V?$allocator@D@2@@std@@U?$pair@$$CBV?$basic_string@DU?$char_traits@D@std@@V?$allocator@D@2@@std@@I@2@U_Kfn@?$map@V?$basic_string@DU?$char_traits@D@std@@V?$allocator@D@2@@std@@IU?$less@V?$basic_string@DU?$char_traits@D@std@@V?$allocator@D@2@@std@@@2@V?$allocator@I@2@@2@U?$less@V?$basic_string@DU?$char_traits@D@std@@V?$allocator@D@2@@std@@@2@V?$allocator@I@2@@std@@KAPAU_Node@12@PAU312@@Z 00406b20 f i ClientNode.obj
 0001:00005ba0       ?_Min@?$_Tree@V?$basic_string@DU?$char_traits@D@std@@V?$allocator@D@2@@std@@U?$pair@$$CBV?$basic_string@DU?$char_traits@D@std@@V?$allocator@D@2@@std@@I@2@U_Kfn@?$map@V?$basic_string@DU?$char_traits@D@std@@V?$allocator@D@2@@std@@IU?$less@V?$basic_string@DU?$char_traits@D@std@@V?$allocator@D@2@@std@@@2@V?$allocator@I@2@@2@U?$less@V?$basic_string@DU?$char_traits@D@std@@V?$allocator@D@2@@std@@@2@V?$allocator@I@2@@std@@KAPAU_Node@12@PAU312@@Z 00406ba0 f i ClientNode.obj
 0001:00005c20       ?_Rmost@?$_Tree@V?$basic_string@DU?$char_traits@D@std@@V?$allocator@D@2@@std@@U?$pair@$$CBV?$basic_string@DU?$char_traits@D@std@@V?$allocator@D@2@@std@@I@2@U_Kfn@?$map@V?$basic_string@DU?$char_traits@D@std@@V?$allocator@D@2@@std@@IU?$less@V?$basic_string@DU?$char_traits@D@std@@V?$allocator@D@2@@std@@@2@V?$allocator@I@2@@2@U?$less@V?$basic_string@DU?$char_traits@D@std@@V?$allocator@D@2@@std@@@2@V?$allocator@I@2@@std@@IAEAAPAU_Node@12@XZ 00406c20 f i ClientNode.obj
 0001:00005c40       ?_Root@?$_Tree@V?$basic_string@DU?$char_traits@D@std@@V?$allocator@D@2@@std@@U?$pair@$$CBV?$basic_string@DU?$char_traits@D@std@@V?$allocator@D@2@@std@@I@2@U_Kfn@?$map@V?$basic_string@DU?$char_traits@D@std@@V?$allocator@D@2@@std@@IU?$less@V?$basic_string@DU?$char_traits@D@std@@V?$allocator@D@2@@std@@@2@V?$allocator@I@2@@2@U?$less@V?$basic_string@DU?$char_traits@D@std@@V?$allocator@D@2@@std@@@2@V?$allocator@I@2@@std@@IAEAAPAU_Node@12@XZ 00406c40 f i ClientNode.obj
 0001:00005c60       ?_Rrotate@?$_Tree@V?$basic_string@DU?$char_traits@D@std@@V?$allocator@D@2@@std@@U?$pair@$$CBV?$basic_string@DU?$char_traits@D@std@@V?$allocator@D@2@@std@@I@2@U_Kfn@?$map@V?$basic_string@DU?$char_traits@D@std@@V?$allocator@D@2@@std@@IU?$less@V?$basic_string@DU?$char_traits@D@std@@V?$allocator@D@2@@std@@@2@V?$allocator@I@2@@2@U?$less@V?$basic_string@DU?$char_traits@D@std@@V?$allocator@D@2@@std@@@2@V?$allocator@I@2@@std@@IAEXPAU_Node@12@@Z 00406c60 f i ClientNode.obj
 0001:00005dd0       ?_Destval@?$_Tree@V?$basic_string@DU?$char_traits@D@std@@V?$allocator@D@2@@std@@U?$pair@$$CBV?$basic_string@DU?$char_traits@D@std@@V?$allocator@D@2@@std@@I@2@U_Kfn@?$map@V?$basic_string@DU?$char_traits@D@std@@V?$allocator@D@2@@std@@IU?$less@V?$basic_string@DU?$char_traits@D@std@@V?$allocator@D@2@@std@@@2@V?$allocator@I@2@@2@U?$less@V?$basic_string@DU?$char_traits@D@std@@V?$allocator@D@2@@std@@@2@V?$allocator@I@2@@std@@IAEXPAU?$pair@$$CBV?$basic_string@DU?$char_traits@D@std@@V?$allocator@D@2@@std@@I@2@@Z 00406dd0 f i ClientNode.obj
 0001:00005df0       ?_Inc@const_iterator@?$_Tree@V?$basic_string@DU?$char_traits@D@std@@V?$allocator@D@2@@std@@U?$pair@$$CBV?$basic_string@DU?$char_traits@D@std@@V?$allocator@D@2@@std@@I@2@U_Kfn@?$map@V?$basic_string@DU?$char_traits@D@std@@V?$allocator@D@2@@std@@IU?$less@V?$basic_string@DU?$char_traits@D@std@@V?$allocator@D@2@@std@@@2@V?$allocator@I@2@@2@U?$less@V?$basic_string@DU?$char_traits@D@std@@V?$allocator@D@2@@std@@@2@V?$allocator@I@2@@std@@QAEXXZ 00406df0 f i ClientNode.obj
 0001:00005ed0       ?_Mynode@const_iterator@?$_Tree@V?$basic_string@DU?$char_traits@D@std@@V?$allocator@D@2@@std@@U?$pair@$$CBV?$basic_string@DU?$char_traits@D@std@@V?$allocator@D@2@@std@@I@2@U_Kfn@?$map@V?$basic_string@DU?$char_traits@D@std@@V?$allocator@D@2@@std@@IU?$less@V?$basic_string@DU?$char_traits@D@std@@V?$allocator@D@2@@std@@@2@V?$allocator@I@2@@2@U?$less@V?$basic_string@DU?$char_traits@D@std@@V?$allocator@D@2@@std@@@2@V?$allocator@I@2@@std@@QBEPAU_Node@23@XZ 00406ed0 f i ClientNode.obj
 0001:00005ee0       ??0iterator@?$_Tree@V?$basic_string@DU?$char_traits@D@std@@V?$allocator@D@2@@std@@U?$pair@$$CBV?$basic_string@DU?$char_traits@D@std@@V?$allocator@D@2@@std@@I@2@U_Kfn@?$map@V?$basic_string@DU?$char_traits@D@std@@V?$allocator@D@2@@std@@IU?$less@V?$basic_string@DU?$char_traits@D@std@@V?$allocator@D@2@@std@@@2@V?$allocator@I@2@@2@U?$less@V?$basic_string@DU?$char_traits@D@std@@V?$allocator@D@2@@std@@@2@V?$allocator@I@2@@std@@QAE@PAU_Node@12@@Z 00406ee0 f i ClientNode.obj
 0001:00005f00       ??0?$pair@Viterator@?$_Tree@V?$basic_string@DU?$char_traits@D@std@@V?$allocator@D@2@@std@@U?$pair@$$CBV?$basic_string@DU?$char_traits@D@std@@V?$allocator@D@2@@std@@I@2@U_Kfn@?$map@V?$basic_string@DU?$char_traits@D@std@@V?$allocator@D@2@@std@@IU?$less@V?$basic_string@DU?$char_traits@D@std@@V?$allocator@D@2@@std@@@2@V?$allocator@I@2@@2@U?$less@V?$basic_string@DU?$char_traits@D@std@@V?$allocator@D@2@@std@@@2@V?$allocator@I@2@@std@@_N@std@@QAE@ABViterator@?$_Tree@V?$basic_string@DU?$char_traits@D@std@@V?$allocator@D@2@@std@@U?$pair@$$CBV?$basic_string@DU?$char_traits@D@std@@V?$allocator@D@2@@std@@I@2@U_Kfn@?$map@V?$basic_string@DU?$char_traits@D@std@@V?$allocator@D@2@@std@@IU?$less@V?$basic_string@DU?$char_traits@D@std@@V?$allocator@D@2@@std@@@2@V?$allocator@I@2@@2@U?$less@V?$basic_string@DU?$char_traits@D@std@@V?$allocator@D@2@@std@@@2@V?$allocator@I@2@@1@AB_N@Z 00406f00 f i ClientNode.obj
 0001:00005f30       ?max_size@?$basic_string@DU?$char_traits@D@std@@V?$allocator@D@2@@std@@QBEIXZ 00406f30 f i ClientNode.obj
 0001:00005f70       ?_Copy@?$basic_string@DU?$char_traits@D@std@@V?$allocator@D@2@@std@@AAEXI@Z 00406f70 f i ClientNode.obj
 0001:000060b0       ?_Split@?$basic_string@DU?$char_traits@D@std@@V?$allocator@D@2@@std@@AAEXXZ 004070b0 f i ClientNode.obj
 0001:00006120       ?_Color@?$_Tree@IU?$pair@$$CBIPAVCClientNode@@@std@@U_Kfn@?$map@IPAVCClientNode@@U?$less@I@std@@V?$allocator@PAVCClientNode@@@3@@2@U?$less@I@2@V?$allocator@PAVCClientNode@@@2@@std@@KAAAW4_Redbl@12@PAU_Node@12@@Z 00407120 f i ClientNode.obj
 0001:00006130       ?_Parent@?$_Tree@IU?$pair@$$CBIPAVCClientNode@@@std@@U_Kfn@?$map@IPAVCClientNode@@U?$less@I@std@@V?$allocator@PAVCClientNode@@@3@@2@U?$less@I@2@V?$allocator@PAVCClientNode@@@2@@std@@KAAAPAU_Node@12@PAU312@@Z 00407130 f i ClientNode.obj
 0001:00006140       ?upper_bound@?$_Tree@IU?$pair@$$CBIPAVCClientNode@@@std@@U_Kfn@?$map@IPAVCClientNode@@U?$less@I@std@@V?$allocator@PAVCClientNode@@@3@@2@U?$less@I@2@V?$allocator@PAVCClientNode@@@2@@std@@QAE?AViterator@12@ABI@Z 00407140 f i ClientNode.obj
 0001:00006170       ?_Lbound@?$_Tree@IU?$pair@$$CBIPAVCClientNode@@@std@@U_Kfn@?$map@IPAVCClientNode@@U?$less@I@std@@V?$allocator@PAVCClientNode@@@3@@2@U?$less@I@2@V?$allocator@PAVCClientNode@@@2@@std@@IBEPAU_Node@12@ABI@Z 00407170 f i ClientNode.obj
 0001:00006240       ?_Lrotate@?$_Tree@IU?$pair@$$CBIPAVCClientNode@@@std@@U_Kfn@?$map@IPAVCClientNode@@U?$less@I@std@@V?$allocator@PAVCClientNode@@@3@@2@U?$less@I@2@V?$allocator@PAVCClientNode@@@2@@std@@IAEXPAU_Node@12@@Z 00407240 f i ClientNode.obj
 0001:000063b0       ?_Max@?$_Tree@IU?$pair@$$CBIPAVCClientNode@@@std@@U_Kfn@?$map@IPAVCClientNode@@U?$less@I@std@@V?$allocator@PAVCClientNode@@@3@@2@U?$less@I@2@V?$allocator@PAVCClientNode@@@2@@std@@KAPAU_Node@12@PAU312@@Z 004073b0 f i ClientNode.obj
 0001:00006430       ?_Min@?$_Tree@IU?$pair@$$CBIPAVCClientNode@@@std@@U_Kfn@?$map@IPAVCClientNode@@U?$less@I@std@@V?$allocator@PAVCClientNode@@@3@@2@U?$less@I@2@V?$allocator@PAVCClientNode@@@2@@std@@KAPAU_Node@12@PAU312@@Z 00407430 f i ClientNode.obj
 0001:000064b0       ?_Rrotate@?$_Tree@IU?$pair@$$CBIPAVCClientNode@@@std@@U_Kfn@?$map@IPAVCClientNode@@U?$less@I@std@@V?$allocator@PAVCClientNode@@@3@@2@U?$less@I@2@V?$allocator@PAVCClientNode@@@2@@std@@IAEXPAU_Node@12@@Z 004074b0 f i ClientNode.obj
 0001:00006620       ?_Buynode@?$_Tree@IU?$pair@$$CBIPAVCClientNode@@@std@@U_Kfn@?$map@IPAVCClientNode@@U?$less@I@std@@V?$allocator@PAVCClientNode@@@3@@2@U?$less@I@2@V?$allocator@PAVCClientNode@@@2@@std@@IAEPAU_Node@12@PAU312@W4_Redbl@12@@Z 00407620 f i ClientNode.obj
 0001:00006670       ?_Consval@?$_Tree@IU?$pair@$$CBIPAVCClientNode@@@std@@U_Kfn@?$map@IPAVCClientNode@@U?$less@I@std@@V?$allocator@PAVCClientNode@@@3@@2@U?$less@I@2@V?$allocator@PAVCClientNode@@@2@@std@@IAEXPAU?$pair@$$CBIPAVCClientNode@@@2@ABU32@@Z 00407670 f i ClientNode.obj
 0001:00006690       ?_Destval@?$_Tree@IU?$pair@$$CBIPAVCClientNode@@@std@@U_Kfn@?$map@IPAVCClientNode@@U?$less@I@std@@V?$allocator@PAVCClientNode@@@3@@2@U?$less@I@2@V?$allocator@PAVCClientNode@@@2@@std@@IAEXPAU?$pair@$$CBIPAVCClientNode@@@2@@Z 00407690 f i ClientNode.obj
 0001:000066b0       ??0const_iterator@?$_Tree@IU?$pair@$$CBIPAVCClientNode@@@std@@U_Kfn@?$map@IPAVCClientNode@@U?$less@I@std@@V?$allocator@PAVCClientNode@@@3@@2@U?$less@I@2@V?$allocator@PAVCClientNode@@@2@@std@@QAE@PAU_Node@12@@Z 004076b0 f i ClientNode.obj
 0001:000066d0       ?_Dec@const_iterator@?$_Tree@IU?$pair@$$CBIPAVCClientNode@@@std@@U_Kfn@?$map@IPAVCClientNode@@U?$less@I@std@@V?$allocator@PAVCClientNode@@@3@@2@U?$less@I@2@V?$allocator@PAVCClientNode@@@2@@std@@QAEXXZ 004076d0 f i ClientNode.obj
 0001:000067e0       ??0const_iterator@?$list@PAVCBuffer@Win32@OnlineGameLib@@V?$allocator@PAVCBuffer@Win32@OnlineGameLib@@@std@@@std@@QAE@PAU_Node@12@@Z 004077e0 f i ClientNode.obj
 0001:00006800       ??Eiterator@?$list@PAVCBuffer@Win32@OnlineGameLib@@V?$allocator@PAVCBuffer@Win32@OnlineGameLib@@@std@@@std@@QAEAAV012@XZ 00407800 f i ClientNode.obj
 0001:00006830       ??8iterator@?$list@PAVCBuffer@Win32@OnlineGameLib@@V?$allocator@PAVCBuffer@Win32@OnlineGameLib@@@std@@@std@@QBE_NABV012@@Z 00407830 f i ClientNode.obj
 0001:00006850       ??R_Kfn@?$map@V?$basic_string@DU?$char_traits@D@std@@V?$allocator@D@2@@std@@IU?$less@V?$basic_string@DU?$char_traits@D@std@@V?$allocator@D@2@@std@@@2@V?$allocator@I@2@@std@@QBEABV?$basic_string@DU?$char_traits@D@std@@V?$allocator@D@2@@2@ABU?$pair@$$CBV?$basic_string@DU?$char_traits@D@std@@V?$allocator@D@2@@std@@I@2@@Z 00407850 f i ClientNode.obj
 0001:00006860       ?_Insert@?$_Tree@V?$basic_string@DU?$char_traits@D@std@@V?$allocator@D@2@@std@@U?$pair@$$CBV?$basic_string@DU?$char_traits@D@std@@V?$allocator@D@2@@std@@I@2@U_Kfn@?$map@V?$basic_string@DU?$char_traits@D@std@@V?$allocator@D@2@@std@@IU?$less@V?$basic_string@DU?$char_traits@D@std@@V?$allocator@D@2@@std@@@2@V?$allocator@I@2@@2@U?$less@V?$basic_string@DU?$char_traits@D@std@@V?$allocator@D@2@@std@@@2@V?$allocator@I@2@@std@@IAE?AViterator@12@PAU_Node@12@0ABU?$pair@$$CBV?$basic_string@DU?$char_traits@D@std@@V?$allocator@D@2@@std@@I@2@@Z 00407860 f i ClientNode.obj
 0001:00006d30       ?_Lbound@?$_Tree@V?$basic_string@DU?$char_traits@D@std@@V?$allocator@D@2@@std@@U?$pair@$$CBV?$basic_string@DU?$char_traits@D@std@@V?$allocator@D@2@@std@@I@2@U_Kfn@?$map@V?$basic_string@DU?$char_traits@D@std@@V?$allocator@D@2@@std@@IU?$less@V?$basic_string@DU?$char_traits@D@std@@V?$allocator@D@2@@std@@@2@V?$allocator@I@2@@2@U?$less@V?$basic_string@DU?$char_traits@D@std@@V?$allocator@D@2@@std@@@2@V?$allocator@I@2@@std@@IBEPAU_Node@12@ABV?$basic_string@DU?$char_traits@D@std@@V?$allocator@D@2@@2@@Z 00407d30 f i ClientNode.obj
 0001:00006e00       ?_Buynode@?$_Tree@V?$basic_string@DU?$char_traits@D@std@@V?$allocator@D@2@@std@@U?$pair@$$CBV?$basic_string@DU?$char_traits@D@std@@V?$allocator@D@2@@std@@I@2@U_Kfn@?$map@V?$basic_string@DU?$char_traits@D@std@@V?$allocator@D@2@@std@@IU?$less@V?$basic_string@DU?$char_traits@D@std@@V?$allocator@D@2@@std@@@2@V?$allocator@I@2@@2@U?$less@V?$basic_string@DU?$char_traits@D@std@@V?$allocator@D@2@@std@@@2@V?$allocator@I@2@@std@@IAEPAU_Node@12@PAU312@W4_Redbl@12@@Z 00407e00 f i ClientNode.obj
 0001:00006e50       ??0const_iterator@?$_Tree@V?$basic_string@DU?$char_traits@D@std@@V?$allocator@D@2@@std@@U?$pair@$$CBV?$basic_string@DU?$char_traits@D@std@@V?$allocator@D@2@@std@@I@2@U_Kfn@?$map@V?$basic_string@DU?$char_traits@D@std@@V?$allocator@D@2@@std@@IU?$less@V?$basic_string@DU?$char_traits@D@std@@V?$allocator@D@2@@std@@@2@V?$allocator@I@2@@2@U?$less@V?$basic_string@DU?$char_traits@D@std@@V?$allocator@D@2@@std@@@2@V?$allocator@I@2@@std@@QAE@PAU_Node@12@@Z 00407e50 f i ClientNode.obj
 0001:00006e70       ??Fiterator@?$_Tree@V?$basic_string@DU?$char_traits@D@std@@V?$allocator@D@2@@std@@U?$pair@$$CBV?$basic_string@DU?$char_traits@D@std@@V?$allocator@D@2@@std@@I@2@U_Kfn@?$map@V?$basic_string@DU?$char_traits@D@std@@V?$allocator@D@2@@std@@IU?$less@V?$basic_string@DU?$char_traits@D@std@@V?$allocator@D@2@@std@@@2@V?$allocator@I@2@@2@U?$less@V?$basic_string@DU?$char_traits@D@std@@V?$allocator@D@2@@std@@@2@V?$allocator@I@2@@std@@QAEAAV012@XZ 00407e70 f i ClientNode.obj
 0001:00006e90       ??0?$pair@Viterator@?$_Tree@IU?$pair@$$CBIPAVCClientNode@@@std@@U_Kfn@?$map@IPAVCClientNode@@U?$less@I@std@@V?$allocator@PAVCClientNode@@@3@@2@U?$less@I@2@V?$allocator@PAVCClientNode@@@2@@std@@V123@@std@@QAE@ABViterator@?$_Tree@IU?$pair@$$CBIPAVCClientNode@@@std@@U_Kfn@?$map@IPAVCClientNode@@U?$less@I@std@@V?$allocator@PAVCClientNode@@@3@@2@U?$less@I@2@V?$allocator@PAVCClientNode@@@2@@1@0@Z 00407e90 f i ClientNode.obj
 0001:00006ec0       ?allocate@?$allocator@D@std@@QAEPADIPBX@Z 00407ec0 f i ClientNode.obj
 0001:00006ee0       ?max_size@?$allocator@D@std@@QBEIXZ 00407ee0 f i ClientNode.obj
 0001:00006f10       ?_Charalloc@?$allocator@PAVCClientNode@@@std@@QAEPADI@Z 00407f10 f i ClientNode.obj
 0001:00006f30       ?_Root@?$_Tree@IU?$pair@$$CBIPAVCClientNode@@@std@@U_Kfn@?$map@IPAVCClientNode@@U?$less@I@std@@V?$allocator@PAVCClientNode@@@3@@2@U?$less@I@2@V?$allocator@PAVCClientNode@@@2@@std@@IBEAAPAU_Node@12@XZ 00407f30 f i ClientNode.obj
 0001:00006f50       ?_Ubound@?$_Tree@IU?$pair@$$CBIPAVCClientNode@@@std@@U_Kfn@?$map@IPAVCClientNode@@U?$less@I@std@@V?$allocator@PAVCClientNode@@@3@@2@U?$less@I@2@V?$allocator@PAVCClientNode@@@2@@std@@IBEPAU_Node@12@ABI@Z 00407f50 f i ClientNode.obj
 0001:00007020       ?_Charalloc@?$allocator@I@std@@QAEPADI@Z 00408020 f i ClientNode.obj
 0001:00007040       ?_Root@?$_Tree@V?$basic_string@DU?$char_traits@D@std@@V?$allocator@D@2@@std@@U?$pair@$$CBV?$basic_string@DU?$char_traits@D@std@@V?$allocator@D@2@@std@@I@2@U_Kfn@?$map@V?$basic_string@DU?$char_traits@D@std@@V?$allocator@D@2@@std@@IU?$less@V?$basic_string@DU?$char_traits@D@std@@V?$allocator@D@2@@std@@@2@V?$allocator@I@2@@2@U?$less@V?$basic_string@DU?$char_traits@D@std@@V?$allocator@D@2@@std@@@2@V?$allocator@I@2@@std@@IBEAAPAU_Node@12@XZ 00408040 f i ClientNode.obj
 0001:00007060       ?_Consval@?$_Tree@V?$basic_string@DU?$char_traits@D@std@@V?$allocator@D@2@@std@@U?$pair@$$CBV?$basic_string@DU?$char_traits@D@std@@V?$allocator@D@2@@std@@I@2@U_Kfn@?$map@V?$basic_string@DU?$char_traits@D@std@@V?$allocator@D@2@@std@@IU?$less@V?$basic_string@DU?$char_traits@D@std@@V?$allocator@D@2@@std@@@2@V?$allocator@I@2@@2@U?$less@V?$basic_string@DU?$char_traits@D@std@@V?$allocator@D@2@@std@@@2@V?$allocator@I@2@@std@@IAEXPAU?$pair@$$CBV?$basic_string@DU?$char_traits@D@std@@V?$allocator@D@2@@std@@I@2@ABU32@@Z 00408060 f i ClientNode.obj
 0001:00007080       ?_Dec@const_iterator@?$_Tree@V?$basic_string@DU?$char_traits@D@std@@V?$allocator@D@2@@std@@U?$pair@$$CBV?$basic_string@DU?$char_traits@D@std@@V?$allocator@D@2@@std@@I@2@U_Kfn@?$map@V?$basic_string@DU?$char_traits@D@std@@V?$allocator@D@2@@std@@IU?$less@V?$basic_string@DU?$char_traits@D@std@@V?$allocator@D@2@@std@@@2@V?$allocator@I@2@@2@U?$less@V?$basic_string@DU?$char_traits@D@std@@V?$allocator@D@2@@std@@@2@V?$allocator@I@2@@std@@QAEXXZ 00408080 f i ClientNode.obj
 0001:00007190       ??8std@@YA_NABV?$allocator@D@0@0@Z 00408190 f i ClientNode.obj
 0001:000071a0       ?_Distance@std@@YAXViterator@?$_Tree@IU?$pair@$$CBIPAVCClientNode@@@std@@U_Kfn@?$map@IPAVCClientNode@@U?$less@I@std@@V?$allocator@PAVCClientNode@@@3@@2@U?$less@I@2@V?$allocator@PAVCClientNode@@@2@@1@0AAI@Z 004081a0 f i ClientNode.obj
 0001:000071d0       ?swap@std@@YAXAAW4_Redbl@?$_Tree@V?$basic_string@DU?$char_traits@D@std@@V?$allocator@D@2@@std@@U?$pair@$$CBV?$basic_string@DU?$char_traits@D@std@@V?$allocator@D@2@@std@@I@2@U_Kfn@?$map@V?$basic_string@DU?$char_traits@D@std@@V?$allocator@D@2@@std@@IU?$less@V?$basic_string@DU?$char_traits@D@std@@V?$allocator@D@2@@std@@@2@V?$allocator@I@2@@2@U?$less@V?$basic_string@DU?$char_traits@D@std@@V?$allocator@D@2@@std@@@2@V?$allocator@I@2@@1@0@Z 004081d0 f i ClientNode.obj
 0001:00007200       ?_Allocate@std@@YAPADHPAD@Z 00408200 f i ClientNode.obj
 0001:00007220       ?_Construct@std@@YAXPAPAVCBuffer@Win32@OnlineGameLib@@ABQAV234@@Z 00408220 f i ClientNode.obj
 0001:00007260       ??2@YAPAXIPAX@Z            00408260 f i ClientNode.obj
 0001:00007270       ?_Destroy@std@@YAXPAPAVCBuffer@Win32@OnlineGameLib@@@Z 00408270 f i ClientNode.obj
 0001:00007280       ?swap@std@@YAXAAW4_Redbl@?$_Tree@IU?$pair@$$CBIPAVCClientNode@@@std@@U_Kfn@?$map@IPAVCClientNode@@U?$less@I@std@@V?$allocator@PAVCClientNode@@@3@@2@U?$less@I@2@V?$allocator@PAVCClientNode@@@2@@1@0@Z 00408280 f i ClientNode.obj
 0001:000072b0       ??Mstd@@YA_NABV?$basic_string@DU?$char_traits@D@std@@V?$allocator@D@2@@0@0@Z 004082b0 f i ClientNode.obj
 0001:000072d0       ?_Destroy@std@@YAXPAU?$pair@$$CBV?$basic_string@DU?$char_traits@D@std@@V?$allocator@D@2@@std@@I@1@@Z 004082d0 f i ClientNode.obj
 0001:000072e0       ?_Construct@std@@YAXPAU?$pair@$$CBIPAVCClientNode@@@1@ABU21@@Z 004082e0 f i ClientNode.obj
 0001:00007320       ?_Destroy@std@@YAXPAU?$pair@$$CBIPAVCClientNode@@@1@@Z 00408320 f i ClientNode.obj
 0001:00007330       ?_Construct@std@@YAXPAU?$pair@$$CBV?$basic_string@DU?$char_traits@D@std@@V?$allocator@D@2@@std@@I@1@ABU21@@Z 00408330 f i ClientNode.obj
 0001:000073a0       ??3@YAXPAX0@Z              004083a0 f i ClientNode.obj
 0001:000073b0       ??_G?$pair@$$CBV?$basic_string@DU?$char_traits@D@std@@V?$allocator@D@2@@std@@I@std@@QAEPAXI@Z 004083b0 f i ClientNode.obj
 0001:000073e0       ??0?$pair@$$CBV?$basic_string@DU?$char_traits@D@std@@V?$allocator@D@2@@std@@I@std@@QAE@ABU01@@Z 004083e0 f i ClientNode.obj
 0001:00007410       ?compare@?$basic_string@DU?$char_traits@D@std@@V?$allocator@D@2@@std@@QBEHABV12@@Z 00408410 f i ClientNode.obj
 0001:00007440       ?compare@?$basic_string@DU?$char_traits@D@std@@V?$allocator@D@2@@std@@QBEHIIPBDI@Z 00408440 f i ClientNode.obj
 0001:000074f0       ?compare@?$char_traits@D@std@@SAHPBD0I@Z 004084f0 f i ClientNode.obj
 0001:00007510       ?_Psum@?$basic_string@DU?$char_traits@D@std@@V?$allocator@D@2@@std@@CAPADPADI@Z 00408510 f i ClientNode.obj
 0001:00007540       ?_Iter_cat@std@@YA?AUbidirectional_iterator_tag@1@ABU?$iterator@Ubidirectional_iterator_tag@std@@U?$pair@$$CBIPAVCClientNode@@@2@H@1@@Z 00408540 f i ClientNode.obj
 0001:00007560       ?_Distance@std@@YAXViterator@?$_Tree@IU?$pair@$$CBIPAVCClientNode@@@std@@U_Kfn@?$map@IPAVCClientNode@@U?$less@I@std@@V?$allocator@PAVCClientNode@@@3@@2@U?$less@I@2@V?$allocator@PAVCClientNode@@@2@@1@0AAIUbidirectional_iterator_tag@1@@Z 00408560 f i ClientNode.obj
 0001:000075a0       ?id@?$ctype@G@std@@$D      004085a0 f i ClientNode.obj
 0001:000075d0       ?id@?$ctype@G@std@@$E      004085d0 f i ClientNode.obj
 0001:000075e0       ?GetIndexByName@CDBBackup@@CAHPADPAUTRoleList@1@H@Z 004085e0 f   DBBackup.obj
 0001:0000764d       ?GetMin@CDBBackup@@CAPAUTRoleList@1@QAU21@HW4StatType@1@@Z 0040864d f   DBBackup.obj
 0001:00007764       ?ListSort@CDBBackup@@CAXQAUTRoleList@1@HW4StatType@1@@Z 00408764 f   DBBackup.obj
 0001:000078d9       ?RoleDataCopy@CDBBackup@@CAXPAUTRoleList@1@PAUTRoleData@@@Z 004088d9 f   DBBackup.obj
 0001:0000796d       ?LoadFilterName@CDBBackup@@CAPADXZ 0040896d f   DBBackup.obj
 0001:00007b7e       ?IsRoleFilter@CDBBackup@@CA_NPAD0@Z 00408b7e f   DBBackup.obj
 0001:00007be4       ??0CDBBackup@@QAE@PAD0PAVZDBTable@@@Z 00408be4 f   DBBackup.obj
 0001:00007ca3       ?Open@CDBBackup@@QAE_NH@Z  00408ca3 f   DBBackup.obj
 0001:00007dea       ?Close@CDBBackup@@QAE_NXZ  00408dea f   DBBackup.obj
 0001:00007e29       ?Suspend@CDBBackup@@QAE_NXZ 00408e29 f   DBBackup.obj
 0001:00007e8f       ?Resume@CDBBackup@@QAE_NXZ 00408e8f f   DBBackup.obj
 0001:00007ee6       ?GetSendStatData@CDBBackup@@QAE?AUTGAME_STAT_DATA@@XZ 00408ee6 f   DBBackup.obj
 0001:00007f0b       ?IsWorking@CDBBackup@@QAE_NXZ 00408f0b f   DBBackup.obj
 0001:00007f1b       ?IsBackuping@CDBBackup@@QAE_NXZ 00408f1b f   DBBackup.obj
 0001:00007f2b       ?ManualBackup@CDBBackup@@QAE_NXZ 00408f2b f   DBBackup.obj
 0001:00007f93       ?TimerThreadFunc@CDBBackup@@CGKPAX@Z 00408f93 f   DBBackup.obj
 0001:00008005       ?ManualThreadFunc@CDBBackup@@CGKPAX@Z 00409005 f   DBBackup.obj
 0001:00008013       ?Backup@CDBBackup@@CAXXZ   00409013 f   DBBackup.obj
 0001:0000a660       ?MakeSendStatData@CDBBackup@@CAXXZ 0040b660 f   DBBackup.obj
 0001:0000a926       ?SaveStatInfo@CDBBackup@@QAEXXZ 0040b926 f   DBBackup.obj
 0001:0000ae20       ??_D?$basic_fstream@DU?$char_traits@D@std@@@std@@QAEXXZ 0040be20 f i DBBackup.obj
 0001:0000ae50       ??_GCDBBackup@@UAEPAXI@Z   0040be50 f i DBBackup.obj
 0001:0000ae50       ??_ECDBBackup@@UAEPAXI@Z   0040be50 f i DBBackup.obj
 0001:0000ae80       ??1CDBBackup@@UAE@XZ       0040be80 f i DBBackup.obj
 0001:0000aea0       ?first@ZDBTable@@QAEPAUZCursor@@XZ 0040bea0 f i DBBackup.obj
 0001:0000aec0       ?next@ZDBTable@@QAE_NPAUZCursor@@@Z 0040bec0 f i DBBackup.obj
 0001:0000aee0       ?endl@std@@YAAAV?$basic_ostream@DU?$char_traits@D@std@@@1@AAV21@@Z 0040bee0 f i DBBackup.obj
 0001:0000af00       ??1CDBDump@@UAE@XZ         0040bf00 f i DBBackup.obj
 0001:0000af20       ??_GCDBDump@@UAEPAXI@Z     0040bf20 f i DBBackup.obj
 0001:0000af20       ??_ECDBDump@@UAEPAXI@Z     0040bf20 f i DBBackup.obj
 0001:0000af50       ?closeCursor@ZDBTable@@QAEXPAUZCursor@@@Z 0040bf50 f i DBBackup.obj
 0001:0000afb0       ?search@ZDBTable@@QAEPAUZCursor@@PBDHH@Z 0040bfb0 f i DBBackup.obj
 0001:0000afe0       ??0?$basic_string@DU?$char_traits@D@std@@V?$allocator@D@2@@std@@QAE@ABV?$allocator@D@1@@Z 0040bfe0 f i DBBackup.obj
 0001:0000b010       ??4?$basic_string@DU?$char_traits@D@std@@V?$allocator@D@2@@std@@QAEAAV01@PBD@Z 0040c010 f i DBBackup.obj
 0001:0000b030       ??Y?$basic_string@DU?$char_traits@D@std@@V?$allocator@D@2@@std@@QAEAAV01@PBD@Z 0040c030 f i DBBackup.obj
 0001:0000b050       ??6?$basic_ostream@DU?$char_traits@D@std@@@std@@QAEAAV01@P6AAAV01@AAV01@@Z@Z 0040c050 f i DBBackup.obj
 0001:0000b070       ??6?$basic_ostream@DU?$char_traits@D@std@@@std@@QAEAAV01@G@Z 0040c070 f i DBBackup.obj
 0001:0000b200       ??1locale@std@@QAE@XZ      0040c200 f i DBBackup.obj
 0001:0000b250       ?_Decref@facet@locale@std@@QAEPAV123@XZ 0040c250 f i DBBackup.obj
 0001:0000b2b0       ?getloc@ios_base@std@@QBE?AVlocale@2@XZ 0040c2b0 f i DBBackup.obj
 0001:0000b2f0       ??0locale@std@@QAE@ABV01@@Z 0040c2f0 f i DBBackup.obj
 0001:0000b320       ?_Incref@facet@locale@std@@QAEXXZ 0040c320 f i DBBackup.obj
 0001:0000b360       ??6?$basic_ostream@DU?$char_traits@D@std@@@std@@QAEAAV01@H@Z 0040c360 f i DBBackup.obj
 0001:0000b530       ?flags@ios_base@std@@QBEHXZ 0040c530 f i DBBackup.obj
 0001:0000b550       ??6?$basic_ostream@DU?$char_traits@D@std@@@std@@QAEAAV01@N@Z 0040c550 f i DBBackup.obj
 0001:0000b6f0       ?put@?$basic_ostream@DU?$char_traits@D@std@@@std@@QAEAAV12@D@Z 0040c6f0 f i DBBackup.obj
 0001:0000b820       ?eq_int_type@?$char_traits@D@std@@SA_NABH0@Z 0040c820 f i DBBackup.obj
 0001:0000b840       ?eof@?$char_traits@D@std@@SAHXZ 0040c840 f i DBBackup.obj
 0001:0000b850       ?flush@?$basic_ostream@DU?$char_traits@D@std@@@std@@QAEAAV12@XZ 0040c850 f i DBBackup.obj
 0001:0000b8c0       ?fail@ios_base@std@@QBE_NXZ 0040c8c0 f i DBBackup.obj
 0001:0000b8e0       ?rdstate@ios_base@std@@QBEHXZ 0040c8e0 f i DBBackup.obj
 0001:0000b900       ??1?$basic_ios@DU?$char_traits@D@std@@@std@@UAE@XZ 0040c900 f i DBBackup.obj
 0001:0000b920       ?setstate@?$basic_ios@DU?$char_traits@D@std@@@std@@QAEXH_N@Z 0040c920 f i DBBackup.obj
 0001:0000b950       ?rdbuf@?$basic_ios@DU?$char_traits@D@std@@@std@@QBEPAV?$basic_streambuf@DU?$char_traits@D@std@@@2@XZ 0040c950 f i DBBackup.obj
 0001:0000b970       ?getline@?$basic_istream@DU?$char_traits@D@std@@@std@@QAEAAV12@PADH@Z 0040c970 f i DBBackup.obj
 0001:0000b9b0       ??0?$basic_fstream@DU?$char_traits@D@std@@@std@@QAE@PBDH@Z 0040c9b0 f i DBBackup.obj
 0001:0000ba90       ??1?$basic_fstream@DU?$char_traits@D@std@@@std@@UAE@XZ 0040ca90 f i DBBackup.obj
 0001:0000bb00       ?is_open@?$basic_fstream@DU?$char_traits@D@std@@@std@@QBE_NXZ 0040cb00 f i DBBackup.obj
 0001:0000bb20       ?close@?$basic_fstream@DU?$char_traits@D@std@@@std@@QAEXXZ 0040cb20 f i DBBackup.obj
 0001:0000bb50       ??1?$basic_iostream@DU?$char_traits@D@std@@@std@@UAE@XZ 0040cb50 f i DBBackup.obj
 0001:0000bbd0       ??1?$basic_ostream@DU?$char_traits@D@std@@@std@@UAE@XZ 0040cbd0 f i DBBackup.obj
 0001:0000bbf0       ??1?$basic_istream@DU?$char_traits@D@std@@@std@@UAE@XZ 0040cbf0 f i DBBackup.obj
 0001:0000bc10       ??1?$basic_filebuf@DU?$char_traits@D@std@@@std@@UAE@XZ 0040cc10 f i DBBackup.obj
 0001:0000bcb0       ??1?$basic_streambuf@DU?$char_traits@D@std@@@std@@UAE@XZ 0040ccb0 f i DBBackup.obj
 0001:0000bcd0       ?overflow@?$basic_streambuf@DU?$char_traits@D@std@@@std@@MAEHH@Z 0040ccd0 f i DBBackup.obj
 0001:0000bcf0       ?pbackfail@?$basic_streambuf@DU?$char_traits@D@std@@@std@@MAEHH@Z 0040ccf0 f i DBBackup.obj
 0001:0000bd10       ?showmanyc@?$basic_streambuf@DU?$char_traits@D@std@@@std@@MAEHXZ 0040cd10 f i DBBackup.obj
 0001:0000bd20       ?underflow@?$basic_streambuf@DU?$char_traits@D@std@@@std@@MAEHXZ 0040cd20 f i DBBackup.obj
 0001:0000bd30       ?uflow@?$basic_streambuf@DU?$char_traits@D@std@@@std@@MAEHXZ 0040cd30 f i DBBackup.obj
 0001:0000bd90       ?to_int_type@?$char_traits@D@std@@SAHABD@Z 0040cd90 f i DBBackup.obj
 0001:0000bda0       ?xsgetn@?$basic_streambuf@DU?$char_traits@D@std@@@std@@MAEHPADH@Z 0040cda0 f i DBBackup.obj
 0001:0000bea0       ?to_char_type@?$char_traits@D@std@@SADABH@Z 0040cea0 f i DBBackup.obj
 0001:0000beb0       ?xsputn@?$basic_streambuf@DU?$char_traits@D@std@@@std@@MAEHPBDH@Z 0040ceb0 f i DBBackup.obj
 0001:0000bfb0       ?seekoff@?$basic_streambuf@DU?$char_traits@D@std@@@std@@MAE?AV?$fpos@H@2@JW4seekdir@ios_base@2@H@Z 0040cfb0 f i DBBackup.obj
 0001:0000bfe0       ?seekpos@?$basic_streambuf@DU?$char_traits@D@std@@@std@@MAE?AV?$fpos@H@2@V32@H@Z 0040cfe0 f i DBBackup.obj
 0001:0000c010       ?setbuf@?$basic_streambuf@DU?$char_traits@D@std@@@std@@MAEPAV12@PADH@Z 0040d010 f i DBBackup.obj
 0001:0000c020       ?sync@?$basic_streambuf@DU?$char_traits@D@std@@@std@@MAEHXZ 0040d020 f i DBBackup.obj
 0001:0000c030       ?imbue@?$basic_streambuf@DU?$char_traits@D@std@@@std@@MAEXABVlocale@2@@Z 0040d030 f i DBBackup.obj
 0001:0000c040       ?overflow@?$basic_filebuf@DU?$char_traits@D@std@@@std@@MAEHH@Z 0040d040 f i DBBackup.obj
 0001:0000c250       ?not_eof@?$char_traits@D@std@@SAHABH@Z 0040d250 f i DBBackup.obj
 0001:0000c280       ?_Fputc@std@@YA_NDPAU_iobuf@@@Z 0040d280 f i DBBackup.obj
 0001:0000c2a0       ?pbackfail@?$basic_filebuf@DU?$char_traits@D@std@@@std@@MAEHH@Z 0040d2a0 f i DBBackup.obj
 0001:0000c420       ?_Ungetc@std@@YA_NDPAU_iobuf@@@Z 0040d420 f i DBBackup.obj
 0001:0000c450       ?underflow@?$basic_filebuf@DU?$char_traits@D@std@@@std@@MAEHXZ 0040d450 f i DBBackup.obj
 0001:0000c4b0       ?uflow@?$basic_filebuf@DU?$char_traits@D@std@@@std@@MAEHXZ 0040d4b0 f i DBBackup.obj
 0001:0000c650       ?_Fgetc@std@@YA_NAADPAU_iobuf@@@Z 0040d650 f i DBBackup.obj
 0001:0000c680       ?seekoff@?$basic_filebuf@DU?$char_traits@D@std@@@std@@MAE?AV?$fpos@H@2@JW4seekdir@ios_base@2@H@Z 0040d680 f i DBBackup.obj
 0001:0000c710       ?seekpos@?$basic_filebuf@DU?$char_traits@D@std@@@std@@MAE?AV?$fpos@H@2@V32@H@Z 0040d710 f i DBBackup.obj
 0001:0000c810       ?setbuf@?$basic_filebuf@DU?$char_traits@D@std@@@std@@MAEPAV?$basic_streambuf@DU?$char_traits@D@std@@@2@PADH@Z 0040d810 f i DBBackup.obj
 0001:0000c860       ?sync@?$basic_filebuf@DU?$char_traits@D@std@@@std@@MAEHXZ 0040d860 f i DBBackup.obj
 0001:0000c8a0       ??_E?$basic_ostream@DU?$char_traits@D@std@@@std@@UAEPAXI@Z 0040d8a0 f i DBBackup.obj
 0001:0000c8a0       ??_G?$basic_ostream@DU?$char_traits@D@std@@@std@@UAEPAXI@Z 0040d8a0 f i DBBackup.obj
 0001:0000c8e0       ??_G?$basic_ios@DU?$char_traits@D@std@@@std@@UAEPAXI@Z 0040d8e0 f i DBBackup.obj
 0001:0000c8e0       ??_E?$basic_ios@DU?$char_traits@D@std@@@std@@UAEPAXI@Z 0040d8e0 f i DBBackup.obj
 0001:0000c910       ??_G?$basic_istream@DU?$char_traits@D@std@@@std@@UAEPAXI@Z 0040d910 f i DBBackup.obj
 0001:0000c910       ??_E?$basic_istream@DU?$char_traits@D@std@@@std@@UAEPAXI@Z 0040d910 f i DBBackup.obj
 0001:0000c950       ??_E?$basic_streambuf@DU?$char_traits@D@std@@@std@@UAEPAXI@Z 0040d950 f i DBBackup.obj
 0001:0000c950       ??_G?$basic_streambuf@DU?$char_traits@D@std@@@std@@UAEPAXI@Z 0040d950 f i DBBackup.obj
 0001:0000c980       ??_G?$basic_fstream@DU?$char_traits@D@std@@@std@@UAEPAXI@Z 0040d980 f i DBBackup.obj
 0001:0000c980       ??_E?$basic_fstream@DU?$char_traits@D@std@@@std@@UAEPAXI@Z 0040d980 f i DBBackup.obj
 0001:0000c9c0       ??_E?$basic_iostream@DU?$char_traits@D@std@@@std@@UAEPAXI@Z 0040d9c0 f i DBBackup.obj
 0001:0000c9c0       ??_G?$basic_iostream@DU?$char_traits@D@std@@@std@@UAEPAXI@Z 0040d9c0 f i DBBackup.obj
 0001:0000ca00       ??_E?$basic_filebuf@DU?$char_traits@D@std@@@std@@UAEPAXI@Z 0040da00 f i DBBackup.obj
 0001:0000ca00       ??_G?$basic_filebuf@DU?$char_traits@D@std@@@std@@UAEPAXI@Z 0040da00 f i DBBackup.obj
 0001:0000ca30       ??_G?$basic_string@DU?$char_traits@D@std@@V?$allocator@D@2@@std@@QAEPAXI@Z 0040da30 f i DBBackup.obj
 0001:0000ca60       ??_D?$basic_ostream@DU?$char_traits@D@std@@@std@@QAEXXZ 0040da60 f i DBBackup.obj
 0001:0000ca90       ??_D?$basic_istream@DU?$char_traits@D@std@@@std@@QAEXXZ 0040da90 f i DBBackup.obj
 0001:0000cac0       ??_D?$basic_iostream@DU?$char_traits@D@std@@@std@@QAEXXZ 0040dac0 f i DBBackup.obj
 0001:0000caf0       ?append@?$basic_string@DU?$char_traits@D@std@@V?$allocator@D@2@@std@@QAEAAV12@PBD@Z 0040daf0 f i DBBackup.obj
 0001:0000cb20       ?append@?$basic_string@DU?$char_traits@D@std@@V?$allocator@D@2@@std@@QAEAAV12@ID@Z 0040db20 f i DBBackup.obj
 0001:0000cba0       ?assign@?$char_traits@D@std@@SAPADPADIABD@Z 0040dba0 f i DBBackup.obj
 0001:0000cbc0       ?begin@?$basic_string@DU?$char_traits@D@std@@V?$allocator@D@2@@std@@QAEPADXZ 0040dbc0 f i DBBackup.obj
 0001:0000cbe0       ?end@?$basic_string@DU?$char_traits@D@std@@V?$allocator@D@2@@std@@QAEPADXZ 0040dbe0 f i DBBackup.obj
 0001:0000cc10       ?clear@?$basic_ios@DU?$char_traits@D@std@@@std@@QAEXH_N@Z 0040dc10 f i DBBackup.obj
 0001:0000cc50       ?fill@?$basic_ios@DU?$char_traits@D@std@@@std@@QBEDXZ 0040dc50 f i DBBackup.obj
 0001:0000cc70       ?widen@?$basic_ios@DU?$char_traits@D@std@@@std@@QBEDD@Z 0040dc70 f i DBBackup.obj
 0001:0000ccf0       ?widen@?$ctype@D@std@@QBEDD@Z 0040dcf0 f i DBBackup.obj
 0001:0000cd00       ??0?$basic_ios@DU?$char_traits@D@std@@@std@@IAE@XZ 0040dd00 f i DBBackup.obj
 0001:0000cd20       ??0ios_base@std@@IAE@XZ    0040dd20 f i DBBackup.obj
 0001:0000cd50       ??0locale@std@@QAE@W4_Uninitialized@1@@Z 0040dd50 f i DBBackup.obj
 0001:0000cd60       ??_Gios_base@std@@UAEPAXI@Z 0040dd60 f i DBBackup.obj
 0001:0000cd60       ??_Eios_base@std@@UAEPAXI@Z 0040dd60 f i DBBackup.obj
 0001:0000cd90       ??0sentry@?$basic_ostream@DU?$char_traits@D@std@@@std@@QAE@AAV12@@Z 0040dd90 f i DBBackup.obj
 0001:0000cdc0       ??1sentry@?$basic_ostream@DU?$char_traits@D@std@@@std@@QAE@XZ 0040ddc0 f i DBBackup.obj
 0001:0000cdf0       ??Bsentry@?$basic_ostream@DU?$char_traits@D@std@@@std@@QBE_NXZ 0040ddf0 f i DBBackup.obj
 0001:0000ce00       ??0?$fpos@H@std@@QAE@J@Z   0040de00 f i DBBackup.obj
 0001:0000ce50       ??0?$fpos@H@std@@QAE@H_J@Z 0040de50 f i DBBackup.obj
 0001:0000ce90       ?state@?$fpos@H@std@@QBEHXZ 0040de90 f i DBBackup.obj
 0001:0000ceb0       ?get_fpos_t@?$fpos@H@std@@QBE_JXZ 0040deb0 f i DBBackup.obj
 0001:0000ced0       ??B?$fpos@H@std@@QBEJXZ    0040ded0 f i DBBackup.obj
 0001:0000cef0       ?getline@?$basic_istream@DU?$char_traits@D@std@@@std@@QAEAAV12@PADHD@Z 0040def0 f i DBBackup.obj
 0001:0000d0f0       ??0sentry@?$basic_istream@DU?$char_traits@D@std@@@std@@QAE@AAV12@_N@Z 0040e0f0 f i DBBackup.obj
 0001:0000d120       ??Bsentry@?$basic_istream@DU?$char_traits@D@std@@@std@@QBE_NXZ 0040e120 f i DBBackup.obj
 0001:0000d130       ?sgetc@?$basic_streambuf@DU?$char_traits@D@std@@@std@@QAEHXZ 0040e130 f i DBBackup.obj
 0001:0000d190       ?snextc@?$basic_streambuf@DU?$char_traits@D@std@@@std@@QAEHXZ 0040e190 f i DBBackup.obj
 0001:0000d1f0       ?ipfx@?$basic_istream@DU?$char_traits@D@std@@@std@@QAE_N_N@Z 0040e1f0 f i DBBackup.obj
 0001:0000d400       ?is@?$ctype@D@std@@QBE_NFD@Z 0040e400 f i DBBackup.obj
 0001:0000d430       ?good@ios_base@std@@QBE_NXZ 0040e430 f i DBBackup.obj
 0001:0000d450       ?pubsync@?$basic_streambuf@DU?$char_traits@D@std@@@std@@QAEHXZ 0040e450 f i DBBackup.obj
 0001:0000d470       ?sbumpc@?$basic_streambuf@DU?$char_traits@D@std@@@std@@QAEHXZ 0040e470 f i DBBackup.obj
 0001:0000d4d0       ?sputc@?$basic_streambuf@DU?$char_traits@D@std@@@std@@QAEHD@Z 0040e4d0 f i DBBackup.obj
 0001:0000d550       ?eback@?$basic_streambuf@DU?$char_traits@D@std@@@std@@IBEPADXZ 0040e550 f i DBBackup.obj
 0001:0000d570       ?gptr@?$basic_streambuf@DU?$char_traits@D@std@@@std@@IBEPADXZ 0040e570 f i DBBackup.obj
 0001:0000d590       ?pptr@?$basic_streambuf@DU?$char_traits@D@std@@@std@@IBEPADXZ 0040e590 f i DBBackup.obj
 0001:0000d5b0       ?egptr@?$basic_streambuf@DU?$char_traits@D@std@@@std@@IBEPADXZ 0040e5b0 f i DBBackup.obj
 0001:0000d5d0       ?gbump@?$basic_streambuf@DU?$char_traits@D@std@@@std@@IAEXH@Z 0040e5d0 f i DBBackup.obj
 0001:0000d610       ?epptr@?$basic_streambuf@DU?$char_traits@D@std@@@std@@IBEPADXZ 0040e610 f i DBBackup.obj
 0001:0000d630       ?_Gndec@?$basic_streambuf@DU?$char_traits@D@std@@@std@@IAEPADXZ 0040e630 f i DBBackup.obj
 0001:0000d670       ?_Gninc@?$basic_streambuf@DU?$char_traits@D@std@@@std@@IAEPADXZ 0040e670 f i DBBackup.obj
 0001:0000d6b0       ?pbump@?$basic_streambuf@DU?$char_traits@D@std@@@std@@IAEXH@Z 0040e6b0 f i DBBackup.obj
 0001:0000d6f0       ?_Pninc@?$basic_streambuf@DU?$char_traits@D@std@@@std@@IAEPADXZ 0040e6f0 f i DBBackup.obj
 0001:0000d730       ??0?$basic_iostream@DU?$char_traits@D@std@@@std@@QAE@PAV?$basic_streambuf@DU?$char_traits@D@std@@@1@@Z 0040e730 f i DBBackup.obj
 0001:0000d7f0       ??0?$basic_filebuf@DU?$char_traits@D@std@@@std@@QAE@PAU_iobuf@@@Z 0040e7f0 f i DBBackup.obj
 0001:0000d860       ??0locale@std@@QAE@XZ      0040e860 f i DBBackup.obj
 0001:0000d8a0       ?is_open@?$basic_filebuf@DU?$char_traits@D@std@@@std@@QBE_NXZ 0040e8a0 f i DBBackup.obj
 0001:0000d8c0       ?open@?$basic_filebuf@DU?$char_traits@D@std@@@std@@QAEPAV12@PBDH@Z 0040e8c0 f i DBBackup.obj
 0001:0000d910       ?close@?$basic_filebuf@DU?$char_traits@D@std@@@std@@QAEPAV12@XZ 0040e910 f i DBBackup.obj
 0001:0000d950       ?put@?$num_put@DV?$ostreambuf_iterator@DU?$char_traits@D@std@@@std@@@std@@QBE?AV?$ostreambuf_iterator@DU?$char_traits@D@std@@@2@V32@AAVios_base@2@DJ@Z 0040e950 f i DBBackup.obj
 0001:0000d9a0       ?put@?$num_put@DV?$ostreambuf_iterator@DU?$char_traits@D@std@@@std@@@std@@QBE?AV?$ostreambuf_iterator@DU?$char_traits@D@std@@@2@V32@AAVios_base@2@DK@Z 0040e9a0 f i DBBackup.obj
 0001:0000d9f0       ?put@?$num_put@DV?$ostreambuf_iterator@DU?$char_traits@D@std@@@std@@@std@@QBE?AV?$ostreambuf_iterator@DU?$char_traits@D@std@@@2@V32@AAVios_base@2@DN@Z 0040e9f0 f i DBBackup.obj
 0001:0000da40       ??0?$ostreambuf_iterator@DU?$char_traits@D@std@@@std@@QAE@PAV?$basic_streambuf@DU?$char_traits@D@std@@@1@@Z 0040ea40 f i DBBackup.obj
 0001:0000da60       ?failed@?$ostreambuf_iterator@DU?$char_traits@D@std@@@std@@QBE_NXZ 0040ea60 f i DBBackup.obj
 0001:0000da70       ?in@?$codecvt@DDH@std@@QBEHAAHPBD1AAPBDPAD3AAPAD@Z 0040ea70 f i DBBackup.obj
 0001:0000dab0       ?out@?$codecvt@DDH@std@@QBEHAAHPBD1AAPBDPAD3AAPAD@Z 0040eab0 f i DBBackup.obj
 0001:0000daf0       ?append@?$basic_string@DU?$char_traits@D@std@@V?$allocator@D@2@@std@@QAEAAV12@PBDI@Z 0040eaf0 f i DBBackup.obj
 0001:0000db70       ?_Freeze@?$basic_string@DU?$char_traits@D@std@@V?$allocator@D@2@@std@@AAEXXZ 0040eb70 f i DBBackup.obj
 0001:0000dbf0       ??0?$basic_ostream@DU?$char_traits@D@std@@@std@@QAE@PAV?$basic_streambuf@DU?$char_traits@D@std@@@1@_N1@Z 0040ebf0 f i DBBackup.obj
 0001:0000dca0       ?opfx@?$basic_ostream@DU?$char_traits@D@std@@@std@@QAE_NXZ 0040eca0 f i DBBackup.obj
 0001:0000dd10       ?osfx@?$basic_ostream@DU?$char_traits@D@std@@@std@@QAEXXZ 0040ed10 f i DBBackup.obj
 0001:0000dd40       ?tie@?$basic_ios@DU?$char_traits@D@std@@@std@@QBEPAV?$basic_ostream@DU?$char_traits@D@std@@@2@XZ 0040ed40 f i DBBackup.obj
 0001:0000dd60       ??0?$basic_istream@DU?$char_traits@D@std@@@std@@QAE@PAV?$basic_streambuf@DU?$char_traits@D@std@@@1@_N@Z 0040ed60 f i DBBackup.obj
 0001:0000de00       ??0?$basic_streambuf@DU?$char_traits@D@std@@@std@@IAE@XZ 0040ee00 f i DBBackup.obj
 0001:0000de60       ?stossc@?$basic_streambuf@DU?$char_traits@D@std@@@std@@QAEXXZ 0040ee60 f i DBBackup.obj
 0001:0000deb0       ?_Init@?$basic_filebuf@DU?$char_traits@D@std@@@std@@IAEXPAU_iobuf@@W4_Initfl@12@@Z 0040eeb0 f i DBBackup.obj
 0001:0000df90       ?_Initcvt@?$basic_filebuf@DU?$char_traits@D@std@@@std@@IAEXXZ 0040ef90 f i DBBackup.obj
 0001:0000e0c0       ??4locale@std@@QAEAAV01@ABV01@@Z 0040f0c0 f i DBBackup.obj
 0001:0000e130       ?always_noconv@codecvt_base@std@@QBE_NXZ 0040f130 f i DBBackup.obj
 0001:0000e150       ?init@?$basic_ios@DU?$char_traits@D@std@@@std@@IAEXPAV?$basic_streambuf@DU?$char_traits@D@std@@@2@_N@Z 0040f150 f i DBBackup.obj
 0001:0000e1c0       ?getloc@?$basic_streambuf@DU?$char_traits@D@std@@@std@@QAE?AVlocale@2@XZ 0040f1c0 f i DBBackup.obj
 0001:0000e200       ?_Init@?$basic_streambuf@DU?$char_traits@D@std@@@std@@IAEXXZ 0040f200 f i DBBackup.obj
 0001:0000e270       ?_Init@?$basic_streambuf@DU?$char_traits@D@std@@@std@@IAEXPAPAD0PAH001@Z 0040f270 f i DBBackup.obj
 0001:0000e2c0       ?setg@?$basic_streambuf@DU?$char_traits@D@std@@@std@@IAEXPAD00@Z 0040f2c0 f i DBBackup.obj
 0001:0000e300       ?setp@?$basic_streambuf@DU?$char_traits@D@std@@@std@@IAEXPAD0@Z 0040f300 f i DBBackup.obj
 0001:0000e340       ?use_facet@std@@YAABV?$ctype@D@1@ABVlocale@1@PBV21@_N@Z 0040f340 f i DBBackup.obj
 0001:0000e460       ??0bad_cast@std@@QAE@PBD@Z 0040f460 f i DBBackup.obj
 0001:0000e490       ??1bad_cast@std@@UAE@XZ    0040f490 f i DBBackup.obj
 0001:0000e4b0       ?_Doraise@bad_cast@std@@MBEXXZ 0040f4b0 f i DBBackup.obj
 0001:0000e4e0       ??_Gbad_cast@std@@UAEPAXI@Z 0040f4e0 f i DBBackup.obj
 0001:0000e4e0       ??_Ebad_cast@std@@UAEPAXI@Z 0040f4e0 f i DBBackup.obj
 0001:0000e510       ??0bad_cast@std@@QAE@ABV01@@Z 0040f510 f i DBBackup.obj
 0001:0000e540       ??Bid@locale@std@@QAEIXZ   0040f540 f i DBBackup.obj
 0001:0000e590       ??0?$ctype@D@std@@QAE@PBF_NI@Z 0040f590 f i DBBackup.obj
 0001:0000e680       ??0ctype_base@std@@QAE@I@Z 0040f680 f i DBBackup.obj
 0001:0000e6b0       ??0facet@locale@std@@IAE@I@Z 0040f6b0 f i DBBackup.obj
 0001:0000e6e0       ??_Gfacet@locale@std@@UAEPAXI@Z 0040f6e0 f i DBBackup.obj
 0001:0000e6e0       ??_Efacet@locale@std@@UAEPAXI@Z 0040f6e0 f i DBBackup.obj
 0001:0000e710       ??1facet@locale@std@@UAE@XZ 0040f710 f i DBBackup.obj
 0001:0000e730       ??_Ectype_base@std@@UAEPAXI@Z 0040f730 f i DBBackup.obj
 0001:0000e730       ??_Gctype_base@std@@UAEPAXI@Z 0040f730 f i DBBackup.obj
 0001:0000e760       ??1ctype_base@std@@UAE@XZ  0040f760 f i DBBackup.obj
 0001:0000e780       ?_Init@?$ctype@D@std@@IAEXABV_Locinfo@2@@Z 0040f780 f i DBBackup.obj
 0001:0000e820       ?_Getctype@_Locinfo@std@@QBE?AU_Ctypevec@@XZ 0040f820 f i DBBackup.obj
 0001:0000e870       ?_Term@?$ctype@D@std@@KAXXZ 0040f870 f i DBBackup.obj
 0001:0000e890       ?do_tolower@?$ctype@D@std@@MBEDD@Z 0040f890 f i DBBackup.obj
 0001:0000e8c0       ?do_tolower@?$ctype@D@std@@MBEPBDPADPBD@Z 0040f8c0 f i DBBackup.obj
 0001:0000e900       ?do_toupper@?$ctype@D@std@@MBEDD@Z 0040f900 f i DBBackup.obj
 0001:0000e930       ?do_toupper@?$ctype@D@std@@MBEPBDPADPBD@Z 0040f930 f i DBBackup.obj
 0001:0000e970       ??_G?$ctype@D@std@@UAEPAXI@Z 0040f970 f i DBBackup.obj
 0001:0000e970       ??_E?$ctype@D@std@@UAEPAXI@Z 0040f970 f i DBBackup.obj
 0001:0000e9a0       ??1?$ctype@D@std@@UAE@XZ   0040f9a0 f i DBBackup.obj
 0001:0000e9e0       ?swap@std@@YAXAAUTRoleList@CDBBackup@@0@Z 0040f9e0 f i DBBackup.obj
 0001:0000ea20       ??6std@@YAAAV?$basic_ostream@DU?$char_traits@D@std@@@0@AAV10@PBD@Z 0040fa20 f i DBBackup.obj
 0001:0000ece0       ?width@ios_base@std@@QBEHXZ 0040fce0 f i DBBackup.obj
 0001:0000ed00       ?width@ios_base@std@@QAEHH@Z 0040fd00 f i DBBackup.obj
 0001:0000ed30       ?use_facet@std@@YAABV?$num_put@DV?$ostreambuf_iterator@DU?$char_traits@D@std@@@std@@@1@ABVlocale@1@PBV21@_N@Z 0040fd30 f i DBBackup.obj
 0001:0000ee50       ?_Ungetc@std@@YA_NABDPAU_iobuf@@I@Z 0040fe50 f i DBBackup.obj
 0001:0000eed0       ?_Widen@std@@YADDPAD@Z     0040fed0 f i DBBackup.obj
 0001:0000eee0       ?use_facet@std@@YAABV?$codecvt@DDH@1@ABVlocale@1@PBV21@_N@Z 0040fee0 f i DBBackup.obj
 0001:0000f000       ?_Addfac@std@@YA?AVlocale@1@V21@PAV?$codecvt@DDH@1@@Z 00410000 f i DBBackup.obj
 0001:0000f090       ?sputn@?$basic_streambuf@DU?$char_traits@D@std@@@std@@QAEHPBDH@Z 00410090 f i DBBackup.obj
 0001:0000f0b0       ??0?$num_put@DV?$ostreambuf_iterator@DU?$char_traits@D@std@@@std@@@std@@QAE@I@Z 004100b0 f i DBBackup.obj
 0001:0000f140       ?do_put@?$num_put@DV?$ostreambuf_iterator@DU?$char_traits@D@std@@@std@@@std@@MBE?AV?$ostreambuf_iterator@DU?$char_traits@D@std@@@2@V32@AAVios_base@2@D_N@Z 00410140 f i DBBackup.obj
 0001:0000f380       ?do_put@?$num_put@DV?$ostreambuf_iterator@DU?$char_traits@D@std@@@std@@@std@@MBE?AV?$ostreambuf_iterator@DU?$char_traits@D@std@@@2@V32@AAVios_base@2@DJ@Z 00410380 f i DBBackup.obj
 0001:0000f3f0       ?do_put@?$num_put@DV?$ostreambuf_iterator@DU?$char_traits@D@std@@@std@@@std@@MBE?AV?$ostreambuf_iterator@DU?$char_traits@D@std@@@2@V32@AAVios_base@2@DK@Z 004103f0 f i DBBackup.obj
 0001:0000f460       ?do_put@?$num_put@DV?$ostreambuf_iterator@DU?$char_traits@D@std@@@std@@@std@@MBE?AV?$ostreambuf_iterator@DU?$char_traits@D@std@@@2@V32@AAVios_base@2@DN@Z 00410460 f i DBBackup.obj
 0001:0000f530       ?precision@ios_base@std@@QBEHXZ 00410530 f i DBBackup.obj
 0001:0000f550       ?do_put@?$num_put@DV?$ostreambuf_iterator@DU?$char_traits@D@std@@@std@@@std@@MBE?AV?$ostreambuf_iterator@DU?$char_traits@D@std@@@2@V32@AAVios_base@2@DO@Z 00410550 f i DBBackup.obj
 0001:0000f620       ?do_put@?$num_put@DV?$ostreambuf_iterator@DU?$char_traits@D@std@@@std@@@std@@MBE?AV?$ostreambuf_iterator@DU?$char_traits@D@std@@@2@V32@AAVios_base@2@DPBX@Z 00410620 f i DBBackup.obj
 0001:0000f730       ??_E?$num_put@DV?$ostreambuf_iterator@DU?$char_traits@D@std@@@std@@@std@@UAEPAXI@Z 00410730 f i DBBackup.obj
 0001:0000f730       ??_G?$num_put@DV?$ostreambuf_iterator@DU?$char_traits@D@std@@@std@@@std@@UAEPAXI@Z 00410730 f i DBBackup.obj
 0001:0000f760       ??1?$num_put@DV?$ostreambuf_iterator@DU?$char_traits@D@std@@@std@@@std@@UAE@XZ 00410760 f i DBBackup.obj
 0001:0000f780       ??4?$basic_string@DU?$char_traits@D@std@@V?$allocator@D@2@@std@@QAEAAV01@ABV01@@Z 00410780 f i DBBackup.obj
 0001:0000f7a0       ?_Ffmt@?$num_put@DV?$ostreambuf_iterator@DU?$char_traits@D@std@@@std@@@std@@KAPADPADDH@Z 004107a0 f i DBBackup.obj
 0001:0000f870       ?_Fput@?$num_put@DV?$ostreambuf_iterator@DU?$char_traits@D@std@@@std@@@std@@KA?AV?$ostreambuf_iterator@DU?$char_traits@D@std@@@2@V32@AAVios_base@2@DPBDII@Z 00410870 f i DBBackup.obj
 0001:0000fc20       ?_Ifmt@?$num_put@DV?$ostreambuf_iterator@DU?$char_traits@D@std@@@std@@@std@@KAPADPADDH@Z 00410c20 f i DBBackup.obj
 0001:0000fce0       ?_Iput@?$num_put@DV?$ostreambuf_iterator@DU?$char_traits@D@std@@@std@@@std@@KA?AV?$ostreambuf_iterator@DU?$char_traits@D@std@@@2@V32@AAVios_base@2@DPADI@Z 00410ce0 f i DBBackup.obj
 0001:000100c0       ?_Put@?$num_put@DV?$ostreambuf_iterator@DU?$char_traits@D@std@@@std@@@std@@KA?AV?$ostreambuf_iterator@DU?$char_traits@D@std@@@2@V32@PBDI@Z 004110c0 f i DBBackup.obj
 0001:00010110       ?_Putc@?$num_put@DV?$ostreambuf_iterator@DU?$char_traits@D@std@@@std@@@std@@KA?AV?$ostreambuf_iterator@DU?$char_traits@D@std@@@2@V32@PBDI@Z 00411110 f i DBBackup.obj
 0001:00010170       ?_Rep@?$num_put@DV?$ostreambuf_iterator@DU?$char_traits@D@std@@@std@@@std@@KA?AV?$ostreambuf_iterator@DU?$char_traits@D@std@@@2@V32@DI@Z 00411170 f i DBBackup.obj
 0001:000101c0       ?falsename@?$numpunct@D@std@@QBE?AV?$basic_string@DU?$char_traits@D@std@@V?$allocator@D@2@@2@XZ 004111c0 f i DBBackup.obj
 0001:000101f0       ?truename@?$numpunct@D@std@@QBE?AV?$basic_string@DU?$char_traits@D@std@@V?$allocator@D@2@@2@XZ 004111f0 f i DBBackup.obj
 0001:00010220       ?assign@?$basic_string@DU?$char_traits@D@std@@V?$allocator@D@2@@std@@QAEAAV12@ABV12@@Z 00411220 f i DBBackup.obj
 0001:00010250       ??4?$ostreambuf_iterator@DU?$char_traits@D@std@@@std@@QAEAAV01@D@Z 00411250 f i DBBackup.obj
 0001:000102b0       ??D?$ostreambuf_iterator@DU?$char_traits@D@std@@@std@@QAEAAV01@XZ 004112b0 f i DBBackup.obj
 0001:000102c0       ??E?$ostreambuf_iterator@DU?$char_traits@D@std@@@std@@QAEAAV01@XZ 004112c0 f i DBBackup.obj
 0001:000102d0       ?decimal_point@?$numpunct@D@std@@QBEDXZ 004112d0 f i DBBackup.obj
 0001:000102f0       ?thousands_sep@?$numpunct@D@std@@QBEDXZ 004112f0 f i DBBackup.obj
 0001:00010310       ?grouping@?$numpunct@D@std@@QBE?AV?$basic_string@DU?$char_traits@D@std@@V?$allocator@D@2@@2@XZ 00411310 f i DBBackup.obj
 0001:00010340       ?use_facet@std@@YAABV?$numpunct@D@1@ABVlocale@1@PBV21@_N@Z 00411340 f i DBBackup.obj
 0001:00010460       ??0?$codecvt@DDH@std@@QAE@I@Z 00411460 f i DBBackup.obj
 0001:000104f0       ??0codecvt_base@std@@QAE@I@Z 004114f0 f i DBBackup.obj
 0001:00010520       ?do_always_noconv@codecvt_base@std@@MBE_NXZ 00411520 f i DBBackup.obj
 0001:00010530       ?do_max_length@codecvt_base@std@@MBEHXZ 00411530 f i DBBackup.obj
 0001:00010540       ?do_encoding@codecvt_base@std@@MBEHXZ 00411540 f i DBBackup.obj
 0001:00010550       ??_Gcodecvt_base@std@@UAEPAXI@Z 00411550 f i DBBackup.obj
 0001:00010550       ??_Ecodecvt_base@std@@UAEPAXI@Z 00411550 f i DBBackup.obj
 0001:00010580       ??1codecvt_base@std@@UAE@XZ 00411580 f i DBBackup.obj
 0001:000105a0       ?do_in@?$codecvt@DDH@std@@MBEHAAHPBD1AAPBDPAD3AAPAD@Z 004115a0 f i DBBackup.obj
 0001:000105d0       ?do_out@?$codecvt@DDH@std@@MBEHAAHPBD1AAPBDPAD3AAPAD@Z 004115d0 f i DBBackup.obj
 0001:00010600       ?do_length@?$codecvt@DDH@std@@MBEHAAHPBD1I@Z 00411600 f i DBBackup.obj
 0001:00010630       ??_E?$codecvt@DDH@std@@UAEPAXI@Z 00411630 f i DBBackup.obj
 0001:00010630       ??_G?$codecvt@DDH@std@@UAEPAXI@Z 00411630 f i DBBackup.obj
 0001:00010660       ??1?$codecvt@DDH@std@@UAE@XZ 00411660 f i DBBackup.obj
 0001:00010680       ?_Getcat@?$codecvt@DDH@std@@SAIXZ 00411680 f i DBBackup.obj
 0001:00010690       ??0?$numpunct@D@std@@QAE@I@Z 00411690 f i DBBackup.obj
 0001:00010720       ?do_decimal_point@?$numpunct@D@std@@MBEDXZ 00411720 f i DBBackup.obj
 0001:00010740       ?do_thousands_sep@?$numpunct@D@std@@MBEDXZ 00411740 f i DBBackup.obj
 0001:00010760       ?do_grouping@?$numpunct@D@std@@MBE?AV?$basic_string@DU?$char_traits@D@std@@V?$allocator@D@2@@2@XZ 00411760 f i DBBackup.obj
 0001:000107a0       ?do_falsename@?$numpunct@D@std@@MBE?AV?$basic_string@DU?$char_traits@D@std@@V?$allocator@D@2@@2@XZ 004117a0 f i DBBackup.obj
 0001:000107e0       ?do_truename@?$numpunct@D@std@@MBE?AV?$basic_string@DU?$char_traits@D@std@@V?$allocator@D@2@@2@XZ 004117e0 f i DBBackup.obj
 0001:00010820       ??_E?$numpunct@D@std@@UAEPAXI@Z 00411820 f i DBBackup.obj
 0001:00010820       ??_G?$numpunct@D@std@@UAEPAXI@Z 00411820 f i DBBackup.obj
 0001:00010850       ??1?$numpunct@D@std@@UAE@XZ 00411850 f i DBBackup.obj
 0001:000108b0       ?_Save@?$_Tidyfac@V?$ctype@D@std@@@std@@SAPAV?$ctype@D@2@PAV32@@Z 004118b0 f i DBBackup.obj
 0001:00010920       ?_Save@?$_Tidyfac@V?$num_put@DV?$ostreambuf_iterator@DU?$char_traits@D@std@@@std@@@std@@@std@@SAPAV?$num_put@DV?$ostreambuf_iterator@DU?$char_traits@D@std@@@std@@@2@PAV32@@Z 00411920 f i DBBackup.obj
 0001:00010990       ?_Save@?$_Tidyfac@V?$numpunct@D@std@@@std@@SAPAV?$numpunct@D@2@PAV32@@Z 00411990 f i DBBackup.obj
 0001:00010a00       ?_Save@?$_Tidyfac@V?$codecvt@DDH@std@@@std@@SAPAV?$codecvt@DDH@2@PAV32@@Z 00411a00 f i DBBackup.obj
 0001:00010a70       ?_Init@?$num_put@DV?$ostreambuf_iterator@DU?$char_traits@D@std@@@std@@@std@@IAEXABV_Locinfo@2@@Z 00411a70 f i DBBackup.obj
 0001:00010a80       ?_Init@?$codecvt@DDH@std@@IAEXABV_Locinfo@2@@Z 00411a80 f i DBBackup.obj
 0001:00010ab0       ?_Getcvt@_Locinfo@std@@QBE?AU_Cvtvec@@XZ 00411ab0 f i DBBackup.obj
 0001:00010ae0       ?_Init@?$numpunct@D@std@@IAEXABV_Locinfo@2@@Z 00411ae0 f i DBBackup.obj
 0001:00010b80       ?_Getlconv@_Locinfo@std@@QBEPBUlconv@@XZ 00411b80 f i DBBackup.obj
 0001:00010b90       ?_Getfalse@_Locinfo@std@@QBEPBDXZ 00411b90 f i DBBackup.obj
 0001:00010ba0       ?_Gettrue@_Locinfo@std@@QBEPBDXZ 00411ba0 f i DBBackup.obj
 0001:00010bb0       ?_Tidy@?$_Tidyfac@V?$ctype@D@std@@@std@@SAXXZ 00411bb0 f i DBBackup.obj
 0001:00010c40       ?_Tidy@?$_Tidyfac@V?$num_put@DV?$ostreambuf_iterator@DU?$char_traits@D@std@@@std@@@std@@@std@@SAXXZ 00411c40 f i DBBackup.obj
 0001:00010cd0       ?_Tidy@?$_Tidyfac@V?$numpunct@D@std@@@std@@SAXXZ 00411cd0 f i DBBackup.obj
 0001:00010d60       ?_Tidy@?$_Tidyfac@V?$codecvt@DDH@std@@@std@@SAXXZ 00411d60 f i DBBackup.obj
 0001:00010df0       ?_Maklocstr@std@@YAPADPBDPAD@Z 00411df0 f i DBBackup.obj
 0001:00010e70       ?id@?$num_put@DV?$ostreambuf_iterator@DU?$char_traits@D@std@@@$D 00411e70 f i DBBackup.obj
 0001:00010ea0       ?id@?$numpunct@D@std@@$D   00411ea0 f i DBBackup.obj
 0001:00010ed0       ?id@?$codecvt@DDH@std@@$D  00411ed0 f i DBBackup.obj
 0001:00010f00       ?id@?$codecvt@DDH@std@@$E  00411f00 f i DBBackup.obj
 0001:00010f10       ?id@?$numpunct@D@std@@$E   00411f10 f i DBBackup.obj
 0001:00010f20       ?id@?$num_put@DV?$ostreambuf_iterator@DU?$char_traits@D@std@@@$E 00411f20 f i DBBackup.obj
 0001:00010f30       ??0CDBDump@@QAE@XZ         00411f30 f   DBDumpLoad.obj
 0001:00010f74       ?Open@CDBDump@@QAE_NPAD@Z  00411f74 f   DBDumpLoad.obj
 0001:00011014       ?Close@CDBDump@@QAE_NXZ    00412014 f   DBDumpLoad.obj
 0001:0001107b       ?AddData@CDBDump@@QAE_NPADI0I@Z 0041207b f   DBDumpLoad.obj
 0001:000111aa       ??0CDBLoad@@QAE@XZ         004121aa f   DBDumpLoad.obj
 0001:000111ee       ?Open@CDBLoad@@QAE_NPAD@Z  004121ee f   DBDumpLoad.obj
 0001:0001128e       ?Close@CDBLoad@@QAE_NXZ    0041228e f   DBDumpLoad.obj
 0001:000112f5       ?ReadData@CDBLoad@@QAE_NPADAAI01@Z 004122f5 f   DBDumpLoad.obj
 0001:000113b2       ?GotoHead@CDBLoad@@QAEXXZ  004123b2 f   DBDumpLoad.obj
 0001:000113f0       ?SearchData@CDBLoad@@QAE_NPAD0AAI@Z 004123f0 f   DBDumpLoad.obj
 0001:000114b0       ??_GCDBLoad@@UAEPAXI@Z     004124b0 f i DBDumpLoad.obj
 0001:000114b0       ??_ECDBLoad@@UAEPAXI@Z     004124b0 f i DBDumpLoad.obj
 0001:000114e0       ??1CDBLoad@@UAE@XZ         004124e0 f i DBDumpLoad.obj
 0001:00011500       ??0ZDBTable@@QAE@PBD0@Z    00412500 f   DBTable.obj
 0001:000116de       ??1ZDBTable@@UAE@XZ        004126de f   DBTable.obj
 0001:0001171c       ?addIndex@ZDBTable@@QAEHP6AHPAU__db@@PBU__db_dbt@@1PAU3@@Z_N@Z 0041271c f   DBTable.obj
 0001:000117a3       ?open@ZDBTable@@QAE_NXZ    004127a3 f   DBTable.obj
 0001:00011a6b       ?close@ZDBTable@@QAEXXZ    00412a6b f   DBTable.obj
 0001:00011ae0       ?commit@ZDBTable@@QAE_NXZ  00412ae0 f   DBTable.obj
 0001:00011aed       ?add@ZDBTable@@QAE_NPBDH0H@Z 00412aed f   DBTable.obj
 0001:00011b9c       ?remove@ZDBTable@@QAE_NPBDHH@Z 00412b9c f   DBTable.obj
 0001:00011c3b       ?_search@ZDBTable@@IAEPAUZCursor@@_NPBDHH@Z 00412c3b f   DBTable.obj
 0001:00011f6c       ?_next@ZDBTable@@IAE_N_NPAUZCursor@@@Z 00412f6c f   DBTable.obj
 0001:000121bb       ?removeLog@ZDBTable@@QAEXXZ 004131bb f   DBTable.obj
 0001:00012270       ??_EZDBTable@@UAEPAXI@Z    00413270 f i DBTable.obj
 0001:00012270       ??_GZDBTable@@UAEPAXI@Z    00413270 f i DBTable.obj
 0001:000122a0       ??0CFilterTextLib@@QAE@XZ  004132a0 f   FilterTextLib.obj
 0001:000122cb       ??1CFilterTextLib@@UAE@XZ  004132cb f   FilterTextLib.obj
 0001:000122df       ?Initialize@CFilterTextLib@@QAEHXZ 004132df f   FilterTextLib.obj
 0001:0001233f       ?Uninitialize@CFilterTextLib@@QAEHXZ 0041333f f   FilterTextLib.obj
 0001:00012379       ?CreateTextFilter@CFilterTextLib@@QAEJPAPAUITextFilter@@@Z 00413379 f   FilterTextLib.obj
 0001:000123b0       ??_ECFilterTextLib@@UAEPAXI@Z 004133b0 f i FilterTextLib.obj
 0001:000123b0       ??_GCFilterTextLib@@UAEPAXI@Z 004133b0 f i FilterTextLib.obj
 0001:000126c1       ?MonitorProc@@YGKPAX@Z     004136c1 f   Goddess.obj
 0001:000126e0       ?ServerEventNotify@@YGXPAXABK1@Z 004136e0 f   Goddess.obj
 0001:0001285f       ?ThreadProcess@@YGKPAX@Z   0041385f f   Goddess.obj
 0001:000129ed       _WinMain@16                004139ed f   Goddess.obj
 0001:00012ad9       ?MainWndProc@@YGHPAUHWND__@@IIJ@Z 00413ad9 f   Goddess.obj
 0001:000132af       ?CreateDatabaseEngine@@YA_NPAUHWND__@@@Z 004142af f   Goddess.obj
 0001:0001348a       ?DestroyDatabaseEngine@@YAXXZ 0041448a f   Goddess.obj
 0001:000135d7       ?LoadSetting@@YAXXZ        004145d7 f   Goddess.obj
 0001:00013728       ?SaveSetting@@YAXXZ        00414728 f   Goddess.obj
 0001:000138a0       ?GetProcAddress@CLibrary@Win32@OnlineGameLib@@QAEP6GHXZPBD@Z 004148a0 f i Goddess.obj
 0001:000138c0       ??Hstd@@YA?AV?$basic_string@DU?$char_traits@D@std@@V?$allocator@D@2@@0@ABV10@PBD@Z 004148c0 f i Goddess.obj
 0001:000139be       ?get_account@@YAHPAU__db@@PBU__db_dbt@@1PAU2@@Z 004149be f   IDBRoleServer.obj
 0001:00013a03       ?get_tong@@YAHPAU__db@@PBU__db_dbt@@1PAU2@@Z 00414a03 f   IDBRoleServer.obj
 0001:00013a48       ?DeadlockProc@@YGKPAX@Z    00414a48 f   IDBRoleServer.obj
 0001:00013a7a       ?RemoveLogProc@@YGKPAX@Z   00414a7a f   IDBRoleServer.obj
 0001:00013aac       ?DeadlockProcTong@@YGKPAX@Z 00414aac f   IDBRoleServer.obj
 0001:00013ade       ?RemoveLogProcTong@@YGKPAX@Z 00414ade f   IDBRoleServer.obj
 0001:00013b10       ?DeadlockProcTongMember@@YGKPAX@Z 00414b10 f   IDBRoleServer.obj
 0001:00013b42       ?RemoveLogProcTongMember@@YGKPAX@Z 00414b42 f   IDBRoleServer.obj
 0001:00013b74       ?InitDBInterface@@YAHI@Z   00414b74 f   IDBRoleServer.obj
 0001:00013dab       ?ReleaseDBInterface@@YAXXZ 00414dab f   IDBRoleServer.obj
 0001:00013f04       ?SetRoleInfoForGM@@YAXHPAD0H@Z 00414f04 f   IDBRoleServer.obj
 0001:00013f99       ?GetRoleInfoForGM@@YAPAXHPAD0AAH@Z 00414f99 f   IDBRoleServer.obj
 0001:00014038       ?GetRoleInfo@@YAPAXPAD0AAH@Z 00415038 f   IDBRoleServer.obj
 0001:000140ed       ?SaveRoleInfo@@YAHPADPBDH@Z 004150ed f   IDBRoleServer.obj
 0001:0001453b       ?GetRoleListOfAccount@@YAHPADPAURoleBaseInfo@@H@Z 0041553b f   IDBRoleServer.obj
 0001:00014694       ?DeleteRole@@YA_NPBD@Z     00415694 f   IDBRoleServer.obj
 0001:000146d7       ?StartBackupTimer@@YA_NH@Z 004156d7 f   IDBRoleServer.obj
 0001:00014774       ?StopBackupTimer@@YA_NXZ   00415774 f   IDBRoleServer.obj
 0001:000147e2       ?SuspendBackupTimer@@YA_NXZ 004157e2 f   IDBRoleServer.obj
 0001:000147ff       ?ResumeBackupTimer@@YA_NXZ 004157ff f   IDBRoleServer.obj
 0001:0001481c       ?IsBackupThreadWorking@@YA_NXZ 0041581c f   IDBRoleServer.obj
 0001:00014839       ?IsBackupWorking@@YA_NXZ   00415839 f   IDBRoleServer.obj
 0001:00014856       ?DoManualBackup@@YA_NXZ    00415856 f   IDBRoleServer.obj
 0001:00014873       ?GetGameStat@@YA_NPAUTGAME_STAT_DATA@@@Z 00415873 f   IDBRoleServer.obj
 0001:000148d2       ?AddOutputString@@YAXPAUHWND__@@PAD@Z 004158d2 f   IDBRoleServer.obj
 0001:00014960       ?deadlock@ZDBTable@@QAEXXZ 00415960 f i IDBRoleServer.obj
 0001:00014990       ??0CRoleNameFilter@@QAE@XZ 00415990 f   RoleNameFilter.obj
 0001:000149b1       ??1CRoleNameFilter@@UAE@XZ 004159b1 f   RoleNameFilter.obj
 0001:000149c5       ?Initialize@CRoleNameFilter@@QAEHXZ 004159c5 f   RoleNameFilter.obj
 0001:00014aff       ?Uninitialize@CRoleNameFilter@@QAEHXZ 00415aff f   RoleNameFilter.obj
 0001:00014b34       ?IsTextPass@CRoleNameFilter@@QAEHPBD@Z 00415b34 f   RoleNameFilter.obj
 0001:00014b70       ??_ECRoleNameFilter@@UAEPAXI@Z 00415b70 f i RoleNameFilter.obj
 0001:00014b70       ??_GCRoleNameFilter@@UAEPAXI@Z 00415b70 f i RoleNameFilter.obj
 0001:00014b9e       _InitializeCriticalSection@4 00415b9e f   kernel32:KERNEL32.dll
 0001:00014ba4       _DeleteCriticalSection@4   00415ba4 f   kernel32:KERNEL32.dll
 0001:00014baa       _EnterCriticalSection@4    00415baa f   kernel32:KERNEL32.dll
 0001:00014bb0       _LeaveCriticalSection@4    00415bb0 f   kernel32:KERNEL32.dll
 0001:00014bb6       _InterlockedIncrement@4    00415bb6 f   kernel32:KERNEL32.dll
 0001:00014bbc       _CloseHandle@4             00415bbc f   kernel32:KERNEL32.dll
 0001:00014bc2       _TerminateThread@8         00415bc2 f   kernel32:KERNEL32.dll
 0001:00014bc8       _WaitForSingleObject@8     00415bc8 f   kernel32:KERNEL32.dll
 0001:00014bce       _Sleep@4                   00415bce f   kernel32:KERNEL32.dll
 0001:00014bd4       _CreateThread@24           00415bd4 f   kernel32:KERNEL32.dll
 0001:00014bda       _SuspendThread@4           00415bda f   kernel32:KERNEL32.dll
 0001:00014be0       _ResumeThread@4            00415be0 f   kernel32:KERNEL32.dll
 0001:00014be6       _GetLocalTime@4            00415be6 f   kernel32:KERNEL32.dll
 0001:00014bec       _GetSystemTime@4           00415bec f   kernel32:KERNEL32.dll
 0001:00014bf2       _GetProcAddress@8          00415bf2 f   kernel32:KERNEL32.dll
 0001:00014bf8       _LoadLibraryA@4            00415bf8 f   kernel32:KERNEL32.dll
 0001:00014bfe       _FreeLibrary@4             00415bfe f   kernel32:KERNEL32.dll
 0001:00014c04       _MessageBoxA@16            00415c04 f   user32:USER32.dll
 0001:00014c0a       _PostMessageA@16           00415c0a f   user32:USER32.dll
 0001:00014c10       _DispatchMessageA@4        00415c10 f   user32:USER32.dll
 0001:00014c16       _TranslateMessage@4        00415c16 f   user32:USER32.dll
 0001:00014c1c       _IsDialogMessageA@8        00415c1c f   user32:USER32.dll
 0001:00014c22       _IsWindow@4                00415c22 f   user32:USER32.dll
 0001:00014c28       _GetMessageA@16            00415c28 f   user32:USER32.dll
 0001:00014c2e       _GetDlgItem@8              00415c2e f   user32:USER32.dll
 0001:00014c34       _UpdateWindow@4            00415c34 f   user32:USER32.dll
 0001:00014c3a       _ShowWindow@8              00415c3a f   user32:USER32.dll
 0001:00014c40       _CreateDialogParamA@20     00415c40 f   user32:USER32.dll
 0001:00014c46       _SendMessageA@16           00415c46 f   user32:USER32.dll
 0001:00014c4c       _PostQuitMessage@4         00415c4c f   user32:USER32.dll
 0001:00014c52       _DestroyWindow@4           00415c52 f   user32:USER32.dll
 0001:00014c58       _GetDlgItemInt@16          00415c58 f   user32:USER32.dll
 0001:00014c5e       _KillTimer@8               00415c5e f   user32:USER32.dll
 0001:00014c64       _SetTimer@16               00415c64 f   user32:USER32.dll
 0001:00014c6a       _SetDlgItemInt@16          00415c6a f   user32:USER32.dll
 0001:00014c70       _SetWindowTextA@8          00415c70 f   user32:USER32.dll
 0001:00014c76       _EnableWindow@8            00415c76 f   user32:USER32.dll
 0001:00014c7c       _SetDlgItemTextA@12        00415c7c f   user32:USER32.dll
 0001:00014c90       ??0CEvent@Win32@OnlineGameLib@@QAE@PAU_SECURITY_ATTRIBUTES@@_N1@Z 00415c90 f   common:Event.obj
 0001:00014d55       ??0CEvent@Win32@OnlineGameLib@@QAE@PAU_SECURITY_ATTRIBUTES@@_N1PBD@Z 00415d55 f   common:Event.obj
 0001:00014d8c       ??1CEvent@Win32@OnlineGameLib@@UAE@XZ 00415d8c f   common:Event.obj
 0001:00014dad       ?Wait@CEvent@Win32@OnlineGameLib@@QBEXXZ 00415dad f   common:Event.obj
 0001:00014e37       ?Wait@CEvent@Win32@OnlineGameLib@@QBE_NK@Z 00415e37 f   common:Event.obj
 0001:00014ed0       ?Reset@CEvent@Win32@OnlineGameLib@@QAEXXZ 00415ed0 f   common:Event.obj
 0001:00014f46       ?Set@CEvent@Win32@OnlineGameLib@@QAEXXZ 00415f46 f   common:Event.obj
 0001:00014fbc       ?Pulse@CEvent@Win32@OnlineGameLib@@QAEXXZ 00415fbc f   common:Event.obj
 0001:00015060       ??1CWin32Exception@Win32@OnlineGameLib@@UAE@XZ 00416060 f i common:Event.obj
 0001:00015080       ??1CException@Win32@OnlineGameLib@@UAE@XZ 00416080 f i common:Event.obj
 0001:000150e0       ??_ECException@Win32@OnlineGameLib@@UAEPAXI@Z 004160e0 f i common:Event.obj
 0001:000150e0       ??_GCException@Win32@OnlineGameLib@@UAEPAXI@Z 004160e0 f i common:Event.obj
 0001:00015110       ??0CWin32Exception@Win32@OnlineGameLib@@QAE@ABV012@@Z 00416110 f i common:Event.obj
 0001:00015150       ??0CException@Win32@OnlineGameLib@@QAE@ABV012@@Z 00416150 f i common:Event.obj
 0001:000151c0       ??_GCWin32Exception@Win32@OnlineGameLib@@UAEPAXI@Z 004161c0 f i common:Event.obj
 0001:000151c0       ??_ECWin32Exception@Win32@OnlineGameLib@@UAEPAXI@Z 004161c0 f i common:Event.obj
 0001:000151f0       ??_GCEvent@Win32@OnlineGameLib@@UAEPAXI@Z 004161f0 f i common:Event.obj
 0001:000151f0       ??_ECEvent@Win32@OnlineGameLib@@UAEPAXI@Z 004161f0 f i common:Event.obj
 0001:00015220       ??0CBuffer@Win32@OnlineGameLib@@AAE@AAVAllocator@012@I@Z 00416220 f   common:Buffer.obj
 0001:000152d0       ??1CBuffer@Win32@OnlineGameLib@@AAE@XZ 004162d0 f   common:Buffer.obj
 0001:0001539d       ?GetHeadPack@CBuffer@Win32@OnlineGameLib@@QAEPAV123@I@Z 0041639d f   common:Buffer.obj
 0001:0001541d       ?GetNextPack@CBuffer@Win32@OnlineGameLib@@QAEPAV123@XZ 0041641d f   common:Buffer.obj
 0001:000154a9       ?AddData@CBuffer@Win32@OnlineGameLib@@QAEXQBDI@Z 004164a9 f   common:Buffer.obj
 0001:0001555f       ?AddData@CBuffer@Win32@OnlineGameLib@@QAEXQBEI@Z 0041655f f   common:Buffer.obj
 0001:0001557c       ?AddData@CBuffer@Win32@OnlineGameLib@@QAEXE@Z 0041657c f   common:Buffer.obj
 0001:00015597       ?SplitBuffer@CBuffer@Win32@OnlineGameLib@@QAEPAV123@I@Z 00416597 f   common:Buffer.obj
 0001:000155f9       ?AllocateNewBuffer@CBuffer@Win32@OnlineGameLib@@QBEPAV123@XZ 004165f9 f   common:Buffer.obj
 0001:0001560f       ?Release@CBuffer@Win32@OnlineGameLib@@QAEXXZ 0041660f f   common:Buffer.obj
 0001:000156b9       ??2CBuffer@Win32@OnlineGameLib@@CAPAXII@Z 004166b9 f   common:Buffer.obj
 0001:000156db       ??3CBuffer@Win32@OnlineGameLib@@CAXPAXI@Z 004166db f   common:Buffer.obj
 0001:00015765       ??0Allocator@CBuffer@Win32@OnlineGameLib@@QAE@II@Z 00416765 f   common:Buffer.obj
 0001:000157b1       ??1Allocator@CBuffer@Win32@OnlineGameLib@@UAE@XZ 004167b1 f   common:Buffer.obj
 0001:00015846       ?Allocate@Allocator@CBuffer@Win32@OnlineGameLib@@QAEPAV234@XZ 00416846 f   common:Buffer.obj
 0001:00015996       ?Flush@Allocator@CBuffer@Win32@OnlineGameLib@@IAEXXZ 00416996 f   common:Buffer.obj
 0001:00015a46       ?Release@Allocator@CBuffer@Win32@OnlineGameLib@@AAEXPAV234@@Z 00416a46 f   common:Buffer.obj
 0001:00015b3e       ??0CPackager@Win32@OnlineGameLib@@QAE@II@Z 00416b3e f   common:Buffer.obj
 0001:00015be1       ??1CPackager@Win32@OnlineGameLib@@UAE@XZ 00416be1 f   common:Buffer.obj
 0001:00015c71       ?AddData@CPackager@Win32@OnlineGameLib@@QAEXEQBDIK@Z 00416c71 f   common:Buffer.obj
 0001:00015d7d       ?AddData@CPackager@Win32@OnlineGameLib@@QAEXEQBEIK@Z 00416d7d f   common:Buffer.obj
 0001:00015da2       ?DelData@CPackager@Win32@OnlineGameLib@@QAEXE@Z 00416da2 f   common:Buffer.obj
 0001:00015eaf       ?GetHeadPack@CPackager@Win32@OnlineGameLib@@QAEPAVCBuffer@23@EI@Z 00416eaf f   common:Buffer.obj
 0001:0001606b       ?GetNextPack@CPackager@Win32@OnlineGameLib@@QAEPAVCBuffer@23@E@Z 0041706b f   common:Buffer.obj
 0001:0001621f       ?PackUp@CPackager@Win32@OnlineGameLib@@QAEPAVCBuffer@23@PBXI@Z 0041721f f   common:Buffer.obj
 0001:00016401       ?Empty@CPackager@Win32@OnlineGameLib@@QAEXXZ 00417401 f   common:Buffer.obj
 0001:00016660       ??0COpaqueUserData@OnlineGameLib@@IAE@XZ 00417660 f i common:Buffer.obj
 0001:00016680       ??1COpaqueUserData@OnlineGameLib@@IAE@XZ 00417680 f i common:Buffer.obj
 0001:000166a0       ?Empty@CBuffer@Win32@OnlineGameLib@@QAEXXZ 004176a0 f i common:Buffer.obj
 0001:000166c0       ?OnBufferCreated@Allocator@CBuffer@Win32@OnlineGameLib@@EAEXXZ 004176c0 f i common:Buffer.obj
 0001:000166d0       ?OnBufferAllocated@Allocator@CBuffer@Win32@OnlineGameLib@@EAEXXZ 004176d0 f i common:Buffer.obj
 0001:000166e0       ?OnBufferReleased@Allocator@CBuffer@Win32@OnlineGameLib@@EAEXXZ 004176e0 f i common:Buffer.obj
 0001:000166f0       ??_GAllocator@CBuffer@Win32@OnlineGameLib@@UAEPAXI@Z 004176f0 f i common:Buffer.obj
 0001:000166f0       ??_EAllocator@CBuffer@Win32@OnlineGameLib@@UAEPAXI@Z 004176f0 f i common:Buffer.obj
 0001:00016720       ??0?$TNodeList@VCBuffer@Win32@OnlineGameLib@@@OnlineGameLib@@QAE@XZ 00417720 f i common:Buffer.obj
 0001:00016740       ?Empty@CNodeList@OnlineGameLib@@QBE_NXZ 00417740 f i common:Buffer.obj
 0001:00016760       ?DestroyBuffer@Allocator@CBuffer@Win32@OnlineGameLib@@AAEXPAV234@@Z 00417760 f i common:Buffer.obj
 0001:00016810       ??_GCBuffer@Win32@OnlineGameLib@@AAEPAXI@Z 00417810 f i common:Buffer.obj
 0001:00016840       ?Count@CNodeList@OnlineGameLib@@QBEIXZ 00417840 f i common:Buffer.obj
 0001:00016860       ??_ECPackager@Win32@OnlineGameLib@@UAEPAXI@Z 00417860 f i common:Buffer.obj
 0001:00016860       ??_GCPackager@Win32@OnlineGameLib@@UAEPAXI@Z 00417860 f i common:Buffer.obj
 0001:00016890       ??1?$map@EPAVCBuffer@Win32@OnlineGameLib@@U?$less@E@std@@V?$allocator@PAVCBuffer@Win32@OnlineGameLib@@@5@@std@@QAE@XZ 00417890 f i common:Buffer.obj
 0001:000168b0       ?SetUserData@COpaqueUserData@OnlineGameLib@@QAEXK@Z 004178b0 f i common:Buffer.obj
 0001:000168d0       ?SetUserPtr@COpaqueUserData@OnlineGameLib@@QAEXPAX@Z 004178d0 f i common:Buffer.obj
 0001:000168f0       ?GetUserData@COpaqueUserData@OnlineGameLib@@QBEKXZ 004178f0 f i common:Buffer.obj
 0001:00016910       ?GetUserPtr@COpaqueUserData@OnlineGameLib@@QBEPAXXZ 00417910 f i common:Buffer.obj
 0001:00016930       ?HaveNextPack@CBuffer@Win32@OnlineGameLib@@QAE_NXZ 00417930 f i common:Buffer.obj
 0001:00016950       ?_Header@CPackager@Win32@OnlineGameLib@@AAE_NE@Z 00417950 f i common:Buffer.obj
 0001:00016980       ?_Middle@CPackager@Win32@OnlineGameLib@@AAE_NE@Z 00417980 f i common:Buffer.obj
 0001:000169b0       ?_Tail@CPackager@Win32@OnlineGameLib@@AAE_NE@Z 004179b0 f i common:Buffer.obj
 0001:000169e0       ?_Error@CPackager@Win32@OnlineGameLib@@AAE_NE@Z 004179e0 f i common:Buffer.obj
 0001:00016a10       ??0?$map@EPAVCBuffer@Win32@OnlineGameLib@@U?$less@E@std@@V?$allocator@PAVCBuffer@Win32@OnlineGameLib@@@5@@std@@QAE@ABU?$less@E@1@ABV?$allocator@PAVCBuffer@Win32@OnlineGameLib@@@1@@Z 00417a10 f i common:Buffer.obj
 0001:00016a40       ?begin@?$map@EPAVCBuffer@Win32@OnlineGameLib@@U?$less@E@std@@V?$allocator@PAVCBuffer@Win32@OnlineGameLib@@@5@@std@@QAE?AViterator@?$_Tree@EU?$pair@$$CBEPAVCBuffer@Win32@OnlineGameLib@@@std@@U_Kfn@?$map@EPAVCBuffer@Win32@OnlineGameLib@@U?$less@E@std@@V?$allocator@PAVCBuffer@Win32@OnlineGameLib@@@5@@2@U?$less@E@2@V?$allocator@PAVCBuffer@Win32@OnlineGameLib@@@2@@2@XZ 00417a40 f i common:Buffer.obj
 0001:00016a70       ?end@?$map@EPAVCBuffer@Win32@OnlineGameLib@@U?$less@E@std@@V?$allocator@PAVCBuffer@Win32@OnlineGameLib@@@5@@std@@QAE?AViterator@?$_Tree@EU?$pair@$$CBEPAVCBuffer@Win32@OnlineGameLib@@@std@@U_Kfn@?$map@EPAVCBuffer@Win32@OnlineGameLib@@U?$less@E@std@@V?$allocator@PAVCBuffer@Win32@OnlineGameLib@@@5@@2@U?$less@E@2@V?$allocator@PAVCBuffer@Win32@OnlineGameLib@@@2@@2@XZ 00417a70 f i common:Buffer.obj
 0001:00016aa0       ??A?$map@EPAVCBuffer@Win32@OnlineGameLib@@U?$less@E@std@@V?$allocator@PAVCBuffer@Win32@OnlineGameLib@@@5@@std@@QAEAAPAVCBuffer@Win32@OnlineGameLib@@ABE@Z 00417aa0 f i common:Buffer.obj
 0001:00016af0       ?erase@?$map@EPAVCBuffer@Win32@OnlineGameLib@@U?$less@E@std@@V?$allocator@PAVCBuffer@Win32@OnlineGameLib@@@5@@std@@QAE?AViterator@?$_Tree@EU?$pair@$$CBEPAVCBuffer@Win32@OnlineGameLib@@@std@@U_Kfn@?$map@EPAVCBuffer@Win32@OnlineGameLib@@U?$less@E@std@@V?$allocator@PAVCBuffer@Win32@OnlineGameLib@@@5@@2@U?$less@E@2@V?$allocator@PAVCBuffer@Win32@OnlineGameLib@@@2@@2@V342@0@Z 00417af0 f i common:Buffer.obj
 0001:00016b20       ?erase@?$map@EPAVCBuffer@Win32@OnlineGameLib@@U?$less@E@std@@V?$allocator@PAVCBuffer@Win32@OnlineGameLib@@@5@@std@@QAEIABE@Z 00417b20 f i common:Buffer.obj
 0001:00016b40       ?find@?$map@EPAVCBuffer@Win32@OnlineGameLib@@U?$less@E@std@@V?$allocator@PAVCBuffer@Win32@OnlineGameLib@@@5@@std@@QAE?AViterator@?$_Tree@EU?$pair@$$CBEPAVCBuffer@Win32@OnlineGameLib@@@std@@U_Kfn@?$map@EPAVCBuffer@Win32@OnlineGameLib@@U?$less@E@std@@V?$allocator@PAVCBuffer@Win32@OnlineGameLib@@@5@@2@U?$less@E@2@V?$allocator@PAVCBuffer@Win32@OnlineGameLib@@@2@@2@ABE@Z 00417b40 f i common:Buffer.obj
 0001:00016b70       ??1?$_Tree@EU?$pair@$$CBEPAVCBuffer@Win32@OnlineGameLib@@@std@@U_Kfn@?$map@EPAVCBuffer@Win32@OnlineGameLib@@U?$less@E@std@@V?$allocator@PAVCBuffer@Win32@OnlineGameLib@@@5@@2@U?$less@E@2@V?$allocator@PAVCBuffer@Win32@OnlineGameLib@@@2@@std@@QAE@XZ 00417b70 f i common:Buffer.obj
 0001:00016c40       ??0iterator@?$_Tree@EU?$pair@$$CBEPAVCBuffer@Win32@OnlineGameLib@@@std@@U_Kfn@?$map@EPAVCBuffer@Win32@OnlineGameLib@@U?$less@E@std@@V?$allocator@PAVCBuffer@Win32@OnlineGameLib@@@5@@2@U?$less@E@2@V?$allocator@PAVCBuffer@Win32@OnlineGameLib@@@2@@std@@QAE@XZ 00417c40 f i common:Buffer.obj
 0001:00016c60       ??Diterator@?$_Tree@EU?$pair@$$CBEPAVCBuffer@Win32@OnlineGameLib@@@std@@U_Kfn@?$map@EPAVCBuffer@Win32@OnlineGameLib@@U?$less@E@std@@V?$allocator@PAVCBuffer@Win32@OnlineGameLib@@@5@@2@U?$less@E@2@V?$allocator@PAVCBuffer@Win32@OnlineGameLib@@@2@@std@@QBEAAU?$pair@$$CBEPAVCBuffer@Win32@OnlineGameLib@@@2@XZ 00417c60 f i common:Buffer.obj
 0001:00016c80       ??Eiterator@?$_Tree@EU?$pair@$$CBEPAVCBuffer@Win32@OnlineGameLib@@@std@@U_Kfn@?$map@EPAVCBuffer@Win32@OnlineGameLib@@U?$less@E@std@@V?$allocator@PAVCBuffer@Win32@OnlineGameLib@@@5@@2@U?$less@E@2@V?$allocator@PAVCBuffer@Win32@OnlineGameLib@@@2@@std@@QAE?AV012@H@Z 00417c80 f i common:Buffer.obj
 0001:00016cb0       ??8iterator@?$_Tree@EU?$pair@$$CBEPAVCBuffer@Win32@OnlineGameLib@@@std@@U_Kfn@?$map@EPAVCBuffer@Win32@OnlineGameLib@@U?$less@E@std@@V?$allocator@PAVCBuffer@Win32@OnlineGameLib@@@5@@2@U?$less@E@2@V?$allocator@PAVCBuffer@Win32@OnlineGameLib@@@2@@std@@QBE_NABV012@@Z 00417cb0 f i common:Buffer.obj
 0001:00016cd0       ??9iterator@?$_Tree@EU?$pair@$$CBEPAVCBuffer@Win32@OnlineGameLib@@@std@@U_Kfn@?$map@EPAVCBuffer@Win32@OnlineGameLib@@U?$less@E@std@@V?$allocator@PAVCBuffer@Win32@OnlineGameLib@@@5@@2@U?$less@E@2@V?$allocator@PAVCBuffer@Win32@OnlineGameLib@@@2@@std@@QBE_NABV012@@Z 00417cd0 f i common:Buffer.obj
 0001:00016d00       ?insert@?$map@EPAVCBuffer@Win32@OnlineGameLib@@U?$less@E@std@@V?$allocator@PAVCBuffer@Win32@OnlineGameLib@@@5@@std@@QAE?AU?$pair@Viterator@?$_Tree@EU?$pair@$$CBEPAVCBuffer@Win32@OnlineGameLib@@@std@@U_Kfn@?$map@EPAVCBuffer@Win32@OnlineGameLib@@U?$less@E@std@@V?$allocator@PAVCBuffer@Win32@OnlineGameLib@@@5@@2@U?$less@E@2@V?$allocator@PAVCBuffer@Win32@OnlineGameLib@@@2@@std@@_N@2@ABU?$pair@$$CBEPAVCBuffer@Win32@OnlineGameLib@@@2@@Z 00417d00 f i common:Buffer.obj
 0001:00016d50       ?_Value@?$_Tree@EU?$pair@$$CBEPAVCBuffer@Win32@OnlineGameLib@@@std@@U_Kfn@?$map@EPAVCBuffer@Win32@OnlineGameLib@@U?$less@E@std@@V?$allocator@PAVCBuffer@Win32@OnlineGameLib@@@5@@2@U?$less@E@2@V?$allocator@PAVCBuffer@Win32@OnlineGameLib@@@2@@std@@KAAAU?$pair@$$CBEPAVCBuffer@Win32@OnlineGameLib@@@2@PAU_Node@12@@Z 00417d50 f i common:Buffer.obj
 0001:00016d60       ??0?$_Tree@EU?$pair@$$CBEPAVCBuffer@Win32@OnlineGameLib@@@std@@U_Kfn@?$map@EPAVCBuffer@Win32@OnlineGameLib@@U?$less@E@std@@V?$allocator@PAVCBuffer@Win32@OnlineGameLib@@@5@@2@U?$less@E@2@V?$allocator@PAVCBuffer@Win32@OnlineGameLib@@@2@@std@@QAE@ABU?$less@E@1@_NABV?$allocator@PAVCBuffer@Win32@OnlineGameLib@@@1@@Z 00417d60 f i common:Buffer.obj
 0001:00016da0       ?begin@?$_Tree@EU?$pair@$$CBEPAVCBuffer@Win32@OnlineGameLib@@@std@@U_Kfn@?$map@EPAVCBuffer@Win32@OnlineGameLib@@U?$less@E@std@@V?$allocator@PAVCBuffer@Win32@OnlineGameLib@@@5@@2@U?$less@E@2@V?$allocator@PAVCBuffer@Win32@OnlineGameLib@@@2@@std@@QAE?AViterator@12@XZ 00417da0 f i common:Buffer.obj
 0001:00016dd0       ?end@?$_Tree@EU?$pair@$$CBEPAVCBuffer@Win32@OnlineGameLib@@@std@@U_Kfn@?$map@EPAVCBuffer@Win32@OnlineGameLib@@U?$less@E@std@@V?$allocator@PAVCBuffer@Win32@OnlineGameLib@@@5@@2@U?$less@E@2@V?$allocator@PAVCBuffer@Win32@OnlineGameLib@@@2@@std@@QAE?AViterator@12@XZ 00417dd0 f i common:Buffer.obj
 0001:00016e00       ?erase@?$_Tree@EU?$pair@$$CBEPAVCBuffer@Win32@OnlineGameLib@@@std@@U_Kfn@?$map@EPAVCBuffer@Win32@OnlineGameLib@@U?$less@E@std@@V?$allocator@PAVCBuffer@Win32@OnlineGameLib@@@5@@2@U?$less@E@2@V?$allocator@PAVCBuffer@Win32@OnlineGameLib@@@2@@std@@QAE?AViterator@12@V312@0@Z 00417e00 f i common:Buffer.obj
 0001:00016f40       ?erase@?$_Tree@EU?$pair@$$CBEPAVCBuffer@Win32@OnlineGameLib@@@std@@U_Kfn@?$map@EPAVCBuffer@Win32@OnlineGameLib@@U?$less@E@std@@V?$allocator@PAVCBuffer@Win32@OnlineGameLib@@@5@@2@U?$less@E@2@V?$allocator@PAVCBuffer@Win32@OnlineGameLib@@@2@@std@@QAEIABE@Z 00417f40 f i common:Buffer.obj
 0001:00016fa0       ?find@?$_Tree@EU?$pair@$$CBEPAVCBuffer@Win32@OnlineGameLib@@@std@@U_Kfn@?$map@EPAVCBuffer@Win32@OnlineGameLib@@U?$less@E@std@@V?$allocator@PAVCBuffer@Win32@OnlineGameLib@@@5@@2@U?$less@E@2@V?$allocator@PAVCBuffer@Win32@OnlineGameLib@@@2@@std@@QAE?AViterator@12@ABE@Z 00417fa0 f i common:Buffer.obj
 0001:00017040       ?_Freenode@?$_Tree@EU?$pair@$$CBEPAVCBuffer@Win32@OnlineGameLib@@@std@@U_Kfn@?$map@EPAVCBuffer@Win32@OnlineGameLib@@U?$less@E@std@@V?$allocator@PAVCBuffer@Win32@OnlineGameLib@@@5@@2@U?$less@E@2@V?$allocator@PAVCBuffer@Win32@OnlineGameLib@@@2@@std@@IAEXPAU_Node@12@@Z 00418040 f i common:Buffer.obj
 0001:00017060       ??0?$pair@$$CBEPAVCBuffer@Win32@OnlineGameLib@@@std@@QAE@ABEABQAVCBuffer@Win32@OnlineGameLib@@@Z 00418060 f i common:Buffer.obj
 0001:00017090       ??0const_iterator@?$_Tree@EU?$pair@$$CBEPAVCBuffer@Win32@OnlineGameLib@@@std@@U_Kfn@?$map@EPAVCBuffer@Win32@OnlineGameLib@@U?$less@E@std@@V?$allocator@PAVCBuffer@Win32@OnlineGameLib@@@5@@2@U?$less@E@2@V?$allocator@PAVCBuffer@Win32@OnlineGameLib@@@2@@std@@QAE@XZ 00418090 f i common:Buffer.obj
 0001:000170a0       ??Eiterator@?$_Tree@EU?$pair@$$CBEPAVCBuffer@Win32@OnlineGameLib@@@std@@U_Kfn@?$map@EPAVCBuffer@Win32@OnlineGameLib@@U?$less@E@std@@V?$allocator@PAVCBuffer@Win32@OnlineGameLib@@@5@@2@U?$less@E@2@V?$allocator@PAVCBuffer@Win32@OnlineGameLib@@@2@@std@@QAEAAV012@XZ 004180a0 f i common:Buffer.obj
 0001:000170c0       ??R?$less@E@std@@QBE_NABE0@Z 004180c0 f i common:Buffer.obj
 0001:000170f0       ?_Key@?$_Tree@EU?$pair@$$CBEPAVCBuffer@Win32@OnlineGameLib@@@std@@U_Kfn@?$map@EPAVCBuffer@Win32@OnlineGameLib@@U?$less@E@std@@V?$allocator@PAVCBuffer@Win32@OnlineGameLib@@@5@@2@U?$less@E@2@V?$allocator@PAVCBuffer@Win32@OnlineGameLib@@@2@@std@@KAABEPAU_Node@12@@Z 004180f0 f i common:Buffer.obj
 0001:00017110       ?size@?$_Tree@EU?$pair@$$CBEPAVCBuffer@Win32@OnlineGameLib@@@std@@U_Kfn@?$map@EPAVCBuffer@Win32@OnlineGameLib@@U?$less@E@std@@V?$allocator@PAVCBuffer@Win32@OnlineGameLib@@@5@@2@U?$less@E@2@V?$allocator@PAVCBuffer@Win32@OnlineGameLib@@@2@@std@@QBEIXZ 00418110 f i common:Buffer.obj
 0001:00017130       ?insert@?$_Tree@EU?$pair@$$CBEPAVCBuffer@Win32@OnlineGameLib@@@std@@U_Kfn@?$map@EPAVCBuffer@Win32@OnlineGameLib@@U?$less@E@std@@V?$allocator@PAVCBuffer@Win32@OnlineGameLib@@@5@@2@U?$less@E@2@V?$allocator@PAVCBuffer@Win32@OnlineGameLib@@@2@@std@@QAE?AU?$pair@Viterator@?$_Tree@EU?$pair@$$CBEPAVCBuffer@Win32@OnlineGameLib@@@std@@U_Kfn@?$map@EPAVCBuffer@Win32@OnlineGameLib@@U?$less@E@std@@V?$allocator@PAVCBuffer@Win32@OnlineGameLib@@@5@@2@U?$less@E@2@V?$allocator@PAVCBuffer@Win32@OnlineGameLib@@@2@@std@@_N@2@ABU?$pair@$$CBEPAVCBuffer@Win32@OnlineGameLib@@@2@@Z 00418130 f i common:Buffer.obj
 0001:00017370       ?erase@?$_Tree@EU?$pair@$$CBEPAVCBuffer@Win32@OnlineGameLib@@@std@@U_Kfn@?$map@EPAVCBuffer@Win32@OnlineGameLib@@U?$less@E@std@@V?$allocator@PAVCBuffer@Win32@OnlineGameLib@@@5@@2@U?$less@E@2@V?$allocator@PAVCBuffer@Win32@OnlineGameLib@@@2@@std@@QAE?AViterator@12@V312@@Z 00418370 f i common:Buffer.obj
 0001:00017bc0       ?lower_bound@?$_Tree@EU?$pair@$$CBEPAVCBuffer@Win32@OnlineGameLib@@@std@@U_Kfn@?$map@EPAVCBuffer@Win32@OnlineGameLib@@U?$less@E@std@@V?$allocator@PAVCBuffer@Win32@OnlineGameLib@@@5@@2@U?$less@E@2@V?$allocator@PAVCBuffer@Win32@OnlineGameLib@@@2@@std@@QAE?AViterator@12@ABE@Z 00418bc0 f i common:Buffer.obj
 0001:00017bf0       ?equal_range@?$_Tree@EU?$pair@$$CBEPAVCBuffer@Win32@OnlineGameLib@@@std@@U_Kfn@?$map@EPAVCBuffer@Win32@OnlineGameLib@@U?$less@E@std@@V?$allocator@PAVCBuffer@Win32@OnlineGameLib@@@5@@2@U?$less@E@2@V?$allocator@PAVCBuffer@Win32@OnlineGameLib@@@2@@std@@QAE?AU?$pair@Viterator@?$_Tree@EU?$pair@$$CBEPAVCBuffer@Win32@OnlineGameLib@@@std@@U_Kfn@?$map@EPAVCBuffer@Win32@OnlineGameLib@@U?$less@E@std@@V?$allocator@PAVCBuffer@Win32@OnlineGameLib@@@5@@2@U?$less@E@2@V?$allocator@PAVCBuffer@Win32@OnlineGameLib@@@2@@std@@V123@@2@ABE@Z 00418bf0 f i common:Buffer.obj
 0001:00017c40       ?_Erase@?$_Tree@EU?$pair@$$CBEPAVCBuffer@Win32@OnlineGameLib@@@std@@U_Kfn@?$map@EPAVCBuffer@Win32@OnlineGameLib@@U?$less@E@std@@V?$allocator@PAVCBuffer@Win32@OnlineGameLib@@@5@@2@U?$less@E@2@V?$allocator@PAVCBuffer@Win32@OnlineGameLib@@@2@@std@@IAEXPAU_Node@12@@Z 00418c40 f i common:Buffer.obj
 0001:00017cf0       ?_Init@?$_Tree@EU?$pair@$$CBEPAVCBuffer@Win32@OnlineGameLib@@@std@@U_Kfn@?$map@EPAVCBuffer@Win32@OnlineGameLib@@U?$less@E@std@@V?$allocator@PAVCBuffer@Win32@OnlineGameLib@@@5@@2@U?$less@E@2@V?$allocator@PAVCBuffer@Win32@OnlineGameLib@@@2@@std@@IAEXXZ 00418cf0 f i common:Buffer.obj
 0001:00017dd0       ?_Lmost@?$_Tree@EU?$pair@$$CBEPAVCBuffer@Win32@OnlineGameLib@@@std@@U_Kfn@?$map@EPAVCBuffer@Win32@OnlineGameLib@@U?$less@E@std@@V?$allocator@PAVCBuffer@Win32@OnlineGameLib@@@5@@2@U?$less@E@2@V?$allocator@PAVCBuffer@Win32@OnlineGameLib@@@2@@std@@IAEAAPAU_Node@12@XZ 00418dd0 f i common:Buffer.obj
 0001:00017df0       ?_Rmost@?$_Tree@EU?$pair@$$CBEPAVCBuffer@Win32@OnlineGameLib@@@std@@U_Kfn@?$map@EPAVCBuffer@Win32@OnlineGameLib@@U?$less@E@std@@V?$allocator@PAVCBuffer@Win32@OnlineGameLib@@@5@@2@U?$less@E@2@V?$allocator@PAVCBuffer@Win32@OnlineGameLib@@@2@@std@@IAEAAPAU_Node@12@XZ 00418df0 f i common:Buffer.obj
 0001:00017e10       ?_Root@?$_Tree@EU?$pair@$$CBEPAVCBuffer@Win32@OnlineGameLib@@@std@@U_Kfn@?$map@EPAVCBuffer@Win32@OnlineGameLib@@U?$less@E@std@@V?$allocator@PAVCBuffer@Win32@OnlineGameLib@@@5@@2@U?$less@E@2@V?$allocator@PAVCBuffer@Win32@OnlineGameLib@@@2@@std@@IAEAAPAU_Node@12@XZ 00418e10 f i common:Buffer.obj
 0001:00017e30       ?_Inc@const_iterator@?$_Tree@EU?$pair@$$CBEPAVCBuffer@Win32@OnlineGameLib@@@std@@U_Kfn@?$map@EPAVCBuffer@Win32@OnlineGameLib@@U?$less@E@std@@V?$allocator@PAVCBuffer@Win32@OnlineGameLib@@@5@@2@U?$less@E@2@V?$allocator@PAVCBuffer@Win32@OnlineGameLib@@@2@@std@@QAEXXZ 00418e30 f i common:Buffer.obj
 0001:00017f10       ?_Mynode@const_iterator@?$_Tree@EU?$pair@$$CBEPAVCBuffer@Win32@OnlineGameLib@@@std@@U_Kfn@?$map@EPAVCBuffer@Win32@OnlineGameLib@@U?$less@E@std@@V?$allocator@PAVCBuffer@Win32@OnlineGameLib@@@5@@2@U?$less@E@2@V?$allocator@PAVCBuffer@Win32@OnlineGameLib@@@2@@std@@QBEPAU_Node@23@XZ 00418f10 f i common:Buffer.obj
 0001:00017f20       ??0iterator@?$_Tree@EU?$pair@$$CBEPAVCBuffer@Win32@OnlineGameLib@@@std@@U_Kfn@?$map@EPAVCBuffer@Win32@OnlineGameLib@@U?$less@E@std@@V?$allocator@PAVCBuffer@Win32@OnlineGameLib@@@5@@2@U?$less@E@2@V?$allocator@PAVCBuffer@Win32@OnlineGameLib@@@2@@std@@QAE@PAU_Node@12@@Z 00418f20 f i common:Buffer.obj
 0001:00017f40       ??0?$pair@Viterator@?$_Tree@EU?$pair@$$CBEPAVCBuffer@Win32@OnlineGameLib@@@std@@U_Kfn@?$map@EPAVCBuffer@Win32@OnlineGameLib@@U?$less@E@std@@V?$allocator@PAVCBuffer@Win32@OnlineGameLib@@@5@@2@U?$less@E@2@V?$allocator@PAVCBuffer@Win32@OnlineGameLib@@@2@@std@@_N@std@@QAE@ABViterator@?$_Tree@EU?$pair@$$CBEPAVCBuffer@Win32@OnlineGameLib@@@std@@U_Kfn@?$map@EPAVCBuffer@Win32@OnlineGameLib@@U?$less@E@std@@V?$allocator@PAVCBuffer@Win32@OnlineGameLib@@@5@@2@U?$less@E@2@V?$allocator@PAVCBuffer@Win32@OnlineGameLib@@@2@@1@AB_N@Z 00418f40 f i common:Buffer.obj
 0001:00017f70       ??R_Kfn@?$map@EPAVCBuffer@Win32@OnlineGameLib@@U?$less@E@std@@V?$allocator@PAVCBuffer@Win32@OnlineGameLib@@@5@@std@@QBEABEABU?$pair@$$CBEPAVCBuffer@Win32@OnlineGameLib@@@2@@Z 00418f70 f i common:Buffer.obj
 0001:00017f80       ?_Color@?$_Tree@EU?$pair@$$CBEPAVCBuffer@Win32@OnlineGameLib@@@std@@U_Kfn@?$map@EPAVCBuffer@Win32@OnlineGameLib@@U?$less@E@std@@V?$allocator@PAVCBuffer@Win32@OnlineGameLib@@@5@@2@U?$less@E@2@V?$allocator@PAVCBuffer@Win32@OnlineGameLib@@@2@@std@@KAAAW4_Redbl@12@PAU_Node@12@@Z 00418f80 f i common:Buffer.obj
 0001:00017f90       ?_Left@?$_Tree@EU?$pair@$$CBEPAVCBuffer@Win32@OnlineGameLib@@@std@@U_Kfn@?$map@EPAVCBuffer@Win32@OnlineGameLib@@U?$less@E@std@@V?$allocator@PAVCBuffer@Win32@OnlineGameLib@@@5@@2@U?$less@E@2@V?$allocator@PAVCBuffer@Win32@OnlineGameLib@@@2@@std@@KAAAPAU_Node@12@PAU312@@Z 00418f90 f i common:Buffer.obj
 0001:00017fa0       ?_Parent@?$_Tree@EU?$pair@$$CBEPAVCBuffer@Win32@OnlineGameLib@@@std@@U_Kfn@?$map@EPAVCBuffer@Win32@OnlineGameLib@@U?$less@E@std@@V?$allocator@PAVCBuffer@Win32@OnlineGameLib@@@5@@2@U?$less@E@2@V?$allocator@PAVCBuffer@Win32@OnlineGameLib@@@2@@std@@KAAAPAU_Node@12@PAU312@@Z 00418fa0 f i common:Buffer.obj
 0001:00017fb0       ?_Right@?$_Tree@EU?$pair@$$CBEPAVCBuffer@Win32@OnlineGameLib@@@std@@U_Kfn@?$map@EPAVCBuffer@Win32@OnlineGameLib@@U?$less@E@std@@V?$allocator@PAVCBuffer@Win32@OnlineGameLib@@@5@@2@U?$less@E@2@V?$allocator@PAVCBuffer@Win32@OnlineGameLib@@@2@@std@@KAAAPAU_Node@12@PAU312@@Z 00418fb0 f i common:Buffer.obj
 0001:00017fc0       ?upper_bound@?$_Tree@EU?$pair@$$CBEPAVCBuffer@Win32@OnlineGameLib@@@std@@U_Kfn@?$map@EPAVCBuffer@Win32@OnlineGameLib@@U?$less@E@std@@V?$allocator@PAVCBuffer@Win32@OnlineGameLib@@@5@@2@U?$less@E@2@V?$allocator@PAVCBuffer@Win32@OnlineGameLib@@@2@@std@@QAE?AViterator@12@ABE@Z 00418fc0 f i common:Buffer.obj
 0001:00017ff0       ?_Insert@?$_Tree@EU?$pair@$$CBEPAVCBuffer@Win32@OnlineGameLib@@@std@@U_Kfn@?$map@EPAVCBuffer@Win32@OnlineGameLib@@U?$less@E@std@@V?$allocator@PAVCBuffer@Win32@OnlineGameLib@@@5@@2@U?$less@E@2@V?$allocator@PAVCBuffer@Win32@OnlineGameLib@@@2@@std@@IAE?AViterator@12@PAU_Node@12@0ABU?$pair@$$CBEPAVCBuffer@Win32@OnlineGameLib@@@2@@Z 00418ff0 f i common:Buffer.obj
 0001:000184c0       ?_Lbound@?$_Tree@EU?$pair@$$CBEPAVCBuffer@Win32@OnlineGameLib@@@std@@U_Kfn@?$map@EPAVCBuffer@Win32@OnlineGameLib@@U?$less@E@std@@V?$allocator@PAVCBuffer@Win32@OnlineGameLib@@@5@@2@U?$less@E@2@V?$allocator@PAVCBuffer@Win32@OnlineGameLib@@@2@@std@@IBEPAU_Node@12@ABE@Z 004194c0 f i common:Buffer.obj
 0001:00018590       ?_Lrotate@?$_Tree@EU?$pair@$$CBEPAVCBuffer@Win32@OnlineGameLib@@@std@@U_Kfn@?$map@EPAVCBuffer@Win32@OnlineGameLib@@U?$less@E@std@@V?$allocator@PAVCBuffer@Win32@OnlineGameLib@@@5@@2@U?$less@E@2@V?$allocator@PAVCBuffer@Win32@OnlineGameLib@@@2@@std@@IAEXPAU_Node@12@@Z 00419590 f i common:Buffer.obj
 0001:00018700       ?_Max@?$_Tree@EU?$pair@$$CBEPAVCBuffer@Win32@OnlineGameLib@@@std@@U_Kfn@?$map@EPAVCBuffer@Win32@OnlineGameLib@@U?$less@E@std@@V?$allocator@PAVCBuffer@Win32@OnlineGameLib@@@5@@2@U?$less@E@2@V?$allocator@PAVCBuffer@Win32@OnlineGameLib@@@2@@std@@KAPAU_Node@12@PAU312@@Z 00419700 f i common:Buffer.obj
 0001:00018780       ?_Min@?$_Tree@EU?$pair@$$CBEPAVCBuffer@Win32@OnlineGameLib@@@std@@U_Kfn@?$map@EPAVCBuffer@Win32@OnlineGameLib@@U?$less@E@std@@V?$allocator@PAVCBuffer@Win32@OnlineGameLib@@@5@@2@U?$less@E@2@V?$allocator@PAVCBuffer@Win32@OnlineGameLib@@@2@@std@@KAPAU_Node@12@PAU312@@Z 00419780 f i common:Buffer.obj
 0001:00018800       ?_Rrotate@?$_Tree@EU?$pair@$$CBEPAVCBuffer@Win32@OnlineGameLib@@@std@@U_Kfn@?$map@EPAVCBuffer@Win32@OnlineGameLib@@U?$less@E@std@@V?$allocator@PAVCBuffer@Win32@OnlineGameLib@@@5@@2@U?$less@E@2@V?$allocator@PAVCBuffer@Win32@OnlineGameLib@@@2@@std@@IAEXPAU_Node@12@@Z 00419800 f i common:Buffer.obj
 0001:00018970       ?_Buynode@?$_Tree@EU?$pair@$$CBEPAVCBuffer@Win32@OnlineGameLib@@@std@@U_Kfn@?$map@EPAVCBuffer@Win32@OnlineGameLib@@U?$less@E@std@@V?$allocator@PAVCBuffer@Win32@OnlineGameLib@@@5@@2@U?$less@E@2@V?$allocator@PAVCBuffer@Win32@OnlineGameLib@@@2@@std@@IAEPAU_Node@12@PAU312@W4_Redbl@12@@Z 00419970 f i common:Buffer.obj
 0001:000189c0       ?_Destval@?$_Tree@EU?$pair@$$CBEPAVCBuffer@Win32@OnlineGameLib@@@std@@U_Kfn@?$map@EPAVCBuffer@Win32@OnlineGameLib@@U?$less@E@std@@V?$allocator@PAVCBuffer@Win32@OnlineGameLib@@@5@@2@U?$less@E@2@V?$allocator@PAVCBuffer@Win32@OnlineGameLib@@@2@@std@@IAEXPAU?$pair@$$CBEPAVCBuffer@Win32@OnlineGameLib@@@2@@Z 004199c0 f i common:Buffer.obj
 0001:000189e0       ??0const_iterator@?$_Tree@EU?$pair@$$CBEPAVCBuffer@Win32@OnlineGameLib@@@std@@U_Kfn@?$map@EPAVCBuffer@Win32@OnlineGameLib@@U?$less@E@std@@V?$allocator@PAVCBuffer@Win32@OnlineGameLib@@@5@@2@U?$less@E@2@V?$allocator@PAVCBuffer@Win32@OnlineGameLib@@@2@@std@@QAE@PAU_Node@12@@Z 004199e0 f i common:Buffer.obj
 0001:00018a00       ??Fiterator@?$_Tree@EU?$pair@$$CBEPAVCBuffer@Win32@OnlineGameLib@@@std@@U_Kfn@?$map@EPAVCBuffer@Win32@OnlineGameLib@@U?$less@E@std@@V?$allocator@PAVCBuffer@Win32@OnlineGameLib@@@5@@2@U?$less@E@2@V?$allocator@PAVCBuffer@Win32@OnlineGameLib@@@2@@std@@QAEAAV012@XZ 00419a00 f i common:Buffer.obj
 0001:00018a20       ??0?$pair@Viterator@?$_Tree@EU?$pair@$$CBEPAVCBuffer@Win32@OnlineGameLib@@@std@@U_Kfn@?$map@EPAVCBuffer@Win32@OnlineGameLib@@U?$less@E@std@@V?$allocator@PAVCBuffer@Win32@OnlineGameLib@@@5@@2@U?$less@E@2@V?$allocator@PAVCBuffer@Win32@OnlineGameLib@@@2@@std@@V123@@std@@QAE@ABViterator@?$_Tree@EU?$pair@$$CBEPAVCBuffer@Win32@OnlineGameLib@@@std@@U_Kfn@?$map@EPAVCBuffer@Win32@OnlineGameLib@@U?$less@E@std@@V?$allocator@PAVCBuffer@Win32@OnlineGameLib@@@5@@2@U?$less@E@2@V?$allocator@PAVCBuffer@Win32@OnlineGameLib@@@2@@1@0@Z 00419a20 f i common:Buffer.obj
 0001:00018a50       ?_Root@?$_Tree@EU?$pair@$$CBEPAVCBuffer@Win32@OnlineGameLib@@@std@@U_Kfn@?$map@EPAVCBuffer@Win32@OnlineGameLib@@U?$less@E@std@@V?$allocator@PAVCBuffer@Win32@OnlineGameLib@@@5@@2@U?$less@E@2@V?$allocator@PAVCBuffer@Win32@OnlineGameLib@@@2@@std@@IBEAAPAU_Node@12@XZ 00419a50 f i common:Buffer.obj
 0001:00018a70       ?_Ubound@?$_Tree@EU?$pair@$$CBEPAVCBuffer@Win32@OnlineGameLib@@@std@@U_Kfn@?$map@EPAVCBuffer@Win32@OnlineGameLib@@U?$less@E@std@@V?$allocator@PAVCBuffer@Win32@OnlineGameLib@@@5@@2@U?$less@E@2@V?$allocator@PAVCBuffer@Win32@OnlineGameLib@@@2@@std@@IBEPAU_Node@12@ABE@Z 00419a70 f i common:Buffer.obj
 0001:00018b40       ?_Consval@?$_Tree@EU?$pair@$$CBEPAVCBuffer@Win32@OnlineGameLib@@@std@@U_Kfn@?$map@EPAVCBuffer@Win32@OnlineGameLib@@U?$less@E@std@@V?$allocator@PAVCBuffer@Win32@OnlineGameLib@@@5@@2@U?$less@E@2@V?$allocator@PAVCBuffer@Win32@OnlineGameLib@@@2@@std@@IAEXPAU?$pair@$$CBEPAVCBuffer@Win32@OnlineGameLib@@@2@ABU32@@Z 00419b40 f i common:Buffer.obj
 0001:00018b60       ?_Dec@const_iterator@?$_Tree@EU?$pair@$$CBEPAVCBuffer@Win32@OnlineGameLib@@@std@@U_Kfn@?$map@EPAVCBuffer@Win32@OnlineGameLib@@U?$less@E@std@@V?$allocator@PAVCBuffer@Win32@OnlineGameLib@@@5@@2@U?$less@E@2@V?$allocator@PAVCBuffer@Win32@OnlineGameLib@@@2@@std@@QAEXXZ 00419b60 f i common:Buffer.obj
 0001:00018c70       ?PopNode@?$TNodeList@VCBuffer@Win32@OnlineGameLib@@@OnlineGameLib@@QAEPAVCBuffer@Win32@2@XZ 00419c70 f i common:Buffer.obj
 0001:00018c90       ?ToBool@Win32@OnlineGameLib@@YA_NABH@Z 00419c90 f i common:Buffer.obj
 0001:00018cb0       ?_Distance@std@@YAXViterator@?$_Tree@EU?$pair@$$CBEPAVCBuffer@Win32@OnlineGameLib@@@std@@U_Kfn@?$map@EPAVCBuffer@Win32@OnlineGameLib@@U?$less@E@std@@V?$allocator@PAVCBuffer@Win32@OnlineGameLib@@@5@@2@U?$less@E@2@V?$allocator@PAVCBuffer@Win32@OnlineGameLib@@@2@@1@0AAI@Z 00419cb0 f i common:Buffer.obj
 0001:00018ce0       ?swap@std@@YAXAAW4_Redbl@?$_Tree@EU?$pair@$$CBEPAVCBuffer@Win32@OnlineGameLib@@@std@@U_Kfn@?$map@EPAVCBuffer@Win32@OnlineGameLib@@U?$less@E@std@@V?$allocator@PAVCBuffer@Win32@OnlineGameLib@@@5@@2@U?$less@E@2@V?$allocator@PAVCBuffer@Win32@OnlineGameLib@@@2@@1@0@Z 00419ce0 f i common:Buffer.obj
 0001:00018d10       ?_Destroy@std@@YAXPAU?$pair@$$CBEPAVCBuffer@Win32@OnlineGameLib@@@1@@Z 00419d10 f i common:Buffer.obj
 0001:00018d20       ?_Construct@std@@YAXPAU?$pair@$$CBEPAVCBuffer@Win32@OnlineGameLib@@@1@ABU21@@Z 00419d20 f i common:Buffer.obj
 0001:00018d60       ?_Iter_cat@std@@YA?AUbidirectional_iterator_tag@1@ABU?$iterator@Ubidirectional_iterator_tag@std@@U?$pair@$$CBEPAVCBuffer@Win32@OnlineGameLib@@@2@H@1@@Z 00419d60 f i common:Buffer.obj
 0001:00018d80       ?_Distance@std@@YAXViterator@?$_Tree@EU?$pair@$$CBEPAVCBuffer@Win32@OnlineGameLib@@@std@@U_Kfn@?$map@EPAVCBuffer@Win32@OnlineGameLib@@U?$less@E@std@@V?$allocator@PAVCBuffer@Win32@OnlineGameLib@@@5@@2@U?$less@E@2@V?$allocator@PAVCBuffer@Win32@OnlineGameLib@@@2@@1@0AAIUbidirectional_iterator_tag@1@@Z 00419d80 f i common:Buffer.obj
 0001:00018dc0       _GetCRCTable               00419dc0 f   common:CRC32.OBJ
 0001:00018dca       _CRC32_C                   00419dca f   common:CRC32.OBJ
 0001:00018fb6       _CRC32                     00419fb6 f   common:CRC32.OBJ
 0001:000190c0       ??0CLibrary@Win32@OnlineGameLib@@QAE@QBD@Z 0041a0c0 f   common:Library.obj
 0001:0001912d       ??0CLibrary@Win32@OnlineGameLib@@QAE@XZ 0041a12d f   common:Library.obj
 0001:0001915f       ??1CLibrary@Win32@OnlineGameLib@@UAE@XZ 0041a15f f   common:Library.obj
 0001:000191b3       ?Load@CLibrary@Win32@OnlineGameLib@@QAE_NQBD@Z 0041a1b3 f   common:Library.obj
 0001:000191e9       ?Free@CLibrary@Win32@OnlineGameLib@@QAE_NXZ 0041a1e9 f   common:Library.obj
 0001:00019240       ??_ECLibrary@Win32@OnlineGameLib@@UAEPAXI@Z 0041a240 f i common:Library.obj
 0001:00019240       ??_GCLibrary@Win32@OnlineGameLib@@UAEPAXI@Z 0041a240 f i common:Library.obj
 0001:00019270       ??0CIniFile@Win32@OnlineGameLib@@QAE@XZ 0041a270 f   common:IniFile.obj
 0001:00019291       ??0CIniFile@Win32@OnlineGameLib@@QAE@PBD@Z 0041a291 f   common:IniFile.obj
 0001:000192b1       ??1CIniFile@Win32@OnlineGameLib@@QAE@XZ 0041a2b1 f   common:IniFile.obj
 0001:000192bc       ?SetFile@CIniFile@Win32@OnlineGameLib@@QAEXPBD@Z 0041a2bc f   common:IniFile.obj
 0001:000192d9       ?ReadInteger@CIniFile@Win32@OnlineGameLib@@QAEHPBD0H@Z 0041a2d9 f   common:IniFile.obj
 0001:00019335       ?WriteInteger@CIniFile@Win32@OnlineGameLib@@QAEHPBD0H@Z 0041a335 f   common:IniFile.obj
 0001:00019370       ?ReadHexNum@CIniFile@Win32@OnlineGameLib@@QAEKPBD0K@Z 0041a370 f   common:IniFile.obj
 0001:000193cc       ?WriteHexNum@CIniFile@Win32@OnlineGameLib@@QAEHPBD0K@Z 0041a3cc f   common:IniFile.obj
 0001:00019407       ?ReadString@CIniFile@Win32@OnlineGameLib@@QAEKPBD0PADK0@Z 0041a407 f   common:IniFile.obj
 0001:00019432       ?WriteString@CIniFile@Win32@OnlineGameLib@@QAEHPBD00@Z 0041a432 f   common:IniFile.obj
 0001:00019455       ?ReadSections@CIniFile@Win32@OnlineGameLib@@QAEHAAV?$vector@V?$basic_string@DU?$char_traits@D@std@@V?$allocator@D@2@@std@@V?$allocator@V?$basic_string@DU?$char_traits@D@std@@V?$allocator@D@2@@std@@@2@@std@@@Z 0041a455 f   common:IniFile.obj
 0001:0001954a       ?ReadSection@CIniFile@Win32@OnlineGameLib@@QAEHPBDAAV?$vector@V?$basic_string@DU?$char_traits@D@std@@V?$allocator@D@2@@std@@V?$allocator@V?$basic_string@DU?$char_traits@D@std@@V?$allocator@D@2@@std@@@2@@std@@@Z 0041a54a f   common:IniFile.obj
 0001:00019670       ?size@?$vector@V?$basic_string@DU?$char_traits@D@std@@V?$allocator@D@2@@std@@V?$allocator@V?$basic_string@DU?$char_traits@D@std@@V?$allocator@D@2@@std@@@2@@std@@QBEIXZ 0041a670 f i common:IniFile.obj
 0001:000196b0       ?push_back@?$vector@V?$basic_string@DU?$char_traits@D@std@@V?$allocator@D@2@@std@@V?$allocator@V?$basic_string@DU?$char_traits@D@std@@V?$allocator@D@2@@std@@@2@@std@@QAEXABV?$basic_string@DU?$char_traits@D@std@@V?$allocator@D@2@@2@@Z 0041a6b0 f i common:IniFile.obj
 0001:000196e0       ?clear@?$vector@V?$basic_string@DU?$char_traits@D@std@@V?$allocator@D@2@@std@@V?$allocator@V?$basic_string@DU?$char_traits@D@std@@V?$allocator@D@2@@std@@@2@@std@@QAEXXZ 0041a6e0 f i common:IniFile.obj
 0001:00019710       ?begin@?$vector@V?$basic_string@DU?$char_traits@D@std@@V?$allocator@D@2@@std@@V?$allocator@V?$basic_string@DU?$char_traits@D@std@@V?$allocator@D@2@@std@@@2@@std@@QAEPAV?$basic_string@DU?$char_traits@D@std@@V?$allocator@D@2@@2@XZ 0041a710 f i common:IniFile.obj
 0001:00019730       ?end@?$vector@V?$basic_string@DU?$char_traits@D@std@@V?$allocator@D@2@@std@@V?$allocator@V?$basic_string@DU?$char_traits@D@std@@V?$allocator@D@2@@std@@@2@@std@@QAEPAV?$basic_string@DU?$char_traits@D@std@@V?$allocator@D@2@@2@XZ 0041a730 f i common:IniFile.obj
 0001:00019750       ?insert@?$vector@V?$basic_string@DU?$char_traits@D@std@@V?$allocator@D@2@@std@@V?$allocator@V?$basic_string@DU?$char_traits@D@std@@V?$allocator@D@2@@std@@@2@@std@@QAEPAV?$basic_string@DU?$char_traits@D@std@@V?$allocator@D@2@@2@PAV32@ABV32@@Z 0041a750 f i common:IniFile.obj
 0001:000197a0       ?erase@?$vector@V?$basic_string@DU?$char_traits@D@std@@V?$allocator@D@2@@std@@V?$allocator@V?$basic_string@DU?$char_traits@D@std@@V?$allocator@D@2@@std@@@2@@std@@QAEPAV?$basic_string@DU?$char_traits@D@std@@V?$allocator@D@2@@2@PAV32@0@Z 0041a7a0 f i common:IniFile.obj
 0001:000197f0       ?insert@?$vector@V?$basic_string@DU?$char_traits@D@std@@V?$allocator@D@2@@std@@V?$allocator@V?$basic_string@DU?$char_traits@D@std@@V?$allocator@D@2@@std@@@2@@std@@QAEXPAV?$basic_string@DU?$char_traits@D@std@@V?$allocator@D@2@@2@IABV32@@Z 0041a7f0 f i common:IniFile.obj
 0001:00019a20       ?_Destroy@?$vector@V?$basic_string@DU?$char_traits@D@std@@V?$allocator@D@2@@std@@V?$allocator@V?$basic_string@DU?$char_traits@D@std@@V?$allocator@D@2@@std@@@2@@std@@IAEXPAV?$basic_string@DU?$char_traits@D@std@@V?$allocator@D@2@@2@0@Z 0041aa20 f i common:IniFile.obj
 0001:00019a50       ?_Ucopy@?$vector@V?$basic_string@DU?$char_traits@D@std@@V?$allocator@D@2@@std@@V?$allocator@V?$basic_string@DU?$char_traits@D@std@@V?$allocator@D@2@@std@@@2@@std@@IAEPAV?$basic_string@DU?$char_traits@D@std@@V?$allocator@D@2@@2@PBV32@0PAV32@@Z 0041aa50 f i common:IniFile.obj
 0001:00019a90       ?_Ufill@?$vector@V?$basic_string@DU?$char_traits@D@std@@V?$allocator@D@2@@std@@V?$allocator@V?$basic_string@DU?$char_traits@D@std@@V?$allocator@D@2@@std@@@2@@std@@IAEXPAV?$basic_string@DU?$char_traits@D@std@@V?$allocator@D@2@@2@IABV32@@Z 0041aa90 f i common:IniFile.obj
 0001:00019ad0       ?allocate@?$allocator@V?$basic_string@DU?$char_traits@D@std@@V?$allocator@D@2@@std@@@std@@QAEPAV?$basic_string@DU?$char_traits@D@std@@V?$allocator@D@2@@2@IPBX@Z 0041aad0 f i common:IniFile.obj
 0001:00019af0       ?deallocate@?$allocator@V?$basic_string@DU?$char_traits@D@std@@V?$allocator@D@2@@std@@@std@@QAEXPAXI@Z 0041aaf0 f i common:IniFile.obj
 0001:00019b10       ?destroy@?$allocator@V?$basic_string@DU?$char_traits@D@std@@V?$allocator@D@2@@std@@@std@@QAEXPAV?$basic_string@DU?$char_traits@D@std@@V?$allocator@D@2@@2@@Z 0041ab10 f i common:IniFile.obj
 0001:00019b30       ?construct@?$allocator@V?$basic_string@DU?$char_traits@D@std@@V?$allocator@D@2@@std@@@std@@QAEXPAV?$basic_string@DU?$char_traits@D@std@@V?$allocator@D@2@@2@ABV32@@Z 0041ab30 f i common:IniFile.obj
 0001:00019b50       ?copy@std@@YAPAV?$basic_string@DU?$char_traits@D@std@@V?$allocator@D@2@@1@PAV21@00@Z 0041ab50 f i common:IniFile.obj
 0001:00019b90       ?fill@std@@YAXPAV?$basic_string@DU?$char_traits@D@std@@V?$allocator@D@2@@1@0ABV21@@Z 0041ab90 f i common:IniFile.obj
 0001:00019bc0       ?copy_backward@std@@YAPAV?$basic_string@DU?$char_traits@D@std@@V?$allocator@D@2@@1@PAV21@00@Z 0041abc0 f i common:IniFile.obj
 0001:00019bf0       ?_Allocate@std@@YAPAV?$basic_string@DU?$char_traits@D@std@@V?$allocator@D@2@@1@HPAV21@@Z 0041abf0 f i common:IniFile.obj
 0001:00019c20       ?_Destroy@std@@YAXPAV?$basic_string@DU?$char_traits@D@std@@V?$allocator@D@2@@1@@Z 0041ac20 f i common:IniFile.obj
 0001:00019c30       ?_Construct@std@@YAXPAV?$basic_string@DU?$char_traits@D@std@@V?$allocator@D@2@@1@ABV21@@Z 0041ac30 f i common:IniFile.obj
 0001:00019de9       ?SetLogFileName@Win32@OnlineGameLib@@YAXABV?$basic_string@DU?$char_traits@D@std@@V?$allocator@D@2@@std@@@Z 0041ade9 f   common:Utils.obj
 0001:00019e33       ?Message@Win32@OnlineGameLib@@YAXQBD@Z 0041ae33 f   common:Utils.obj
 0001:00019e59       ?Output@Win32@OnlineGameLib@@YAXABV?$basic_string@DU?$char_traits@D@std@@V?$allocator@D@2@@std@@@Z 0041ae59 f   common:Utils.obj
 0001:00019e5e       ?Trace@Win32@OnlineGameLib@@YAXABV?$basic_string@DU?$char_traits@D@std@@V?$allocator@D@2@@std@@0@Z 0041ae5e f   common:Utils.obj
 0001:00019e63       ?GetLastErrorMessage@Win32@OnlineGameLib@@YA?AV?$basic_string@DU?$char_traits@D@std@@V?$allocator@D@2@@std@@K@Z 0041ae63 f   common:Utils.obj
 0001:00019eec       ?HexToString@Win32@OnlineGameLib@@YA?AV?$basic_string@DU?$char_traits@D@std@@V?$allocator@D@2@@std@@PBEI@Z 0041aeec f   common:Utils.obj
 0001:0001a008       ?StringToHex@Win32@OnlineGameLib@@YAXABV?$basic_string@DU?$char_traits@D@std@@V?$allocator@D@2@@std@@PAEI@Z 0041b008 f   common:Utils.obj
 0001:0001a157       ?HexStringToDWORD@Win32@OnlineGameLib@@YAKPBD@Z 0041b157 f   common:Utils.obj
 0001:0001a211       ?HashStr2ID@Win32@OnlineGameLib@@YAKQBD@Z 0041b211 f   common:Utils.obj
 0001:0001a27c       ?net_aton@Win32@OnlineGameLib@@YAKPBD@Z 0041b27c f   common:Utils.obj
 0001:0001a361       ?net_ntoa@Win32@OnlineGameLib@@YAPBDK@Z 0041b361 f   common:Utils.obj
 0001:0001a3bd       ?GetCurrentDirectoryA@Win32@OnlineGameLib@@YA?AV?$basic_string@DU?$char_traits@D@std@@V?$allocator@D@2@@std@@XZ 0041b3bd f   common:Utils.obj
 0001:0001a4a7       ?GetAppFullPath@Win32@OnlineGameLib@@YA?AV?$basic_string@DU?$char_traits@D@std@@V?$allocator@D@2@@std@@PAUHINSTANCE__@@@Z 0041b4a7 f   common:Utils.obj
 0001:0001a5c1       ?GetDateStamp@Win32@OnlineGameLib@@YA?AV?$basic_string@DU?$char_traits@D@std@@V?$allocator@D@2@@std@@XZ 0041b5c1 f   common:Utils.obj
 0001:0001a634       ?GetTimeStamp@Win32@OnlineGameLib@@YA?AV?$basic_string@DU?$char_traits@D@std@@V?$allocator@D@2@@std@@XZ 0041b634 f   common:Utils.obj
 0001:0001a69b       ?ToHex@Win32@OnlineGameLib@@YA?AV?$basic_string@DU?$char_traits@D@std@@V?$allocator@D@2@@std@@E@Z 0041b69b f   common:Utils.obj
 0001:0001a6e8       ?DumpData@Win32@OnlineGameLib@@YA?AV?$basic_string@DU?$char_traits@D@std@@V?$allocator@D@2@@std@@QBEII@Z 0041b6e8 f   common:Utils.obj
 0001:0001a9e8       ?GetComputerNameA@Win32@OnlineGameLib@@YA?AV?$basic_string@DU?$char_traits@D@std@@V?$allocator@D@2@@std@@XZ 0041b9e8 f   common:Utils.obj
 0001:0001aa97       ?GetModuleFileNameA@Win32@OnlineGameLib@@YA?AV?$basic_string@DU?$char_traits@D@std@@V?$allocator@D@2@@std@@PAUHINSTANCE__@@@Z 0041ba97 f   common:Utils.obj
 0001:0001ab5f       ?GetUserNameA@Win32@OnlineGameLib@@YA?AV?$basic_string@DU?$char_traits@D@std@@V?$allocator@D@2@@std@@XZ 0041bb5f f   common:Utils.obj
 0001:0001ac29       ?StripLeading@Win32@OnlineGameLib@@YA?AV?$basic_string@DU?$char_traits@D@std@@V?$allocator@D@2@@std@@ABV34@D@Z 0041bc29 f   common:Utils.obj
 0001:0001ac7f       ?StripTrailing@Win32@OnlineGameLib@@YA?AV?$basic_string@DU?$char_traits@D@std@@V?$allocator@D@2@@std@@ABV34@D@Z 0041bc7f f   common:Utils.obj
 0001:0001acf8       ?GetFileVersion@Win32@OnlineGameLib@@YA?AV?$basic_string@DU?$char_traits@D@std@@V?$allocator@D@2@@std@@XZ 0041bcf8 f   common:Utils.obj
 0001:0001af65       ?GetLocalName@Win32@OnlineGameLib@@YA_NPADI@Z 0041bf65 f   common:Utils.obj
 0001:0001b02f       ?GetLocalAddress@Win32@OnlineGameLib@@YA_NPADIH@Z 0041c02f f   common:Utils.obj
 0001:0001b1b0       ?T2A@@YAPADPAD@Z           0041c1b0 f i common:Utils.obj
 0001:0001b1c0       ??Y?$basic_string@DU?$char_traits@D@std@@V?$allocator@D@2@@std@@QAEAAV01@ABV01@@Z 0041c1c0 f i common:Utils.obj
 0001:0001b1e0       ??Y?$basic_string@DU?$char_traits@D@std@@V?$allocator@D@2@@std@@QAEAAV01@D@Z 0041c1e0 f i common:Utils.obj
 0001:0001b200       ??A?$basic_string@DU?$char_traits@D@std@@V?$allocator@D@2@@std@@QBEABDI@Z 0041c200 f i common:Utils.obj
 0001:0001b230       ?length@?$basic_string@DU?$char_traits@D@std@@V?$allocator@D@2@@std@@QBEIXZ 0041c230 f i common:Utils.obj
 0001:0001b250       ?substr@?$basic_string@DU?$char_traits@D@std@@V?$allocator@D@2@@std@@QBE?AV12@II@Z 0041c250 f i common:Utils.obj
 0001:0001b290       ??0?$basic_fstream@DU?$char_traits@D@std@@@std@@QAE@XZ 0041c290 f i common:Utils.obj
 0001:0001b340       ??0?$auto_ptr@D@std@@QAE@PAD@Z 0041c340 f i common:Utils.obj
 0001:0001b370       ??1?$auto_ptr@D@std@@QAE@XZ 0041c370 f i common:Utils.obj
 0001:0001b3a0       ?get@?$auto_ptr@D@std@@QBEPADXZ 0041c3a0 f i common:Utils.obj
 0001:0001b3c0       ??0?$auto_ptr@E@std@@QAE@PAE@Z 0041c3c0 f i common:Utils.obj
 0001:0001b3f0       ??1?$auto_ptr@E@std@@QAE@XZ 0041c3f0 f i common:Utils.obj
 0001:0001b420       ?get@?$auto_ptr@E@std@@QBEPAEXZ 0041c420 f i common:Utils.obj
 0001:0001b440       ??0?$basic_string@DU?$char_traits@D@std@@V?$allocator@D@2@@std@@QAE@ABV01@IIABV?$allocator@D@1@@Z 0041c440 f i common:Utils.obj
 0001:0001b480       ?append@?$basic_string@DU?$char_traits@D@std@@V?$allocator@D@2@@std@@QAEAAV12@ABV12@@Z 0041c480 f i common:Utils.obj
 0001:0001b4b0       ?append@?$basic_string@DU?$char_traits@D@std@@V?$allocator@D@2@@std@@QAEAAV12@ABV12@II@Z 0041c4b0 f i common:Utils.obj
 0001:0001b560       ??Hstd@@YA?AV?$basic_string@DU?$char_traits@D@std@@V?$allocator@D@2@@0@ABV10@0@Z 0041c560 f i common:Utils.obj
 0001:0001b5e0       ??0CWin32Exception@Win32@OnlineGameLib@@QAE@ABV?$basic_string@DU?$char_traits@D@std@@V?$allocator@D@2@@std@@K@Z 0041c5e0 f   common:Win32Exception.obj
 0001:0001b690       ??0CException@Win32@OnlineGameLib@@QAE@ABV?$basic_string@DU?$char_traits@D@std@@V?$allocator@D@2@@std@@0@Z 0041c690 f   common:Exception.obj
 0001:0001b6f4       ?GetWhere@CException@Win32@OnlineGameLib@@UBE?AV?$basic_string@DU?$char_traits@D@std@@V?$allocator@D@2@@std@@XZ 0041c6f4 f   common:Exception.obj
 0001:0001b725       ?GetMessageA@CException@Win32@OnlineGameLib@@UBE?AV?$basic_string@DU?$char_traits@D@std@@V?$allocator@D@2@@std@@XZ 0041c725 f   common:Exception.obj
 0001:0001b756       ?MessageBoxA@CException@Win32@OnlineGameLib@@QBEXPAUHWND__@@@Z 0041c756 f   common:Exception.obj
 0001:0001b820       ??0CNodeList@OnlineGameLib@@QAE@XZ 0041c820 f   common:NodeList.obj
 0001:0001b841       ?PushNode@CNodeList@OnlineGameLib@@QAEXPAVNode@12@@Z 0041c841 f   common:NodeList.obj
 0001:0001b87f       ?PopNode@CNodeList@OnlineGameLib@@QAEPAVNode@12@XZ 0041c87f f   common:NodeList.obj
 0001:0001b8a9       ?RemoveNode@CNodeList@OnlineGameLib@@AAEXPAVNode@12@@Z 0041c8a9 f   common:NodeList.obj
 0001:0001b8e4       ??0Node@CNodeList@OnlineGameLib@@IAE@XZ 0041c8e4 f   common:NodeList.obj
 0001:0001b90f       ??1Node@CNodeList@OnlineGameLib@@IAE@XZ 0041c90f f   common:NodeList.obj
 0001:0001b9a2       ?AddToList@Node@CNodeList@OnlineGameLib@@QAEXPAV23@@Z 0041c9a2 f   common:NodeList.obj
 0001:0001b9b8       ?RemoveFromList@Node@CNodeList@OnlineGameLib@@QAEXXZ 0041c9b8 f   common:NodeList.obj
 0001:0001b9db       ?Unlink@Node@CNodeList@OnlineGameLib@@AAEXXZ 0041c9db f   common:NodeList.obj
 0001:0001ba30       ?Next@Node@CNodeList@OnlineGameLib@@QAEXPAV123@@Z 0041ca30 f i common:NodeList.obj
 0001:0001ba60       ?Next@Node@CNodeList@OnlineGameLib@@QBEPAV123@XZ 0041ca60 f i common:NodeList.obj
 0001:0001ba70       _db_env_create             0041ca70 f   libdb41s:env_method.obj
 0001:0001c170       ___db_mi_env               0041d170 f   libdb41s:env_method.obj
 0001:0001c190       ___db_mi_open              0041d190 f   libdb41s:env_method.obj
 0001:0001c1c0       ___db_env_config           0041d1c0 f   libdb41s:env_method.obj
 0001:0001c250       _db_create                 0041d250 f   libdb41s:db_method.obj
 0001:0001c550       ___dbh_am_chk              0041d550 f   libdb41s:db_method.obj
 0001:0001ca30       ___db_set_lorder           0041da30 f   libdb41s:db_method.obj
 0001:0001cc10       ___os_umalloc              0041dc10 f   libdb41s:os_alloc.obj
 0001:0001ccc0       ___os_urealloc             0041dcc0 f   libdb41s:os_alloc.obj
 0001:0001cd80       ___os_ufree                0041dd80 f   libdb41s:os_alloc.obj
 0001:0001cdd0       ___os_strdup               0041ddd0 f   libdb41s:os_alloc.obj
 0001:0001ce30       ___os_calloc               0041de30 f   libdb41s:os_alloc.obj
 0001:0001ce80       ___os_malloc               0041de80 f   libdb41s:os_alloc.obj
 0001:0001cf00       ___os_realloc              0041df00 f   libdb41s:os_alloc.obj
 0001:0001cf90       ___os_free                 0041df90 f   libdb41s:os_alloc.obj
 0001:0001cfb0       ___ua_memcpy               0041dfb0 f   libdb41s:os_alloc.obj
 0001:0001cfe0       ___txn_dbenv_create        0041dfe0 f   libdb41s:txn_method.obj
 0001:0001d090       ___rep_dbenv_create        0041e090 f   libdb41s:rep_method.obj
 0001:0001e5f0       ___memp_dbenv_create       0041f5f0 f   libdb41s:mp_method.obj
 0001:0001e740       ___lock_dbenv_create       0041f740 f   libdb41s:lock_method.obj
 0001:0001e800       ___lock_dbenv_close        0041f800 f   libdb41s:lock_method.obj
 0001:0001ea30       ___log_dbenv_create        0041fa30 f   libdb41s:log_method.obj
 0001:0001ec20       _db_version                0041fc20 f   libdb41s:env_open.obj
 0001:0001ec50       ___dbenv_open              0041fc50 f   libdb41s:env_open.obj
 0001:0001f0e0       ___dbenv_remove            004200e0 f   libdb41s:env_open.obj
 0001:0001f350       ___dbenv_close             00420350 f   libdb41s:env_open.obj
 0001:0001f610       ___db_appname              00420610 f   libdb41s:env_open.obj
 0001:0001f900       ___db_home                 00420900 f   libdb41s:env_open.obj
 0001:00020750       ___dbenv_dbrename          00421750 f   libdb41s:db_rename.obj
 0001:000208b0       ___db_rename               004218b0 f   libdb41s:db_rename.obj
 0001:00020970       ___db_rename_i             00421970 f   libdb41s:db_rename.obj
 0001:00020bb0       ___dbenv_dbremove          00421bb0 f   libdb41s:db_remove.obj
 0001:00020d10       ___db_remove               00421d10 f   libdb41s:db_remove.obj
 0001:00020dc0       ___db_remove_i             00421dc0 f   libdb41s:db_remove.obj
 0001:00021070       ___db_fchk                 00422070 f   libdb41s:db_err.obj
 0001:000210a0       ___db_fcchk                004220a0 f   libdb41s:db_err.obj
 0001:000210d0       ___db_ferr                 004220d0 f   libdb41s:db_err.obj
 0001:00021100       ___db_pgerr                00422100 f   libdb41s:db_err.obj
 0001:00021130       ___db_pgfmt                00422130 f   libdb41s:db_err.obj
 0001:00021160       ___db_eopnotsup            00422160 f   libdb41s:db_err.obj
 0001:00021180       ___db_panic_msg            00422180 f   libdb41s:db_err.obj
 0001:000211a0       ___db_panic                004221a0 f   libdb41s:db_err.obj
 0001:000211f0       _db_strerror               004221f0 f   libdb41s:db_err.obj
 0001:00021300       ___db_err                  00422300 f   libdb41s:db_err.obj
 0001:00021350       ___db_errcall              00422350 f   libdb41s:db_err.obj
 0001:00021410       ___db_errfile              00422410 f   libdb41s:db_err.obj
 0001:000214a0       ___db_logmsg               004224a0 f   libdb41s:db_err.obj
 0001:00021550       ___db_unknown_flag         00422550 f   libdb41s:db_err.obj
 0001:00021580       ___db_unknown_type         00422580 f   libdb41s:db_err.obj
 0001:000215b0       ___db_check_txn            004225b0 f   libdb41s:db_err.obj
 0001:000216c0       ___db_not_txn_env          004226c0 f   libdb41s:db_err.obj
 0001:000216e0       ___db_xa_create            004226e0 f   libdb41s:xa_db.obj
 0001:00021900       ___qam_db_create           00422900 f   libdb41s:qam_method.obj
 0001:00021940       ___qam_db_close            00422940 f   libdb41s:qam_method.obj
 0001:00021a60       ___db_prqueue              00422a60 f   libdb41s:qam_method.obj
 0001:00021be0       ___qam_remove              00422be0 f   libdb41s:qam_method.obj
 0001:00021e40       ___qam_rename              00422e40 f   libdb41s:qam_method.obj
 0001:00022090       ___ham_db_create           00423090 f   libdb41s:hash_method.obj
 0001:000220e0       ___ham_db_close            004230e0 f   libdb41s:hash_method.obj
 0001:00022200       ___bam_db_create           00423200 f   libdb41s:bt_method.obj
 0001:000222c0       ___bam_db_close            004232c0 f   libdb41s:bt_method.obj
 0001:00022310       ___bam_set_flags           00423310 f   libdb41s:bt_method.obj
 0001:00022590       ___ram_set_flags           00423590 f   libdb41s:bt_method.obj
 0001:00022790       ___db_verify               00423790 f   libdb41s:db_vrfy.obj
 0001:000227c0       ___db_verify_callback      004237c0 f   libdb41s:db_vrfy.obj
 0001:00022800       ___db_verify_internal      00423800 f   libdb41s:db_vrfy.obj
 0001:000239c0       ___db_vrfy_datapage        004249c0 f   libdb41s:db_vrfy.obj
 0001:00023bb0       ___db_vrfy_meta            00424bb0 f   libdb41s:db_vrfy.obj
 0001:00024180       ___db_vrfy_struct_feedback 00425180 f   libdb41s:db_vrfy.obj
 0001:00024910       ___db_vrfy_inpitem         00425910 f   libdb41s:db_vrfy.obj
 0001:00024ad0       ___db_vrfy_duptype         00425ad0 f   libdb41s:db_vrfy.obj
 0001:00024c00       ___db_salvage_duptree      00425c00 f   libdb41s:db_vrfy.obj
 0001:00025530       ___db_upgrade              00426530 f   libdb41s:db_upg.obj
 0001:00025ab0       ___db_lastpgno             00426ab0 f   libdb41s:db_upg.obj
 0001:00025b50       ___db_cursor               00426b50 f   libdb41s:db_am.obj
 0001:00025cb0       ___db_icursor              00426cb0 f   libdb41s:db_am.obj
 0001:00026100       ___db_fd                   00427100 f   libdb41s:db_am.obj
 0001:000261a0       ___db_get                  004271a0 f   libdb41s:db_am.obj
 0001:000262e0       ___db_put                  004272e0 f   libdb41s:db_am.obj
 0001:00026600       ___db_delete               00427600 f   libdb41s:db_am.obj
 0001:00026880       ___db_sync                 00427880 f   libdb41s:db_am.obj
 0001:00026940       ___db_associate            00427940 f   libdb41s:db_am.obj
 0001:00026e30       ___db_pget                 00427e30 f   libdb41s:db_am.obj
 0001:00027320       ___db_truncate             00428320 f   libdb41s:db_truncate.obj
 0001:00027470       ___db_master_open          00428470 f   libdb41s:db.obj
 0001:00027570       ___db_master_update        00428570 f   libdb41s:db.obj
 0001:00027a20       ___db_dbenv_setup          00428a20 f   libdb41s:db.obj
 0001:00027d90       ___db_close                00428d90 f   libdb41s:db.obj
 0001:00027df0       ___db_close_i              00428df0 f   libdb41s:db.obj
 0001:00027ec0       ___db_refresh              00428ec0 f   libdb41s:db.obj
 0001:00028280       ___db_log_page             00429280 f   libdb41s:db.obj
 0001:00028300       ___db_backup_name          00429300 f   libdb41s:db.obj
 0001:00028440       ___dblist_get              00429440 f   libdb41s:db.obj
 0001:00028520       ___db_open                 00429520 f   libdb41s:db_open.obj
 0001:00028760       ___db_dbopen               00429760 f   libdb41s:db_open.obj
 0001:000289a0       ___db_new_file             004299a0 f   libdb41s:db_open.obj
 0001:00028a50       ___db_init_subdb           00429a50 f   libdb41s:db_open.obj
 0001:00028b50       ___db_chk_meta             00429b50 f   libdb41s:db_open.obj
 0001:00028bb0       ___db_meta_setup           00429bb0 f   libdb41s:db_open.obj
 0001:00028ff0       ___db_join                 00429ff0 f   libdb41s:db_join.obj
 0001:00029c10       ___db_isbigendian          0042ac10 f   libdb41s:db_byteorder.obj
 0001:00029c20       ___db_byteorder            0042ac20 f   libdb41s:db_byteorder.obj
 0001:00029c70       ___os_get_errno            0042ac70 f   libdb41s:os_errno.obj
 0001:00029c80       ___os_set_errno            0042ac80 f   libdb41s:os_errno.obj
 0001:00029c90       ___os_win32_errno          0042ac90 f   libdb41s:os_errno.obj
 0001:00029d60       _txn_abort                 0042ad60 f   libdb41s:txn.obj
 0001:00029d70       _txn_begin                 0042ad70 f   libdb41s:txn.obj
 0001:00029d90       _txn_commit                0042ad90 f   libdb41s:txn.obj
 0001:00029db0       ___txn_begin               0042adb0 f   libdb41s:txn.obj
 0001:00029fc0       ___txn_xa_begin            0042afc0 f   libdb41s:txn.obj
 0001:0002a030       ___txn_compensate_begin    0042b030 f   libdb41s:txn.obj
 0001:0002a490       ___txn_commit              0042b490 f   libdb41s:txn.obj
 0001:0002a740       ___txn_abort               0042b740 f   libdb41s:txn.obj
 0001:0002a930       ___txn_discard             0042b930 f   libdb41s:txn.obj
 0001:0002aa00       ___txn_prepare             0042ba00 f   libdb41s:txn.obj
 0001:0002abc0       ___txn_id                  0042bbc0 f   libdb41s:txn.obj
 0001:0002b190       ___txn_checkpoint          0042c190 f   libdb41s:txn.obj
 0001:0002b430       ___txn_getckp              0042c430 f   libdb41s:txn.obj
 0001:0002b490       ___txn_activekids          0042c490 f   libdb41s:txn.obj
 0001:0002b4d0       ___txn_force_abort         0042c4d0 f   libdb41s:txn.obj
 0001:0002b5c0       ___txn_preclose            0042c5c0 f   libdb41s:txn.obj
 0001:0002b650       ___txn_reset               0042c650 f   libdb41s:txn.obj
 0001:0002b690       ___txn_updateckp           0042c690 f   libdb41s:txn.obj
 0001:0002b700       ___txn_stat                0042c700 f   libdb41s:txn_stat.obj
 0001:0002b8f0       ___txn_continue            0042c8f0 f   libdb41s:txn_recover.obj
 0001:0002b950       ___txn_map_gid             0042c950 f   libdb41s:txn_recover.obj
 0001:0002ba00       ___txn_recover             0042ca00 f   libdb41s:txn_recover.obj
 0001:0002ba90       ___txn_get_prepared        0042ca90 f   libdb41s:txn_recover.obj
 0001:0002bef0       ___rep_process_message     0042cef0 f   libdb41s:rep_record.obj
 0001:0002dcd0       ___rep_process_txn         0042ecd0 f   libdb41s:rep_record.obj
 0001:0002e1a0       ___rep_check_alloc         0042f1a0 f   libdb41s:rep_util.obj
 0001:0002e200       ___rep_send_message        0042f200 f   libdb41s:rep_util.obj
 0001:0002e310       ___rep_new_master          0042f310 f   libdb41s:rep_util.obj
 0001:0002e570       ___rep_lockpgno_init       0042f570 f   libdb41s:rep_util.obj
 0001:0002e610       ___rep_unlockpages         0042f610 f   libdb41s:rep_util.obj
 0001:0002e640       ___rep_lockpages           0042f640 f   libdb41s:rep_util.obj
 0001:0002eaa0       ___rep_is_client           0042faa0 f   libdb41s:rep_util.obj
 0001:0002eaf0       ___rep_send_vote           0042faf0 f   libdb41s:rep_util.obj
 0001:0002eb60       ___rep_grow_sites          0042fb60 f   libdb41s:rep_util.obj
 0001:0002ec10       ___db_win32_mutex_init     0042fc10 f   libdb41s:mut_win32.obj
 0001:0002ec90       ___db_win32_mutex_lock     0042fc90 f   libdb41s:mut_win32.obj
 0001:0002ed70       ___db_win32_mutex_unlock   0042fd70 f   libdb41s:mut_win32.obj
 0001:0002ee00       ___db_win32_mutex_destroy  0042fe00 f   libdb41s:mut_win32.obj
 0001:0002ee10       ___rep_region_init         0042fe10 f   libdb41s:rep_region.obj
 0001:0002ef80       ___rep_region_destroy      0042ff80 f   libdb41s:rep_region.obj
 0001:0002efd0       ___rep_dbenv_close         0042ffd0 f   libdb41s:rep_region.obj
 0001:0002f000       ___rep_preclose            00430000 f   libdb41s:rep_region.obj
 0001:0002f090       ___dbreg_add_dbentry       00430090 f   libdb41s:dbreg_util.obj
 0001:0002f150       ___dbreg_rem_dbentry       00430150 f   libdb41s:dbreg_util.obj
 0001:0002f1b0       ___dbreg_open_files        004301b0 f   libdb41s:dbreg_util.obj
 0001:0002f2b0       ___dbreg_close_files       004302b0 f   libdb41s:dbreg_util.obj
 0001:0002f3b0       ___dbreg_nofiles           004303b0 f   libdb41s:dbreg_util.obj
 0001:0002f430       ___dbreg_id_to_db          00430430 f   libdb41s:dbreg_util.obj
 0001:0002f460       ___dbreg_id_to_db_int      00430460 f   libdb41s:dbreg_util.obj
 0001:0002f570       ___dbreg_id_to_fname       00430570 f   libdb41s:dbreg_util.obj
 0001:0002f5f0       ___dbreg_fid_to_fname      004305f0 f   libdb41s:dbreg_util.obj
 0001:0002f690       ___dbreg_get_name          00430690 f   libdb41s:dbreg_util.obj
 0001:0002f6e0       ___dbreg_do_open           004306e0 f   libdb41s:dbreg_util.obj
 0001:0002f900       ___dbreg_lazy_id           00430900 f   libdb41s:dbreg_util.obj
 0001:0002f960       ___dbreg_push_id           00430960 f   libdb41s:dbreg_util.obj
 0001:0002fa80       ___dbreg_pop_id            00430a80 f   libdb41s:dbreg_util.obj
 0001:0002fad0       ___dbreg_pluck_id          00430ad0 f   libdb41s:dbreg_util.obj
 0001:0002fb30       ___db_dispatch             00430b30 f   libdb41s:db_dispatch.obj
 0001:0002fe30       ___db_add_recovery         00430e30 f   libdb41s:db_dispatch.obj
 0001:0002fe90       ___db_txnlist_init         00430e90 f   libdb41s:db_dispatch.obj
 0001:0002fff0       ___db_txnlist_add          00430ff0 f   libdb41s:db_dispatch.obj
 0001:000300c0       ___db_txnlist_remove       004310c0 f   libdb41s:db_dispatch.obj
 0001:000300f0       ___db_txnlist_ckp          004310f0 f   libdb41s:db_dispatch.obj
 0001:00030130       ___db_txnlist_end          00431130 f   libdb41s:db_dispatch.obj
 0001:000301d0       ___db_txnlist_find         004311d0 f   libdb41s:db_dispatch.obj
 0001:00030200       ___db_txnlist_update       00431200 f   libdb41s:db_dispatch.obj
 0001:000303e0       ___db_txnlist_gen          004313e0 f   libdb41s:db_dispatch.obj
 0001:00030480       ___db_txnlist_lsnadd       00431480 f   libdb41s:db_dispatch.obj
 0001:000305b0       ___db_txnlist_lsninit      004315b0 f   libdb41s:db_dispatch.obj
 0001:00030670       ___db_add_limbo            00431670 f   libdb41s:db_dispatch.obj
 0001:00030700       ___db_do_the_limbo         00431700 f   libdb41s:db_dispatch.obj
 0001:000310b0       ___txn_regop_log           004320b0 f   libdb41s:txn_auto.obj
 0001:000311f0       ___txn_regop_getpgnos      004321f0 f   libdb41s:txn_auto.obj
 0001:00031270       ___txn_regop_print         00432270 f   libdb41s:txn_auto.obj
 0001:00031300       ___txn_regop_read          00432300 f   libdb41s:txn_auto.obj
 0001:00031380       ___txn_ckp_log             00432380 f   libdb41s:txn_auto.obj
 0001:000314f0       ___txn_ckp_getpgnos        004324f0 f   libdb41s:txn_auto.obj
 0001:00031570       ___txn_ckp_print           00432570 f   libdb41s:txn_auto.obj
 0001:00031620       ___txn_ckp_read            00432620 f   libdb41s:txn_auto.obj
 0001:000316c0       ___txn_child_log           004326c0 f   libdb41s:txn_auto.obj
 0001:00031810       ___txn_child_getpgnos      00432810 f   libdb41s:txn_auto.obj
 0001:00031890       ___txn_child_print         00432890 f   libdb41s:txn_auto.obj
 0001:00031920       ___txn_child_read          00432920 f   libdb41s:txn_auto.obj
 0001:000319b0       ___txn_xa_regop_log        004329b0 f   libdb41s:txn_auto.obj
 0001:00031b50       ___txn_xa_regop_getpgnos   00432b50 f   libdb41s:txn_auto.obj
 0001:00031bd0       ___txn_xa_regop_print      00432bd0 f   libdb41s:txn_auto.obj
 0001:00031d20       ___txn_xa_regop_read       00432d20 f   libdb41s:txn_auto.obj
 0001:00031e00       ___txn_recycle_log         00432e00 f   libdb41s:txn_auto.obj
 0001:00031f40       ___txn_recycle_getpgnos    00432f40 f   libdb41s:txn_auto.obj
 0001:00031fc0       ___txn_recycle_print       00432fc0 f   libdb41s:txn_auto.obj
 0001:00032050       ___txn_recycle_read        00433050 f   libdb41s:txn_auto.obj
 0001:000320d0       ___txn_init_print          004330d0 f   libdb41s:txn_auto.obj
 0001:00032150       ___txn_init_getpgnos       00433150 f   libdb41s:txn_auto.obj
 0001:000321d0       ___txn_init_recover        004331d0 f   libdb41s:txn_auto.obj
 0001:00032250       ___txn_regop_recover       00433250 f   libdb41s:txn_rec.obj
 0001:000323c0       ___txn_xa_regop_recover    004333c0 f   libdb41s:txn_rec.obj
 0001:00032520       ___txn_ckp_recover         00433520 f   libdb41s:txn_rec.obj
 0001:00032580       ___txn_child_recover       00433580 f   libdb41s:txn_rec.obj
 0001:00032700       ___txn_restore_txn         00433700 f   libdb41s:txn_rec.obj
 0001:000328d0       ___txn_recycle_recover     004338d0 f   libdb41s:txn_rec.obj
 0001:00032940       _log_compare               00433940 f   libdb41s:log_compare.obj
 0001:00032970       ___os_clock                00433970 f   libdb41s:os_clock.obj
 0001:000329c0       ___os_id                   004339c0 f   libdb41s:os_id.obj
 0001:000329d0       ___os_sleep                004339d0 f   libdb41s:os_sleep.obj
 0001:00032a30       ___memp_trickle            00433a30 f   libdb41s:mp_trickle.obj
 0001:00032b90       ___memp_sync               00433b90 f   libdb41s:mp_sync.obj
 0001:00032cf0       ___memp_fsync              00433cf0 f   libdb41s:mp_sync.obj
 0001:00032d50       ___mp_xxx_fh               00433d50 f   libdb41s:mp_sync.obj
 0001:00032d80       ___memp_sync_int           00433d80 f   libdb41s:mp_sync.obj
 0001:000335b0       ___memp_stat               004345b0 f   libdb41s:mp_stat.obj
 0001:00033af0       ___memp_dump_region        00434af0 f   libdb41s:mp_stat.obj
 0001:00034040       ___memp_stat_hash          00435040 f   libdb41s:mp_stat.obj
 0001:000340f0       ___memp_register           004350f0 f   libdb41s:mp_register.obj
 0001:00034250       ___memp_open               00435250 f   libdb41s:mp_region.obj
 0001:000348a0       ___memp_dbenv_refresh      004358a0 f   libdb41s:mp_region.obj
 0001:00034980       ___mpool_region_destroy    00435980 f   libdb41s:mp_region.obj
 0001:00034990       ___memp_nameop             00435990 f   libdb41s:mp_region.obj
 0001:00034b50       ___memp_fcreate            00435b50 f   libdb41s:mp_fopen.obj
 0001:00034fb0       ___memp_fopen_int          00435fb0 f   libdb41s:mp_fopen.obj
 0001:00035990       ___memp_fclose_int         00436990 f   libdb41s:mp_fopen.obj
 0001:00035bf0       ___memp_mf_discard         00436bf0 f   libdb41s:mp_fopen.obj
 0001:00035dd0       ___memp_fn                 00436dd0 f   libdb41s:mp_fopen.obj
 0001:00035df0       ___memp_fns                00436df0 f   libdb41s:mp_fopen.obj
 0001:00035e10       ___lock_id                 00436e10 f   libdb41s:lock.obj
 0001:00035fa0       ___lock_id_free            00436fa0 f   libdb41s:lock.obj
 0001:00036090       ___lock_vec                00437090 f   libdb41s:lock.obj
 0001:00036760       ___lock_get                00437760 f   libdb41s:lock.obj
 0001:000372f0       ___lock_put                004382f0 f   libdb41s:lock.obj
 0001:00037460       ___lock_downgrade          00438460 f   libdb41s:lock.obj
 0001:000379d0       ___lock_addfamilylocker    004389d0 f   libdb41s:lock.obj
 0001:00037b10       ___lock_freefamilylocker   00438b10 f   libdb41s:lock.obj
 0001:00037cd0       ___lock_set_timeout        00438cd0 f   libdb41s:lock.obj
 0001:00037de0       ___lock_inherit_timeout    00438de0 f   libdb41s:lock.obj
 0001:00037ee0       ___lock_getlocker          00438ee0 f   libdb41s:lock.obj
 0001:000382b0       ___lock_promote            004392b0 f   libdb41s:lock.obj
 0001:00038600       ___lock_expired            00439600 f   libdb41s:lock.obj
 0001:00038760       ___lock_stat               00439760 f   libdb41s:lock_stat.obj
 0001:00038910       ___lock_dump_region        00439910 f   libdb41s:lock_stat.obj
 0001:00038e00       ___lock_printlock          00439e00 f   libdb41s:lock_stat.obj
 0001:00038fe0       ___lock_detect             00439fe0 f   libdb41s:lock_deadlock.obj
 0001:0003a100       ___log_open                0043b100 f   libdb41s:log.obj
 0001:0003a650       ___log_find                0043b650 f   libdb41s:log.obj
 0001:0003a880       ___log_valid               0043b880 f   libdb41s:log.obj
 0001:0003ab30       ___log_dbenv_refresh       0043bb30 f   libdb41s:log.obj
 0001:0003abd0       ___log_stat                0043bbd0 f   libdb41s:log.obj
 0001:0003ad70       ___log_get_cached_ckp_lsn  0043bd70 f   libdb41s:log.obj
 0001:0003add0       ___log_region_destroy      0043bdd0 f   libdb41s:log.obj
 0001:0003ade0       ___log_vtruncate           0043bde0 f   libdb41s:log.obj
 0001:0003b020       ___log_is_outdated         0043c020 f   libdb41s:log.obj
 0001:0003b230       ___log_put                 0043c230 f   libdb41s:log_put.obj
 0001:0003b5c0       ___log_txn_lsn             0043c5c0 f   libdb41s:log_put.obj
 0001:0003b7d0       ___log_newfile             0043c7d0 f   libdb41s:log_put.obj
 0001:0003bb10       ___log_flush               0043cb10 f   libdb41s:log_put.obj
 0001:0003c470       ___log_file                0043d470 f   libdb41s:log_put.obj
 0001:0003c610       ___log_name                0043d610 f   libdb41s:log_put.obj
 0001:0003c750       ___log_rep_put             0043d750 f   libdb41s:log_put.obj
 0001:0003c8d0       ___log_cursor              0043d8d0 f   libdb41s:log_get.obj
 0001:0003d8b0       ___log_archive             0043e8b0 f   libdb41s:log_archive.obj
 0001:0003e470       ___db_mutex_setup          0043f470 f   libdb41s:mutex.obj
 0001:0003e530       ___db_mutex_free           0043f530 f   libdb41s:mutex.obj
 0001:0003e540       ___db_apprec               0043f540 f   libdb41s:env_recover.obj
 0001:0003f380       ___env_openfiles           00440380 f   libdb41s:env_recover.obj
 0001:0003f490       ___qam_incfirst_log        00440490 f   libdb41s:qam_auto.obj
 0001:0003f5f0       ___qam_incfirst_getpgnos   004405f0 f   libdb41s:qam_auto.obj
 0001:0003f710       ___qam_incfirst_print      00440710 f   libdb41s:qam_auto.obj
 0001:0003f7b0       ___qam_incfirst_read       004407b0 f   libdb41s:qam_auto.obj
 0001:0003f840       ___qam_mvptr_log           00440840 f   libdb41s:qam_auto.obj
 0001:0003f9e0       ___qam_mvptr_getpgnos      004409e0 f   libdb41s:qam_auto.obj
 0001:0003fb00       ___qam_mvptr_print         00440b00 f   libdb41s:qam_auto.obj
 0001:0003fc00       ___qam_mvptr_read          00440c00 f   libdb41s:qam_auto.obj
 0001:0003fce0       ___qam_del_log             00440ce0 f   libdb41s:qam_auto.obj
 0001:0003fe70       ___qam_del_getpgnos        00440e70 f   libdb41s:qam_auto.obj
 0001:0003ff90       ___qam_del_print           00440f90 f   libdb41s:qam_auto.obj
 0001:00040060       ___qam_del_read            00441060 f   libdb41s:qam_auto.obj
 0001:00040110       ___qam_add_log             00441110 f   libdb41s:qam_auto.obj
 0001:00040310       ___qam_add_getpgnos        00441310 f   libdb41s:qam_auto.obj
 0001:00040430       ___qam_add_print           00441430 f   libdb41s:qam_auto.obj
 0001:00040610       ___qam_add_read            00441610 f   libdb41s:qam_auto.obj
 0001:00040730       ___qam_delext_log          00441730 f   libdb41s:qam_auto.obj
 0001:000408f0       ___qam_delext_getpgnos     004418f0 f   libdb41s:qam_auto.obj
 0001:00040970       ___qam_delext_print        00441970 f   libdb41s:qam_auto.obj
 0001:00040ac0       ___qam_delext_read         00441ac0 f   libdb41s:qam_auto.obj
 0001:00040ba0       ___qam_init_print          00441ba0 f   libdb41s:qam_auto.obj
 0001:00040c20       ___qam_init_getpgnos       00441c20 f   libdb41s:qam_auto.obj
 0001:00040ca0       ___qam_init_recover        00441ca0 f   libdb41s:qam_auto.obj
 0001:00040d20       ___ham_insdel_log          00441d20 f   libdb41s:hash_auto.obj
 0001:00040f30       ___ham_insdel_getpgnos     00441f30 f   libdb41s:hash_auto.obj
 0001:00041050       ___ham_insdel_print        00442050 f   libdb41s:hash_auto.obj
 0001:00041220       ___ham_insdel_read         00442220 f   libdb41s:hash_auto.obj
 0001:00041330       ___ham_newpage_log         00442330 f   libdb41s:hash_auto.obj
 0001:00041510       ___ham_newpage_getpgnos    00442510 f   libdb41s:hash_auto.obj
 0001:00041760       ___ham_newpage_print       00442760 f   libdb41s:hash_auto.obj
 0001:00041870       ___ham_newpage_read        00442870 f   libdb41s:hash_auto.obj
 0001:00041960       ___ham_splitdata_log       00442960 f   libdb41s:hash_auto.obj
 0001:00041b20       ___ham_splitdata_getpgnos  00442b20 f   libdb41s:hash_auto.obj
 0001:00041c40       ___ham_splitdata_print     00442c40 f   libdb41s:hash_auto.obj
 0001:00041d80       ___ham_splitdata_read      00442d80 f   libdb41s:hash_auto.obj
 0001:00041e60       ___ham_replace_log         00442e60 f   libdb41s:hash_auto.obj
 0001:00042070       ___ham_replace_getpgnos    00443070 f   libdb41s:hash_auto.obj
 0001:00042190       ___ham_replace_print       00443190 f   libdb41s:hash_auto.obj
 0001:00042380       ___ham_replace_read        00443380 f   libdb41s:hash_auto.obj
 0001:000424a0       ___ham_copypage_log        004434a0 f   libdb41s:hash_auto.obj
 0001:000426a0       ___ham_copypage_getpgnos   004436a0 f   libdb41s:hash_auto.obj
 0001:000428d0       ___ham_copypage_print      004438d0 f   libdb41s:hash_auto.obj
 0001:00042a50       ___ham_copypage_read       00443a50 f   libdb41s:hash_auto.obj
 0001:00042b60       ___ham_metagroup_log       00443b60 f   libdb41s:hash_auto.obj
 0001:00042d40       ___ham_metagroup_getpgnos  00443d40 f   libdb41s:hash_auto.obj
 0001:00042f80       ___ham_metagroup_print     00443f80 f   libdb41s:hash_auto.obj
 0001:000430a0       ___ham_metagroup_read      004440a0 f   libdb41s:hash_auto.obj
 0001:000431a0       ___ham_groupalloc_log      004441a0 f   libdb41s:hash_auto.obj
 0001:00043330       ___ham_groupalloc_getpgnos 00444330 f   libdb41s:hash_auto.obj
 0001:00043450       ___ham_groupalloc_print    00444450 f   libdb41s:hash_auto.obj
 0001:00043520       ___ham_groupalloc_read     00444520 f   libdb41s:hash_auto.obj
 0001:000435d0       ___ham_curadj_log          004445d0 f   libdb41s:hash_auto.obj
 0001:00043760       ___ham_curadj_getpgnos     00444760 f   libdb41s:hash_auto.obj
 0001:000437e0       ___ham_curadj_print        004447e0 f   libdb41s:hash_auto.obj
 0001:000438e0       ___ham_curadj_read         004448e0 f   libdb41s:hash_auto.obj
 0001:000439b0       ___ham_chgpg_log           004449b0 f   libdb41s:hash_auto.obj
 0001:00043b30       ___ham_chgpg_getpgnos      00444b30 f   libdb41s:hash_auto.obj
 0001:00043bb0       ___ham_chgpg_print         00444bb0 f   libdb41s:hash_auto.obj
 0001:00043c90       ___ham_chgpg_read          00444c90 f   libdb41s:hash_auto.obj
 0001:00043d50       ___ham_init_print          00444d50 f   libdb41s:hash_auto.obj
 0001:00043e40       ___ham_init_getpgnos       00444e40 f   libdb41s:hash_auto.obj
 0001:00043f30       ___ham_init_recover        00444f30 f   libdb41s:hash_auto.obj
 0001:00044020       ___fop_create_log          00445020 f   libdb41s:fileops_auto.obj
 0001:00044190       ___fop_create_getpgnos     00445190 f   libdb41s:fileops_auto.obj
 0001:00044210       ___fop_create_print        00445210 f   libdb41s:fileops_auto.obj
 0001:00044320       ___fop_create_read         00445320 f   libdb41s:fileops_auto.obj
 0001:000443d0       ___fop_remove_log          004453d0 f   libdb41s:fileops_auto.obj
 0001:00044590       ___fop_remove_getpgnos     00445590 f   libdb41s:fileops_auto.obj
 0001:00044610       ___fop_remove_print        00445610 f   libdb41s:fileops_auto.obj
 0001:00044790       ___fop_remove_read         00445790 f   libdb41s:fileops_auto.obj
 0001:00044860       ___fop_write_log           00445860 f   libdb41s:fileops_auto.obj
 0001:00044a30       ___fop_write_getpgnos      00445a30 f   libdb41s:fileops_auto.obj
 0001:00044ab0       ___fop_write_print         00445ab0 f   libdb41s:fileops_auto.obj
 0001:00044c60       ___fop_write_read          00445c60 f   libdb41s:fileops_auto.obj
 0001:00044d40       ___fop_rename_log          00445d40 f   libdb41s:fileops_auto.obj
 0001:00044f50       ___fop_rename_getpgnos     00445f50 f   libdb41s:fileops_auto.obj
 0001:00044fd0       ___fop_rename_print        00445fd0 f   libdb41s:fileops_auto.obj
 0001:000451d0       ___fop_rename_read         004461d0 f   libdb41s:fileops_auto.obj
 0001:000452d0       ___fop_file_remove_log     004462d0 f   libdb41s:fileops_auto.obj
 0001:000454e0       ___fop_file_remove_getpgnos 004464e0 f   libdb41s:fileops_auto.obj
 0001:00045560       ___fop_file_remove_print   00446560 f   libdb41s:fileops_auto.obj
 0001:00045770       ___fop_file_remove_read    00446770 f   libdb41s:fileops_auto.obj
 0001:00045870       ___fop_init_print          00446870 f   libdb41s:fileops_auto.obj
 0001:00045900       ___fop_init_getpgnos       00446900 f   libdb41s:fileops_auto.obj
 0001:00045990       ___fop_init_recover        00446990 f   libdb41s:fileops_auto.obj
 0001:00045a20       ___dbreg_register_log      00446a20 f   libdb41s:dbreg_auto.obj
 0001:00045c00       ___dbreg_register_getpgnos 00446c00 f   libdb41s:dbreg_auto.obj
 0001:00045c80       ___dbreg_register_print    00446c80 f   libdb41s:dbreg_auto.obj
 0001:00045e50       ___dbreg_register_read     00446e50 f   libdb41s:dbreg_auto.obj
 0001:00045f50       ___dbreg_init_print        00446f50 f   libdb41s:dbreg_auto.obj
 0001:00045f70       ___dbreg_init_getpgnos     00446f70 f   libdb41s:dbreg_auto.obj
 0001:00045f90       ___dbreg_init_recover      00446f90 f   libdb41s:dbreg_auto.obj
 0001:00045fb0       ___db_addrem_log           00446fb0 f   libdb41s:db_auto.obj
 0001:000461d0       ___db_addrem_getpgnos      004471d0 f   libdb41s:db_auto.obj
 0001:000462f0       ___db_addrem_print         004472f0 f   libdb41s:db_auto.obj
 0001:000464d0       ___db_addrem_read          004474d0 f   libdb41s:db_auto.obj
 0001:000465f0       ___db_big_log              004475f0 f   libdb41s:db_auto.obj
 0001:00046800       ___db_big_getpgnos         00447800 f   libdb41s:db_auto.obj
 0001:00046a50       ___db_big_print            00447a50 f   libdb41s:db_auto.obj
 0001:00046be0       ___db_big_read             00447be0 f   libdb41s:db_auto.obj
 0001:00046d00       ___db_ovref_log            00447d00 f   libdb41s:db_auto.obj
 0001:00046e80       ___db_ovref_getpgnos       00447e80 f   libdb41s:db_auto.obj
 0001:00046fa0       ___db_ovref_print          00447fa0 f   libdb41s:db_auto.obj
 0001:00047060       ___db_ovref_read           00448060 f   libdb41s:db_auto.obj
 0001:00047110       ___db_relink_log           00448110 f   libdb41s:db_auto.obj
 0001:000472f0       ___db_relink_getpgnos      004482f0 f   libdb41s:db_auto.obj
 0001:00047540       ___db_relink_print         00448540 f   libdb41s:db_auto.obj
 0001:00047650       ___db_relink_read          00448650 f   libdb41s:db_auto.obj
 0001:00047740       ___db_debug_log            00448740 f   libdb41s:db_auto.obj
 0001:00047920       ___db_debug_getpgnos       00448920 f   libdb41s:db_auto.obj
 0001:000479a0       ___db_debug_print          004489a0 f   libdb41s:db_auto.obj
 0001:00047bb0       ___db_debug_read           00448bb0 f   libdb41s:db_auto.obj
 0001:00047cb0       ___db_noop_log             00448cb0 f   libdb41s:db_auto.obj
 0001:00047e20       ___db_noop_getpgnos        00448e20 f   libdb41s:db_auto.obj
 0001:00047f40       ___db_noop_print           00448f40 f   libdb41s:db_auto.obj
 0001:00047fe0       ___db_noop_read            00448fe0 f   libdb41s:db_auto.obj
 0001:00048080       ___db_pg_alloc_log         00449080 f   libdb41s:db_auto.obj
 0001:00048230       ___db_pg_alloc_getpgnos    00449230 f   libdb41s:db_auto.obj
 0001:000483e0       ___db_pg_alloc_print       004493e0 f   libdb41s:db_auto.obj
 0001:000484e0       ___db_pg_alloc_read        004494e0 f   libdb41s:db_auto.obj
 0001:000485c0       ___db_pg_free_log          004495c0 f   libdb41s:db_auto.obj
 0001:00048780       ___db_pg_free_getpgnos     00449780 f   libdb41s:db_auto.obj
 0001:00048930       ___db_pg_free_print        00449930 f   libdb41s:db_auto.obj
 0001:00048a80       ___db_pg_free_read         00449a80 f   libdb41s:db_auto.obj
 0001:00048b60       ___db_cksum_log            00449b60 f   libdb41s:db_auto.obj
 0001:00048c90       ___db_cksum_getpgnos       00449c90 f   libdb41s:db_auto.obj
 0001:00048d10       ___db_cksum_print          00449d10 f   libdb41s:db_auto.obj
 0001:00048d80       ___db_cksum_read           00449d80 f   libdb41s:db_auto.obj
 0001:00048de0       ___db_init_print           00449de0 f   libdb41s:db_auto.obj
 0001:00048ed0       ___db_init_getpgnos        00449ed0 f   libdb41s:db_auto.obj
 0001:00048fc0       ___db_init_recover         00449fc0 f   libdb41s:db_auto.obj
 0001:000490b0       ___crdel_metasub_log       0044a0b0 f   libdb41s:crdel_auto.obj
 0001:00049260       ___crdel_metasub_getpgnos  0044a260 f   libdb41s:crdel_auto.obj
 0001:00049380       ___crdel_metasub_print     0044a380 f   libdb41s:crdel_auto.obj
 0001:000494b0       ___crdel_metasub_read      0044a4b0 f   libdb41s:crdel_auto.obj
 0001:00049580       ___crdel_init_print        0044a580 f   libdb41s:crdel_auto.obj
 0001:000495b0       ___crdel_init_getpgnos     0044a5b0 f   libdb41s:crdel_auto.obj
 0001:000495e0       ___crdel_init_recover      0044a5e0 f   libdb41s:crdel_auto.obj
 0001:00049610       ___bam_split_log           0044a610 f   libdb41s:btree_auto.obj
 0001:00049840       ___bam_split_getpgnos      0044a840 f   libdb41s:btree_auto.obj
 0001:00049a70       ___bam_split_print         0044aa70 f   libdb41s:btree_auto.obj
 0001:00049c20       ___bam_split_read          0044ac20 f   libdb41s:btree_auto.obj
 0001:00049d60       ___bam_rsplit_log          0044ad60 f   libdb41s:btree_auto.obj
 0001:00049f70       ___bam_rsplit_getpgnos     0044af70 f   libdb41s:btree_auto.obj
 0001:0004a120       ___bam_rsplit_print        0044b120 f   libdb41s:btree_auto.obj
 0001:0004a2f0       ___bam_rsplit_read         0044b2f0 f   libdb41s:btree_auto.obj
 0001:0004a400       ___bam_adj_log             0044b400 f   libdb41s:btree_auto.obj
 0001:0004a590       ___bam_adj_getpgnos        0044b590 f   libdb41s:btree_auto.obj
 0001:0004a6b0       ___bam_adj_print           0044b6b0 f   libdb41s:btree_auto.obj
 0001:0004a790       ___bam_adj_read            0044b790 f   libdb41s:btree_auto.obj
 0001:0004a850       ___bam_cadjust_log         0044b850 f   libdb41s:btree_auto.obj
 0001:0004a9e0       ___bam_cadjust_getpgnos    0044b9e0 f   libdb41s:btree_auto.obj
 0001:0004ab00       ___bam_cadjust_print       0044bb00 f   libdb41s:btree_auto.obj
 0001:0004abe0       ___bam_cadjust_read        0044bbe0 f   libdb41s:btree_auto.obj
 0001:0004aca0       ___bam_cdel_log            0044bca0 f   libdb41s:btree_auto.obj
 0001:0004ae20       ___bam_cdel_getpgnos       0044be20 f   libdb41s:btree_auto.obj
 0001:0004af40       ___bam_cdel_print          0044bf40 f   libdb41s:btree_auto.obj
 0001:0004b000       ___bam_cdel_read           0044c000 f   libdb41s:btree_auto.obj
 0001:0004b0b0       ___bam_repl_log            0044c0b0 f   libdb41s:btree_auto.obj
 0001:0004b2c0       ___bam_repl_getpgnos       0044c2c0 f   libdb41s:btree_auto.obj
 0001:0004b3e0       ___bam_repl_print          0044c3e0 f   libdb41s:btree_auto.obj
 0001:0004b5e0       ___bam_repl_read           0044c5e0 f   libdb41s:btree_auto.obj
 0001:0004b700       ___bam_root_log            0044c700 f   libdb41s:btree_auto.obj
 0001:0004b880       ___bam_root_getpgnos       0044c880 f   libdb41s:btree_auto.obj
 0001:0004ba30       ___bam_root_print          0044ca30 f   libdb41s:btree_auto.obj
 0001:0004baf0       ___bam_root_read           0044caf0 f   libdb41s:btree_auto.obj
 0001:0004bba0       ___bam_curadj_log          0044cba0 f   libdb41s:btree_auto.obj
 0001:0004bd30       ___bam_curadj_getpgnos     0044cd30 f   libdb41s:btree_auto.obj
 0001:0004bdb0       ___bam_curadj_print        0044cdb0 f   libdb41s:btree_auto.obj
 0001:0004beb0       ___bam_curadj_read         0044ceb0 f   libdb41s:btree_auto.obj
 0001:0004bf80       ___bam_rcuradj_log         0044cf80 f   libdb41s:btree_auto.obj
 0001:0004c100       ___bam_rcuradj_getpgnos    0044d100 f   libdb41s:btree_auto.obj
 0001:0004c180       ___bam_rcuradj_print       0044d180 f   libdb41s:btree_auto.obj
 0001:0004c250       ___bam_rcuradj_read        0044d250 f   libdb41s:btree_auto.obj
 0001:0004c300       ___bam_init_print          0044d300 f   libdb41s:btree_auto.obj
 0001:0004c3f0       ___bam_init_getpgnos       0044d3f0 f   libdb41s:btree_auto.obj
 0001:0004c4e0       ___bam_init_recover        0044d4e0 f   libdb41s:btree_auto.obj
 0001:0004c5d0       ___txn_open                0044d5d0 f   libdb41s:txn_region.obj
 0001:0004c940       ___txn_dbenv_refresh       0044d940 f   libdb41s:txn_region.obj
 0001:0004ca50       ___txn_region_destroy      0044da50 f   libdb41s:txn_region.obj
 0001:0004ca60       ___lock_open               0044da60 f   libdb41s:lock_region.obj
 0001:0004d010       ___lock_dbenv_refresh      0044e010 f   libdb41s:lock_region.obj
 0001:0004d100       ___lock_region_destroy     0044e100 f   libdb41s:lock_region.obj
 0001:0004d110       ___db_e_attach             0044e110 f   libdb41s:env_region.obj
 0001:0004d850       ___db_e_detach             0044e850 f   libdb41s:env_region.obj
 0001:0004d930       ___db_e_remove             0044e930 f   libdb41s:env_region.obj
 0001:0004ddb0       ___db_e_stat               0044edb0 f   libdb41s:env_region.obj
 0001:0004deb0       ___db_r_attach             0044eeb0 f   libdb41s:env_region.obj
 0001:0004e040       ___db_r_detach             0044f040 f   libdb41s:env_region.obj
 0001:0004e3d0       ___db_oflags               0044f3d0 f   libdb41s:os_oflags.obj
 0001:0004e400       ___db_omode                0044f400 f   libdb41s:os_oflags.obj
 0001:0004e420       ___os_tmpdir               0044f420 f   libdb41s:os_tmpdir.obj
 0001:0004e610       ___os_exists               0044f610 f   libdb41s:os_stat.obj
 0001:0004e670       ___os_ioinfo               0044f670 f   libdb41s:os_stat.obj
 0001:0004e760       ___os_abspath              0044f760 f   libdb41s:os_abs.obj
 0001:0004e7c0       ___os_isroot               0044f7c0 f   libdb41s:os_root.obj
 0001:0004e7d0       ___db_Cstrcasecmp          0044f7d0 f   libdb41s:strcasecmp.obj
 0001:0004e840       ___db_Cstrncasecmp         0044f840 f   libdb41s:strcasecmp.obj
 0001:0004e8c0       ___os_open                 0044f8c0 f   libdb41s:os_open.obj
 0001:0004ebc0       ___db_cursorchk            0044fbc0 f   libdb41s:db_iface.obj
 0001:0004ecb0       ___db_ccountchk            0044fcb0 f   libdb41s:db_iface.obj
 0001:0004ecf0       ___db_cdelchk              0044fcf0 f   libdb41s:db_iface.obj
 0001:0004ed60       ___db_cgetchk              0044fd60 f   libdb41s:db_iface.obj
 0001:0004ef60       ___db_cputchk              0044ff60 f   libdb41s:db_iface.obj
 0001:0004f0d0       ___db_pgetchk              004500d0 f   libdb41s:db_iface.obj
 0001:0004f190       ___db_cpgetchk             00450190 f   libdb41s:db_iface.obj
 0001:0004f290       ___db_delchk               00450290 f   libdb41s:db_iface.obj
 0001:0004f2f0       ___db_getchk               004502f0 f   libdb41s:db_iface.obj
 0001:0004f490       ___db_joinchk              00450490 f   libdb41s:db_iface.obj
 0001:0004f520       ___db_joingetchk           00450520 f   libdb41s:db_iface.obj
 0001:0004f5a0       ___db_putchk               004505a0 f   libdb41s:db_iface.obj
 0001:0004f6e0       ___db_statchk              004506e0 f   libdb41s:db_iface.obj
 0001:0004f760       ___db_syncchk              00450760 f   libdb41s:db_iface.obj
 0001:0004f8b0       ___db_secondary_corrupt    004508b0 f   libdb41s:db_iface.obj
 0001:0004f8d0       ___db_associatechk         004508d0 f   libdb41s:db_iface.obj
 0001:0004f9a0       ___db_txn_auto             004509a0 f   libdb41s:db_iface.obj
 0001:0004fa00       ___fop_lock_handle         00450a00 f   libdb41s:fop_util.obj
 0001:0004fb90       ___fop_file_setup          00450b90 f   libdb41s:fop_util.obj
 0001:00050570       ___fop_subdb_setup         00451570 f   libdb41s:fop_util.obj
 0001:000507b0       ___fop_remove_setup        004517b0 f   libdb41s:fop_util.obj
 0001:00050920       ___fop_read_meta           00451920 f   libdb41s:fop_util.obj
 0001:00050a20       ___fop_dummy               00451a20 f   libdb41s:fop_util.obj
 0001:00050e20       ___fop_dbrename            00451e20 f   libdb41s:fop_util.obj
 0001:00050f50       ___fop_create              00451f50 f   libdb41s:fop_basic.obj
 0001:00051090       ___fop_remove              00452090 f   libdb41s:fop_basic.obj
 0001:000511b0       ___fop_write               004521b0 f   libdb41s:fop_basic.obj
 0001:00051340       ___fop_rename              00452340 f   libdb41s:fop_basic.obj
 0001:000514a0       ___bam_reclaim             004524a0 f   libdb41s:bt_reclaim.obj
 0001:00051500       ___bam_truncate            00452500 f   libdb41s:bt_reclaim.obj
 0001:00051580       ___ham_reclaim             00452580 f   libdb41s:hash_reclaim.obj
 0001:00051630       ___ham_truncate            00452630 f   libdb41s:hash_reclaim.obj
 0001:00051700       ___qam_fprobe              00452700 f   libdb41s:qam_files.obj
 0001:00051c40       ___qam_fclose              00452c40 f   libdb41s:qam_files.obj
 0001:00051cd0       ___qam_fremove             00452cd0 f   libdb41s:qam_files.obj
 0001:00051de0       ___qam_sync                00452de0 f   libdb41s:qam_files.obj
 0001:00051fb0       ___qam_gen_filelist        00452fb0 f   libdb41s:qam_files.obj
 0001:00052100       ___qam_extent_names        00453100 f   libdb41s:qam_files.obj
 0001:000522f0       ___qam_exid                004532f0 f   libdb41s:qam_files.obj
 0001:00052320       ___db_loadme               00453320 f   libdb41s:db_pr.obj
 0001:00052330       ___db_dump                 00453330 f   libdb41s:db_pr.obj
 0001:000523e0       ___db_inmemdbflags         004533e0 f   libdb41s:db_pr.obj
 0001:00052650       ___db_prnpage              00453650 f   libdb41s:db_pr.obj
 0001:000526b0       ___db_prpage               004536b0 f   libdb41s:db_pr.obj
 0001:000532c0       ___db_pr                   004542c0 f   libdb41s:db_pr.obj
 0001:000533c0       ___db_prdbt                004543c0 f   libdb41s:db_pr.obj
 0001:00053680       ___db_prflags              00454680 f   libdb41s:db_pr.obj
 0001:000536e0       ___db_dbtype_to_string     004546e0 f   libdb41s:db_pr.obj
 0001:000537b0       ___db_prheader             004547b0 f   libdb41s:db_pr.obj
 0001:00053f10       ___db_prfooter             00454f10 f   libdb41s:db_pr.obj
 0001:00053f30       ___txn_remevent            00454f30 f   libdb41s:txn_util.obj
 0001:00054000       ___txn_lockevent           00455000 f   libdb41s:txn_util.obj
 0001:000540a0       ___txn_remlock             004550a0 f   libdb41s:txn_util.obj
 0001:00054110       ___txn_doevents            00455110 f   libdb41s:txn_util.obj
 0001:00054320       ___db_rpath                00455320 f   libdb41s:os_rpath.obj
 0001:00054380       ___bam_cmp                 00455380 f   libdb41s:bt_compare.obj
 0001:00054500       ___bam_defcmp              00455500 f   libdb41s:bt_compare.obj
 0001:00054550       ___bam_defpfx              00455550 f   libdb41s:bt_compare.obj
 0001:000545b0       ___db_vrfy_dbinfo_create   004555b0 f   libdb41s:db_vrfyutil.obj
 0001:00054740       ___db_vrfy_dbinfo_destroy  00455740 f   libdb41s:db_vrfyutil.obj
 0001:000547c0       ___db_vrfy_getpageinfo     004557c0 f   libdb41s:db_vrfyutil.obj
 0001:000548d0       ___db_vrfy_putpageinfo     004558d0 f   libdb41s:db_vrfyutil.obj
 0001:00054980       ___db_vrfy_pgset           00455980 f   libdb41s:db_vrfyutil.obj
 0001:00054a00       ___db_vrfy_pgset_get       00455a00 f   libdb41s:db_vrfyutil.obj
 0001:00054a90       ___db_vrfy_pgset_inc       00455a90 f   libdb41s:db_vrfyutil.obj
 0001:00054ab0       ___db_vrfy_pgset_dec       00455ab0 f   libdb41s:db_vrfyutil.obj
 0001:00054b80       ___db_vrfy_pgset_next      00455b80 f   libdb41s:db_vrfyutil.obj
 0001:00054bf0       ___db_vrfy_childcursor     00455bf0 f   libdb41s:db_vrfyutil.obj
 0001:00054c20       ___db_vrfy_childput        00455c20 f   libdb41s:db_vrfyutil.obj
 0001:00054d20       ___db_vrfy_ccset           00455d20 f   libdb41s:db_vrfyutil.obj
 0001:00054d80       ___db_vrfy_ccnext          00455d80 f   libdb41s:db_vrfyutil.obj
 0001:00054dd0       ___db_vrfy_ccclose         00455dd0 f   libdb41s:db_vrfyutil.obj
 0001:00054e20       ___db_salvage_init         00455e20 f   libdb41s:db_vrfyutil.obj
 0001:00054ea0       ___db_salvage_destroy      00455ea0 f   libdb41s:db_vrfyutil.obj
 0001:00054ec0       ___db_salvage_getnext      00455ec0 f   libdb41s:db_vrfyutil.obj
 0001:00054f90       ___db_salvage_isdone       00455f90 f   libdb41s:db_vrfyutil.obj
 0001:00055030       ___db_salvage_markdone     00456030 f   libdb41s:db_vrfyutil.obj
 0001:000550e0       ___db_salvage_markneeded   004560e0 f   libdb41s:db_vrfyutil.obj
 0001:00055150       ___os_openhandle           00456150 f   libdb41s:os_handle.obj
 0001:00055220       ___os_closehandle          00456220 f   libdb41s:os_handle.obj
 0001:000552a0       ___os_io                   004562a0 f   libdb41s:os_rw.obj
 0001:000553f0       ___os_read                 004563f0 f   libdb41s:os_rw.obj
 0001:000554b0       ___os_write                004564b0 f   libdb41s:os_rw.obj
 0001:000557f0       ___os_seek                 004567f0 f   libdb41s:os_seek.obj
 0001:00055950       ___qam_vrfy_meta           00456950 f   libdb41s:qam_verify.obj
 0001:00055a90       ___qam_vrfy_data           00456a90 f   libdb41s:qam_verify.obj
 0001:00055b40       ___qam_vrfy_structure      00456b40 f   libdb41s:qam_verify.obj
 0001:00055c80       ___bam_vrfy_meta           00456c80 f   libdb41s:bt_verify.obj
 0001:00055fd0       ___ram_vrfy_leaf           00456fd0 f   libdb41s:bt_verify.obj
 0001:000561f0       ___bam_vrfy                004571f0 f   libdb41s:bt_verify.obj
 0001:00056d30       ___bam_vrfy_itemorder      00457d30 f   libdb41s:bt_verify.obj
 0001:00057210       ___bam_vrfy_structure      00458210 f   libdb41s:bt_verify.obj
 0001:00057480       ___bam_vrfy_subtree        00458480 f   libdb41s:bt_verify.obj
 0001:00058360       ___bam_salvage             00459360 f   libdb41s:bt_verify.obj
 0001:000587a0       ___bam_salvage_walkdupint  004597a0 f   libdb41s:bt_verify.obj
 0001:000588c0       ___bam_meta2pgset          004598c0 f   libdb41s:bt_verify.obj
 0001:00058b70       ___ham_vrfy_meta           00459b70 f   libdb41s:hash_verify.obj
 0001:00058e10       ___ham_vrfy                00459e10 f   libdb41s:hash_verify.obj
 0001:000593f0       ___ham_vrfy_structure      0045a3f0 f   libdb41s:hash_verify.obj
 0001:00059b20       ___ham_vrfy_hashing        0045ab20 f   libdb41s:hash_verify.obj
 0001:00059c60       ___ham_salvage             0045ac60 f   libdb41s:hash_verify.obj
 0001:0005a070       ___ham_meta2pgset          0045b070 f   libdb41s:hash_verify.obj
 0001:0005a250       ___db_goff                 0045b250 f   libdb41s:db_overflow.obj
 0001:0005a430       ___db_poff                 0045b430 f   libdb41s:db_overflow.obj
 0001:0005a6b0       ___db_ovref                0045b6b0 f   libdb41s:db_overflow.obj
 0001:0005a780       ___db_doff                 0045b780 f   libdb41s:db_overflow.obj
 0001:0005a900       ___db_moff                 0045b900 f   libdb41s:db_overflow.obj
 0001:0005aa90       ___db_vrfy_overflow        0045ba90 f   libdb41s:db_overflow.obj
 0001:0005ab70       ___db_vrfy_ovfl_structure  0045bb70 f   libdb41s:db_overflow.obj
 0001:0005ae20       ___db_safe_goff            0045be20 f   libdb41s:db_overflow.obj
 0001:0005b000       ___db_c_close              0045c000 f   libdb41s:db_cam.obj
 0001:0005b220       ___db_c_destroy            0045c220 f   libdb41s:db_cam.obj
 0001:0005b300       ___db_c_count              0045c300 f   libdb41s:db_cam.obj
 0001:0005b3e0       ___db_c_del                0045c3e0 f   libdb41s:db_cam.obj
 0001:0005b540       ___db_c_dup                0045c540 f   libdb41s:db_cam.obj
 0001:0005b6a0       ___db_c_idup               0045c6a0 f   libdb41s:db_cam.obj
 0001:0005b860       ___db_c_newopd             0045c860 f   libdb41s:db_cam.obj
 0001:0005b920       ___db_c_get                0045c920 f   libdb41s:db_cam.obj
 0001:0005bff0       ___db_c_put                0045cff0 f   libdb41s:db_cam.obj
 0001:0005cac0       ___db_duperr               0045dac0 f   libdb41s:db_cam.obj
 0001:0005cc20       ___db_c_secondary_get      0045dc20 f   libdb41s:db_cam.obj
 0001:0005cc40       ___db_c_pget               0045dc40 f   libdb41s:db_cam.obj
 0001:0005d150       ___db_c_del_primary        0045e150 f   libdb41s:db_cam.obj
 0001:0005d370       ___db_s_first              0045e370 f   libdb41s:db_cam.obj
 0001:0005d3c0       ___db_s_next               0045e3c0 f   libdb41s:db_cam.obj
 0001:0005d470       ___db_s_done               0045e470 f   libdb41s:db_cam.obj
 0001:0005d610       ___db_partsize             0045e610 f   libdb41s:db_cam.obj
 0001:0005d640       ___db_log2                 0045e640 f   libdb41s:db_log2.obj
 0001:0005d660       ___ham_func2               0045e660 f   libdb41s:hash_func.obj
 0001:0005d6a0       ___ham_func3               0045e6a0 f   libdb41s:hash_func.obj
 0001:0005d7a0       ___ham_func4               0045e7a0 f   libdb41s:hash_func.obj
 0001:0005d860       ___ham_func5               0045e860 f   libdb41s:hash_func.obj
 0001:0005d890       ___ham_test                0045e890 f   libdb41s:hash_func.obj
 0001:0005d8a0       ___bam_30_btreemeta        0045e8a0 f   libdb41s:bt_upgrade.obj
 0001:0005d900       ___bam_31_btreemeta        0045e900 f   libdb41s:bt_upgrade.obj
 0001:0005d980       ___bam_31_lbtree           0045e980 f   libdb41s:bt_upgrade.obj
 0001:0005dac0       ___ham_30_hashmeta         0045eac0 f   libdb41s:hash_upgrade.obj
 0001:0005dbe0       ___ham_30_sizefix          0045ebe0 f   libdb41s:hash_upgrade.obj
 0001:0005dc90       ___ham_31_hashmeta         0045ec90 f   libdb41s:hash_upgrade.obj
 0001:0005dd30       ___ham_31_hash             0045ed30 f   libdb41s:hash_upgrade.obj
 0001:0005ddd0       ___os_fsync                0045edd0 f   libdb41s:os_fsync.obj
 0001:0005de50       ___qam_31_qammeta          0045ee50 f   libdb41s:qam_upgrade.obj
 0001:0005deb0       ___qam_32_qammeta          0045eeb0 f   libdb41s:qam_upgrade.obj
 0001:0005df00       ___bam_c_init              0045ef00 f   libdb41s:bt_cursor.obj
 0001:0005e010       ___bam_c_refresh           0045f010 f   libdb41s:bt_cursor.obj
 0001:0005e590       ___bam_c_count             0045f590 f   libdb41s:bt_cursor.obj
 0001:0005e9b0       ___bam_c_dup               0045f9b0 f   libdb41s:bt_cursor.obj
 0001:0005f930       ___bam_bulk_overflow       00460930 f   libdb41s:bt_cursor.obj
 0001:0005f980       ___bam_bulk_duplicates     00460980 f   libdb41s:bt_cursor.obj
 0001:000609e0       ___bam_c_rget              004619e0 f   libdb41s:bt_cursor.obj
 0001:00061d50       ___qam_position            00462d50 f   libdb41s:qam.obj
 0001:00061ed0       ___qam_pitem               00462ed0 f   libdb41s:qam.obj
 0001:000621b0       ___qam_append              004631b0 f   libdb41s:qam.obj
 0001:00062510       ___qam_c_dup               00463510 f   libdb41s:qam.obj
 0001:00062580       ___qam_c_init              00463580 f   libdb41s:qam.obj
 0001:00064230       ___qam_truncate            00465230 f   libdb41s:qam.obj
 0001:00064410       ___ham_quick_delete        00465410 f   libdb41s:hash.obj
 0001:00064450       ___ham_c_init              00465450 f   libdb41s:hash.obj
 0001:000646c0       ___ham_c_count             004656c0 f   libdb41s:hash.obj
 0001:00064a90       ___ham_c_dup               00465a90 f   libdb41s:hash.obj
 0001:00066070       ___ham_call_hash           00467070 f   libdb41s:hash.obj
 0001:00066c10       ___ham_init_dbt            00467c10 f   libdb41s:hash.obj
 0001:00066c70       ___ham_c_update            00467c70 f   libdb41s:hash.obj
 0001:00067080       ___ham_get_clist           00468080 f   libdb41s:hash.obj
 0001:000672f0       ___ram_open                004682f0 f   libdb41s:bt_recno.obj
 0001:000673a0       ___ram_append              004683a0 f   libdb41s:bt_recno.obj
 0001:00067410       ___ram_c_del               00468410 f   libdb41s:bt_recno.obj
 0001:000676a0       ___ram_c_get               004686a0 f   libdb41s:bt_recno.obj
 0001:00067b00       ___ram_c_put               00468b00 f   libdb41s:bt_recno.obj
 0001:00067f80       ___ram_ca                  00468f80 f   libdb41s:bt_recno.obj
 0001:000683e0       ___ram_getno               004693e0 f   libdb41s:bt_recno.obj
 0001:00068590       ___ram_writeback           00469590 f   libdb41s:bt_recno.obj
 0001:00068ba0       ___db_new                  00469ba0 f   libdb41s:db_meta.obj
 0001:00068eb0       ___db_free                 00469eb0 f   libdb41s:db_meta.obj
 0001:000690a0       ___db_lget                 0046a0a0 f   libdb41s:db_meta.obj
 0001:000692f0       ___db_lput                 0046a2f0 f   libdb41s:db_meta.obj
 0001:00069370       ___dbreg_setup             0046a370 f   libdb41s:dbreg.obj
 0001:000694e0       ___dbreg_teardown          0046a4e0 f   libdb41s:dbreg.obj
 0001:00069550       ___dbreg_new_id            0046a550 f   libdb41s:dbreg.obj
 0001:000696e0       ___dbreg_assign_id         0046a6e0 f   libdb41s:dbreg.obj
 0001:00069820       ___dbreg_revoke_id         0046a820 f   libdb41s:dbreg.obj
 0001:000698e0       ___dbreg_close_id          0046a8e0 f   libdb41s:dbreg.obj
 0001:000699e0       ___db_pgin                 0046a9e0 f   libdb41s:db_conv.obj
 0001:00069ca0       ___db_pgout                0046aca0 f   libdb41s:db_conv.obj
 0001:00069e80       ___db_metaswap             0046ae80 f   libdb41s:db_conv.obj
 0001:0006a020       ___db_byteswap             0046b020 f   libdb41s:db_conv.obj
 0001:0006a780       ___qam_open                0046b780 f   libdb41s:qam_open.obj
 0001:0006a9d0       ___qam_metachk             0046b9d0 f   libdb41s:qam_open.obj
 0001:0006aae0       ___qam_new_file            0046bae0 f   libdb41s:qam_open.obj
 0001:0006ad50       ___ham_open                0046bd50 f   libdb41s:hash_open.obj
 0001:0006af10       ___ham_metachk             0046bf10 f   libdb41s:hash_open.obj
 0001:0006b0d0       ___ham_new_file            0046c0d0 f   libdb41s:hash_open.obj
 0001:0006b4c0       ___ham_new_subdb           0046c4c0 f   libdb41s:hash_open.obj
 0001:0006b800       ___bam_open                0046c800 f   libdb41s:bt_open.obj
 0001:0006b900       ___bam_metachk             0046c900 f   libdb41s:bt_open.obj
 0001:0006bc20       ___bam_read_root           0046cc20 f   libdb41s:bt_open.obj
 0001:0006bd90       ___bam_new_file            0046cd90 f   libdb41s:bt_open.obj
 0001:0006c130       ___bam_new_subdb           0046d130 f   libdb41s:bt_open.obj
 0001:0006c360       ___db_chksum               0046d360 f   libdb41s:hmac.obj
 0001:0006c510       ___db_derive_mac           0046d510 f   libdb41s:hmac.obj
 0001:0006c570       ___db_check_chksum         0046d570 f   libdb41s:hmac.obj
 0001:0006c670       ___db_ret                  0046d670 f   libdb41s:db_ret.obj
 0001:0006c830       ___db_retcopy              0046d830 f   libdb41s:db_ret.obj
 0001:0006c940       ___db_shalloc_init         0046d940 f   libdb41s:db_salloc.obj
 0001:0006c9a0       ___db_shalloc_size         0046d9a0 f   libdb41s:db_salloc.obj
 0001:0006c9d0       ___db_shalloc              0046d9d0 f   libdb41s:db_salloc.obj
 0001:0006caa0       ___db_shalloc_free         0046daa0 f   libdb41s:db_salloc.obj
 0001:0006cc70       ___db_shsizeof             0046dc70 f   libdb41s:db_salloc.obj
 0001:0006cc90       ___db_shalloc_dump         0046dc90 f   libdb41s:db_salloc.obj
 0001:0006cd00       ___db_idspace              0046dd00 f   libdb41s:db_idspace.obj
 0001:0006cdd0       ___os_spin                 0046ddd0 f   libdb41s:os_spin.obj
 0001:0006ce20       ___os_yield                0046de20 f   libdb41s:os_spin.obj
 0001:0006ce50       ___memp_bhwrite            0046de50 f   libdb41s:mp_bh.obj
 0001:0006d0a0       ___memp_pgread             0046e0a0 f   libdb41s:mp_bh.obj
 0001:0006d410       ___memp_pg                 0046e410 f   libdb41s:mp_bh.obj
 0001:0006d570       ___memp_bhfree             0046e570 f   libdb41s:mp_bh.obj
 0001:0006d7a0       ___db_tablesize            0046e7a0 f   libdb41s:db_shash.obj
 0001:0006d7e0       ___db_hashinit             0046e7e0 f   libdb41s:db_shash.obj
 0001:0006d800       ___os_rename               0046e800 f   libdb41s:os_rename.obj
 0001:0006d8b0       ___os_region_unlink        0046e8b0 f   libdb41s:os_unlink.obj
 0001:0006d8e0       ___os_unlink               0046e8e0 f   libdb41s:os_unlink.obj
 0001:0006d940       ___memp_alloc              0046e940 f   libdb41s:mp_alloc.obj
 0001:0006dec0       ___memp_fset               0046eec0 f   libdb41s:mp_fset.obj
 0001:0006e050       ___memp_fput               0046f050 f   libdb41s:mp_fput.obj
 0001:0006e3f0       ___memp_fget               0046f3f0 f   libdb41s:mp_fget.obj
 0001:0006ee50       ___os_r_sysattach          0046fe50 f   libdb41s:os_map.obj
 0001:0006ef10       ___os_r_sysdetach          0046ff10 f   libdb41s:os_map.obj
 0001:0006efb0       ___os_mapfile              0046ffb0 f   libdb41s:os_map.obj
 0001:0006f010       ___os_unmapfile            00470010 f   libdb41s:os_map.obj
 0001:0006f2d0       ___os_fileid               004702d0 f   libdb41s:os_fid.obj
 0001:0006f450       ___lock_cmp                00470450 f   libdb41s:lock_util.obj
 0001:0006f480       ___lock_locker_cmp         00470480 f   libdb41s:lock_util.obj
 0001:0006f4a0       ___lock_ohash              004704a0 f   libdb41s:lock_util.obj
 0001:0006f500       ___lock_lhash              00470500 f   libdb41s:lock_util.obj
 0001:0006f560       ___lock_locker_hash        00470560 f   libdb41s:lock_util.obj
 0001:0006f570       ___os_dirlist              00470570 f   libdb41s:os_dir.obj
 0001:0006f6d0       ___os_dirfree              004706d0 f   libdb41s:os_dir.obj
 0001:0006f730       ___qam_incfirst_recover    00470730 f   libdb41s:qam_rec.obj
 0001:0006faf0       ___qam_mvptr_recover       00470af0 f   libdb41s:qam_rec.obj
 0001:0006fdb0       ___qam_del_recover         00470db0 f   libdb41s:qam_rec.obj
 0001:00070130       ___qam_delext_recover      00471130 f   libdb41s:qam_rec.obj
 0001:000704e0       ___qam_add_recover         004714e0 f   libdb41s:qam_rec.obj
 0001:000708f0       ___ham_insdel_recover      004718f0 f   libdb41s:hash_rec.obj
 0001:00070c50       ___ham_newpage_recover     00471c50 f   libdb41s:hash_rec.obj
 0001:000711f0       ___ham_replace_recover     004721f0 f   libdb41s:hash_rec.obj
 0001:00071500       ___ham_splitdata_recover   00472500 f   libdb41s:hash_rec.obj
 0001:000717e0       ___ham_copypage_recover    004727e0 f   libdb41s:hash_rec.obj
 0001:00071d10       ___ham_metagroup_recover   00472d10 f   libdb41s:hash_rec.obj
 0001:00072230       ___ham_groupalloc_recover  00473230 f   libdb41s:hash_rec.obj
 0001:00072620       ___ham_curadj_recover      00473620 f   libdb41s:hash_rec.obj
 0001:00072790       ___ham_chgpg_recover       00473790 f   libdb41s:hash_rec.obj
 0001:00072b10       ___fop_create_recover      00473b10 f   libdb41s:fop_rec.obj
 0001:00072c10       ___fop_remove_recover      00473c10 f   libdb41s:fop_rec.obj
 0001:00072ce0       ___fop_write_recover       00473ce0 f   libdb41s:fop_rec.obj
 0001:00072d80       ___fop_rename_recover      00473d80 f   libdb41s:fop_rec.obj
 0001:00072f40       ___fop_file_remove_recover 00473f40 f   libdb41s:fop_rec.obj
 0001:00073120       ___dbreg_register_recover  00474120 f   libdb41s:dbreg_rec.obj
 0001:00073600       ___db_addrem_recover       00474600 f   libdb41s:db_rec.obj
 0001:00073900       ___db_big_recover          00474900 f   libdb41s:db_rec.obj
 0001:00073f20       ___db_ovref_recover        00474f20 f   libdb41s:db_rec.obj
 0001:00074170       ___db_relink_recover       00475170 f   libdb41s:db_rec.obj
 0001:000746c0       ___db_debug_recover        004756c0 f   libdb41s:db_rec.obj
 0001:00074710       ___db_noop_recover         00475710 f   libdb41s:db_rec.obj
 0001:00074910       ___db_pg_alloc_recover     00475910 f   libdb41s:db_rec.obj
 0001:00074e20       ___db_pg_free_recover      00475e20 f   libdb41s:db_rec.obj
 0001:00075220       ___db_cksum_recover        00476220 f   libdb41s:db_rec.obj
 0001:00075290       ___crdel_metasub_recover   00476290 f   libdb41s:crdel_rec.obj
 0001:000754e0       ___bam_split_recover       004764e0 f   libdb41s:bt_rec.obj
 0001:00076070       ___bam_rsplit_recover      00477070 f   libdb41s:bt_rec.obj
 0001:000764e0       ___bam_adj_recover         004774e0 f   libdb41s:bt_rec.obj
 0001:000767a0       ___bam_cadjust_recover     004777a0 f   libdb41s:bt_rec.obj
 0001:00076b70       ___bam_cdel_recover        00477b70 f   libdb41s:bt_rec.obj
 0001:00076e90       ___bam_repl_recover        00477e90 f   libdb41s:bt_rec.obj
 0001:00077340       ___bam_root_recover        00478340 f   libdb41s:bt_rec.obj
 0001:000775b0       ___bam_curadj_recover      004785b0 f   libdb41s:bt_rec.obj
 0001:00077760       ___bam_rcuradj_recover     00478760 f   libdb41s:bt_rec.obj
 0001:00077910       ___os_r_attach             00478910 f   libdb41s:os_region.obj
 0001:000779a0       ___os_r_detach             004789a0 f   libdb41s:os_region.obj
 0001:00077a00       ___db_fileinit             00478a00 f   libdb41s:env_file.obj
 0001:00077b20       ___db_overwrite            00478b20 f   libdb41s:env_file.obj
 0001:00077d40       ___os_is_winnt             00478d40 f   libdb41s:os_type.obj
 0001:00077d60       ___bam_stat                00478d60 f   libdb41s:bt_stat.obj
 0001:00078290       ___bam_traverse            00479290 f   libdb41s:bt_stat.obj
 0001:00078720       ___bam_stat_callback       00479720 f   libdb41s:bt_stat.obj
 0001:00078ae0       ___bam_key_range           00479ae0 f   libdb41s:bt_stat.obj
 0001:00078d00       ___db_traverse_big         00479d00 f   libdb41s:db_reclaim.obj
 0001:00078da0       ___db_reclaim_callback     00479da0 f   libdb41s:db_reclaim.obj
 0001:00078dd0       ___db_truncate_callback    00479dd0 f   libdb41s:db_reclaim.obj
 0001:00079340       ___ham_get_meta            0047a340 f   libdb41s:hash_meta.obj
 0001:000793f0       ___ham_release_meta        0047a3f0 f   libdb41s:hash_meta.obj
 0001:00079460       ___ham_dirty_meta          0047a460 f   libdb41s:hash_meta.obj
 0001:00079530       ___ham_stat                0047a530 f   libdb41s:hash_stat.obj
 0001:000797d0       ___ham_traverse            0047a7d0 f   libdb41s:hash_stat.obj
 0001:00079d70       ___os_fs_notzero           0047ad70 f   libdb41s:os_config.obj
 0001:00079d80       ___db_31_offdup            0047ad80 f   libdb41s:db_upg_opd.obj
 0001:0007a7e0       ___bam_ca_delete           0047b7e0 f   libdb41s:bt_curadj.obj
 0001:0007a8f0       ___ram_ca_delete           0047b8f0 f   libdb41s:bt_curadj.obj
 0001:0007a9c0       ___bam_ca_di               0047b9c0 f   libdb41s:bt_curadj.obj
 0001:0007ab50       ___bam_ca_dup              0047bb50 f   libdb41s:bt_curadj.obj
 0001:0007adc0       ___bam_ca_undodup          0047bdc0 f   libdb41s:bt_curadj.obj
 0001:0007aef0       ___bam_ca_rsplit           0047bef0 f   libdb41s:bt_curadj.obj
 0001:0007b060       ___bam_ca_split            0047c060 f   libdb41s:bt_curadj.obj
 0001:0007b220       ___bam_ca_undosplit        0047c220 f   libdb41s:bt_curadj.obj
 0001:0007b320       ___bam_search              0047c320 f   libdb41s:bt_search.obj
 0001:0007bea0       ___bam_stkrel              0047cea0 f   libdb41s:bt_search.obj
 0001:0007bf80       ___bam_stkgrow             0047cf80 f   libdb41s:bt_search.obj
 0001:0007c030       ___bam_rsearch             0047d030 f   libdb41s:bt_rsearch.obj
 0001:0007c760       ___bam_adjust              0047d760 f   libdb41s:bt_rsearch.obj
 0001:0007c8c0       ___bam_nrecs               0047d8c0 f   libdb41s:bt_rsearch.obj
 0001:0007c970       ___bam_total               0047d970 f   libdb41s:bt_rsearch.obj
 0001:0007cb70       ___bam_split               0047db70 f   libdb41s:bt_split.obj
 0001:0007e8b0       ___bam_copy                0047f8b0 f   libdb41s:bt_split.obj
 0001:0007eb70       ___bam_iitem               0047fb70 f   libdb41s:bt_put.obj
 0001:0007f5f0       ___bam_ritem               004805f0 f   libdb41s:bt_put.obj
 0001:0007fd60       ___bam_ditem               00480d60 f   libdb41s:bt_delete.obj
 0001:0007ffc0       ___bam_adjindx             00480fc0 f   libdb41s:bt_delete.obj
 0001:000800f0       ___bam_dpages              004810f0 f   libdb41s:bt_delete.obj
 0001:00080770       ___ham_item                00481770 f   libdb41s:hash_page.obj
 0001:00080930       ___ham_item_reset          00481930 f   libdb41s:hash_page.obj
 0001:00080970       ___ham_item_init           00481970 f   libdb41s:hash_page.obj
 0001:000809d0       ___ham_item_last           004819d0 f   libdb41s:hash_page.obj
 0001:00080a30       ___ham_item_first          00481a30 f   libdb41s:hash_page.obj
 0001:00080a90       ___ham_item_prev           00481a90 f   libdb41s:hash_page.obj
 0001:00080c80       ___ham_item_next           00481c80 f   libdb41s:hash_page.obj
 0001:00080e10       ___ham_putitem             00481e10 f   libdb41s:hash_page.obj
 0001:00080f30       ___ham_reputpair           00481f30 f   libdb41s:hash_page.obj
 0001:000810b0       ___ham_del_pair            004820b0 f   libdb41s:hash_page.obj
 0001:00081890       ___ham_replpair            00482890 f   libdb41s:hash_page.obj
 0001:00081d50       ___ham_onpage_replace      00482d50 f   libdb41s:hash_page.obj
 0001:00081fe0       ___ham_split_page          00482fe0 f   libdb41s:hash_page.obj
 0001:00082880       ___ham_add_el              00483880 f   libdb41s:hash_page.obj
 0001:00082c50       ___ham_copy_item           00483c50 f   libdb41s:hash_page.obj
 0001:00082d80       ___ham_add_ovflpage        00483d80 f   libdb41s:hash_page.obj
 0001:00082e70       ___ham_get_cpage           00483e70 f   libdb41s:hash_page.obj
 0001:00082fe0       ___ham_next_cpage          00483fe0 f   libdb41s:hash_page.obj
 0001:00083050       ___ham_lock_bucket         00484050 f   libdb41s:hash_page.obj
 0001:000830d0       ___ham_dpair               004840d0 f   libdb41s:hash_page.obj
 0001:000834f0       ___ham_add_dup             004844f0 f   libdb41s:hash_dup.obj
 0001:00083a40       ___ham_dup_convert         00484a40 f   libdb41s:hash_dup.obj
 0001:00083fc0       ___ham_make_dup            00484fc0 f   libdb41s:hash_dup.obj
 0001:00084a40       ___ham_dsearch             00485a40 f   libdb41s:hash_dup.obj
 0001:00084df0       ___db_ditem                00485df0 f   libdb41s:db_dup.obj
 0001:00084f80       ___db_pitem                00485f80 f   libdb41s:db_dup.obj
 0001:00085160       ___db_relink               00486160 f   libdb41s:db_dup.obj
 0001:00085460       ___bam_pgin                00486460 f   libdb41s:bt_conv.obj
 0001:000854b0       ___bam_pgout               004864b0 f   libdb41s:bt_conv.obj
 0001:00085500       ___bam_mswap               00486500 f   libdb41s:bt_conv.obj
 0001:000855f0       ___ham_pgin                004865f0 f   libdb41s:hash_conv.obj
 0001:00085670       ___ham_pgout               00486670 f   libdb41s:hash_conv.obj
 0001:000856c0       ___ham_mswap               004866c0 f   libdb41s:hash_conv.obj
 0001:00085800       ___qam_mswap               00486800 f   libdb41s:qam_conv.obj
 0001:00085910       ___qam_pgin_out            00486910 f   libdb41s:qam_conv.obj
 0001:00085990       ___qam_stat                00486990 f   libdb41s:qam_stat.obj
 0001:00085f20       ___db_SHA1Transform        00486f20 f   libdb41s:sha1.obj
 0001:00087e10       ___db_SHA1Init             00488e10 f   libdb41s:sha1.obj
 0001:00087e40       ___db_SHA1Update           00488e40 f   libdb41s:sha1.obj
 0001:00087f00       ___db_SHA1Final            00488f00 f   libdb41s:sha1.obj
 0001:00087ff0       _gethostbyname@4           00488ff0 f   ws2_32:WS2_32.dll
 0001:00087ff6       _gethostname@8             00488ff6 f   ws2_32:WS2_32.dll
 0001:0008813f       ??0Init@ios_base@std@@QAE@XZ 0048913f f   libcpmt:iostream.obj
 0001:000882be       ??1Init@ios_base@std@@QAE@XZ 004892be f   libcpmt:iostream.obj
 0001:00088301       ??0?$basic_ostream@DU?$char_traits@D@std@@@std@@QAE@W4_Uninitialized@1@@Z 00489301 f i libcpmt:iostream.obj
 0001:00088360       ??0?$basic_istream@DU?$char_traits@D@std@@@std@@QAE@W4_Uninitialized@1@@Z 00489360 f i libcpmt:iostream.obj
 0001:000883bf       ??0?$basic_filebuf@DU?$char_traits@D@std@@@std@@QAE@W4_Uninitialized@1@@Z 004893bf f i libcpmt:iostream.obj
 0001:0008840c       ?id@?$collate@D@std@@$E    0048940c f i libcpmt:iostream.obj
 0001:00088517       ??_D?$basic_istream@GU?$char_traits@G@std@@@std@@QAEXXZ 00489517 f i libcpmt:wiostrea.obj
 0001:0008855b       ??_D?$basic_ostream@GU?$char_traits@G@std@@@std@@QAEXXZ 0048955b f i libcpmt:wiostrea.obj
 0001:000885ce       ??0_Winit@std@@QAE@XZ      004895ce f   libcpmt:wiostrea.obj
 0001:0008874f       ??1_Winit@std@@QAE@XZ      0048974f f   libcpmt:wiostrea.obj
 0001:00088792       ??0?$basic_ostream@GU?$char_traits@G@std@@@std@@QAE@PAV?$basic_streambuf@GU?$char_traits@G@std@@@1@_N1@Z 00489792 f i libcpmt:wiostrea.obj
 0001:000887fc       ??0?$basic_ostream@GU?$char_traits@G@std@@@std@@QAE@W4_Uninitialized@1@@Z 004897fc f i libcpmt:wiostrea.obj
 0001:0008885b       ?flush@?$basic_ostream@GU?$char_traits@G@std@@@std@@QAEAAV12@XZ 0048985b f i libcpmt:wiostrea.obj
 0001:000888a5       ??1?$basic_ios@GU?$char_traits@G@std@@@std@@UAE@XZ 004898a5 f i libcpmt:wiostrea.obj
 0001:000888b0       ??0?$basic_istream@GU?$char_traits@G@std@@@std@@QAE@PAV?$basic_streambuf@GU?$char_traits@G@std@@@1@_N@Z 004898b0 f i libcpmt:wiostrea.obj
 0001:00088918       ??0?$basic_istream@GU?$char_traits@G@std@@@std@@QAE@W4_Uninitialized@1@@Z 00489918 f i libcpmt:wiostrea.obj
 0001:00088977       ??0?$basic_filebuf@GU?$char_traits@G@std@@@std@@QAE@PAU_iobuf@@@Z 00489977 f i libcpmt:wiostrea.obj
 0001:000889d7       ??1?$basic_streambuf@GU?$char_traits@G@std@@@std@@UAE@XZ 004899d7 f i libcpmt:wiostrea.obj
 0001:000889e5       ?overflow@?$basic_streambuf@GU?$char_traits@G@std@@@std@@MAEGG@Z 004899e5 f i libcpmt:wiostrea.obj
 0001:000889ec       ?pbackfail@?$basic_streambuf@GU?$char_traits@G@std@@@std@@MAEGG@Z 004899ec f i libcpmt:wiostrea.obj
 0001:000889f3       ?showmanyc@?$basic_streambuf@GU?$char_traits@G@std@@@std@@MAEHXZ 004899f3 f i libcpmt:wiostrea.obj
 0001:000889f6       ?underflow@?$basic_streambuf@GU?$char_traits@G@std@@@std@@MAEGXZ 004899f6 f i libcpmt:wiostrea.obj
 0001:000889fb       ?uflow@?$basic_streambuf@GU?$char_traits@G@std@@@std@@MAEGXZ 004899fb f i libcpmt:wiostrea.obj
 0001:00088a1c       ?xsgetn@?$basic_streambuf@GU?$char_traits@G@std@@@std@@MAEHPAGH@Z 00489a1c f i libcpmt:wiostrea.obj
 0001:00088aa3       ?xsputn@?$basic_streambuf@GU?$char_traits@G@std@@@std@@MAEHPBGH@Z 00489aa3 f i libcpmt:wiostrea.obj
 0001:00088b2b       ?seekoff@?$basic_streambuf@GU?$char_traits@G@std@@@std@@MAE?AV?$fpos@H@2@JW4seekdir@ios_base@2@H@Z 00489b2b f i libcpmt:wiostrea.obj
 0001:00088b4f       ?seekpos@?$basic_streambuf@GU?$char_traits@G@std@@@std@@MAE?AV?$fpos@H@2@V32@H@Z 00489b4f f i libcpmt:wiostrea.obj
 0001:00088b73       ?setbuf@?$basic_streambuf@GU?$char_traits@G@std@@@std@@MAEPAV12@PAGH@Z 00489b73 f i libcpmt:wiostrea.obj
 0001:00088b78       ?sync@?$basic_streambuf@GU?$char_traits@G@std@@@std@@MAEHXZ 00489b78 f i libcpmt:wiostrea.obj
 0001:00088b7b       ?imbue@?$basic_streambuf@GU?$char_traits@G@std@@@std@@MAEXABVlocale@2@@Z 00489b7b f i libcpmt:wiostrea.obj
 0001:00088b7e       ??0?$basic_filebuf@GU?$char_traits@G@std@@@std@@QAE@W4_Uninitialized@1@@Z 00489b7e f i libcpmt:wiostrea.obj
 0001:00088b89       ??1?$basic_filebuf@GU?$char_traits@G@std@@@std@@UAE@XZ 00489b89 f i libcpmt:wiostrea.obj
 0001:00088bee       ?overflow@?$basic_filebuf@GU?$char_traits@G@std@@@std@@MAEGG@Z 00489bee f i libcpmt:wiostrea.obj
 0001:00088d36       ?pbackfail@?$basic_filebuf@GU?$char_traits@G@std@@@std@@MAEGG@Z 00489d36 f i libcpmt:wiostrea.obj
 0001:00088ded       ?underflow@?$basic_filebuf@GU?$char_traits@G@std@@@std@@MAEGXZ 00489ded f i libcpmt:wiostrea.obj
 0001:00088e1b       ?uflow@?$basic_filebuf@GU?$char_traits@G@std@@@std@@MAEGXZ 00489e1b f i libcpmt:wiostrea.obj
 0001:00088f39       ?seekoff@?$basic_filebuf@GU?$char_traits@G@std@@@std@@MAE?AV?$fpos@H@2@JW4seekdir@ios_base@2@H@Z 00489f39 f i libcpmt:wiostrea.obj
 0001:00088fa8       ?seekpos@?$basic_filebuf@GU?$char_traits@G@std@@@std@@MAE?AV?$fpos@H@2@V32@H@Z 00489fa8 f i libcpmt:wiostrea.obj
 0001:00089057       ?setbuf@?$basic_filebuf@GU?$char_traits@G@std@@@std@@MAEPAV?$basic_streambuf@GU?$char_traits@G@std@@@2@PAGH@Z 0048a057 f i libcpmt:wiostrea.obj
 0001:00089085       ?sync@?$basic_filebuf@GU?$char_traits@G@std@@@std@@MAEHXZ 0048a085 f i libcpmt:wiostrea.obj
 0001:0008909e       ??_G?$basic_ostream@GU?$char_traits@G@std@@@std@@UAEPAXI@Z 0048a09e f i libcpmt:wiostrea.obj
 0001:0008909e       ??_E?$basic_ostream@GU?$char_traits@G@std@@@std@@UAEPAXI@Z 0048a09e f i libcpmt:wiostrea.obj
 0001:000890bd       ??_G?$basic_ios@GU?$char_traits@G@std@@@std@@UAEPAXI@Z 0048a0bd f i libcpmt:wiostrea.obj
 0001:000890bd       ??_E?$basic_ios@GU?$char_traits@G@std@@@std@@UAEPAXI@Z 0048a0bd f i libcpmt:wiostrea.obj
 0001:000890d9       ??_G?$basic_istream@GU?$char_traits@G@std@@@std@@UAEPAXI@Z 0048a0d9 f i libcpmt:wiostrea.obj
 0001:000890d9       ??_E?$basic_istream@GU?$char_traits@G@std@@@std@@UAEPAXI@Z 0048a0d9 f i libcpmt:wiostrea.obj
 0001:000890f8       ??_G?$basic_streambuf@GU?$char_traits@G@std@@@std@@UAEPAXI@Z 0048a0f8 f i libcpmt:wiostrea.obj
 0001:000890f8       ??_E?$basic_streambuf@GU?$char_traits@G@std@@@std@@UAEPAXI@Z 0048a0f8 f i libcpmt:wiostrea.obj
 0001:00089114       ??_G?$basic_filebuf@GU?$char_traits@G@std@@@std@@UAEPAXI@Z 0048a114 f i libcpmt:wiostrea.obj
 0001:00089114       ??_E?$basic_filebuf@GU?$char_traits@G@std@@@std@@UAEPAXI@Z 0048a114 f i libcpmt:wiostrea.obj
 0001:00089130       ?init@?$basic_ios@GU?$char_traits@G@std@@@std@@IAEXPAV?$basic_streambuf@GU?$char_traits@G@std@@@2@_N@Z 0048a130 f i libcpmt:wiostrea.obj
 0001:0008917a       ?gbump@?$basic_streambuf@GU?$char_traits@G@std@@@std@@IAEXH@Z 0048a17a f i libcpmt:wiostrea.obj
 0001:0008918e       ?_Gndec@?$basic_streambuf@GU?$char_traits@G@std@@@std@@IAEPAGXZ 0048a18e f i libcpmt:wiostrea.obj
 0001:0008919f       ?_Gninc@?$basic_streambuf@GU?$char_traits@G@std@@@std@@IAEPAGXZ 0048a19f f i libcpmt:wiostrea.obj
 0001:000891af       ?pbump@?$basic_streambuf@GU?$char_traits@G@std@@@std@@IAEXH@Z 0048a1af f i libcpmt:wiostrea.obj
 0001:000891c3       ?_Pninc@?$basic_streambuf@GU?$char_traits@G@std@@@std@@IAEPAGXZ 0048a1c3 f i libcpmt:wiostrea.obj
 0001:000891d3       ?close@?$basic_filebuf@GU?$char_traits@G@std@@@std@@QAEPAV12@XZ 0048a1d3 f i libcpmt:wiostrea.obj
 0001:000891fa       ?_Init@?$basic_filebuf@GU?$char_traits@G@std@@@std@@IAEXPAU_iobuf@@W4_Initfl@12@@Z 0048a1fa f i libcpmt:wiostrea.obj
 0001:00089250       ?_Init@?$basic_streambuf@GU?$char_traits@G@std@@@std@@IAEXXZ 0048a250 f i libcpmt:wiostrea.obj
 0001:000892d4       ??3@YAXPAX@Z               0048a2d4 f   libcpmt:delop.obj
 0001:000892df       ??0_Lockit@std@@QAE@XZ     0048a2df f   libcpmt:xlock.obj
 0001:0008937b       ??1_Lockit@std@@QAE@XZ     0048a37b f   libcpmt:xlock.obj
 0001:00089390       ?_Xlen@std@@YAXXZ          0048a390 f   libcpmt:string.obj
 0001:000893ea       ??0logic_error@std@@QAE@ABV?$basic_string@DU?$char_traits@D@std@@V?$allocator@D@2@@1@@Z 0048a3ea f i libcpmt:string.obj
 0001:0008944e       ?what@logic_error@std@@UBEPBDXZ 0048a44e f i libcpmt:string.obj
 0001:0008945b       ?_Doraise@logic_error@std@@MBEXXZ 0048a45b f i libcpmt:string.obj
 0001:00089478       ??1logic_error@std@@UAE@XZ 0048a478 f i libcpmt:string.obj
 0001:000894b5       ??_Elogic_error@std@@UAEPAXI@Z 0048a4b5 f i libcpmt:string.obj
 0001:000894b5       ??_Glogic_error@std@@UAEPAXI@Z 0048a4b5 f i libcpmt:string.obj
 0001:000894d1       ??0logic_error@std@@QAE@ABV01@@Z 0048a4d1 f i libcpmt:string.obj
 0001:0008952e       ??1length_error@std@@UAE@XZ 0048a52e f i libcpmt:string.obj
 0001:0008956b       ?_Doraise@length_error@std@@MBEXXZ 0048a56b f i libcpmt:string.obj
 0001:00089588       ??_Glength_error@std@@UAEPAXI@Z 0048a588 f i libcpmt:string.obj
 0001:00089588       ??_Elength_error@std@@UAEPAXI@Z 0048a588 f i libcpmt:string.obj
 0001:000895a4       ??0length_error@std@@QAE@ABV01@@Z 0048a5a4 f i libcpmt:string.obj
 0001:000895bc       ?_Xran@std@@YAXXZ          0048a5bc f   libcpmt:string.obj
 0001:00089616       ??1out_of_range@std@@UAE@XZ 0048a616 f i libcpmt:string.obj
 0001:00089653       ?_Doraise@out_of_range@std@@MBEXXZ 0048a653 f i libcpmt:string.obj
 0001:00089670       ??_Gout_of_range@std@@UAEPAXI@Z 0048a670 f i libcpmt:string.obj
 0001:00089670       ??_Eout_of_range@std@@UAEPAXI@Z 0048a670 f i libcpmt:string.obj
 0001:0008968c       ??0out_of_range@std@@QAE@ABV01@@Z 0048a68c f i libcpmt:string.obj
 0001:000896e6       ?clear@ios_base@std@@QAEXH_N@Z 0048a6e6 f   libcpmt:ios.obj
 0001:00089782       ??0runtime_error@std@@QAE@ABV?$basic_string@DU?$char_traits@D@std@@V?$allocator@D@2@@1@@Z 0048a782 f i libcpmt:ios.obj
 0001:000897e6       ?what@runtime_error@std@@UBEPBDXZ 0048a7e6 f i libcpmt:ios.obj
 0001:000897f3       ?_Doraise@runtime_error@std@@MBEXXZ 0048a7f3 f i libcpmt:ios.obj
 0001:00089810       ??1runtime_error@std@@UAE@XZ 0048a810 f i libcpmt:ios.obj
 0001:0008984d       ??_Eruntime_error@std@@UAEPAXI@Z 0048a84d f i libcpmt:ios.obj
 0001:0008984d       ??_Gruntime_error@std@@UAEPAXI@Z 0048a84d f i libcpmt:ios.obj
 0001:00089869       ??0runtime_error@std@@QAE@ABV01@@Z 0048a869 f i libcpmt:ios.obj
 0001:000898c6       ??1failure@ios_base@std@@UAE@XZ 0048a8c6 f i libcpmt:ios.obj
 0001:00089903       ?_Doraise@failure@ios_base@std@@MBEXXZ 0048a903 f i libcpmt:ios.obj
 0001:00089920       ??_Gfailure@ios_base@std@@UAEPAXI@Z 0048a920 f i libcpmt:ios.obj
 0001:00089920       ??_Efailure@ios_base@std@@UAEPAXI@Z 0048a920 f i libcpmt:ios.obj
 0001:0008993c       ??0failure@ios_base@std@@QAE@ABV012@@Z 0048a93c f i libcpmt:ios.obj
 0001:00089954       ?copyfmt@ios_base@std@@QAEAAV12@ABV12@@Z 0048a954 f   libcpmt:ios.obj
 0001:000899e5       ?imbue@ios_base@std@@QAE?AVlocale@2@ABV32@@Z 0048a9e5 f   libcpmt:ios.obj
 0001:00089a44       ?register_callback@ios_base@std@@QAEXP6AXW4event@12@AAV12@H@ZH@Z 0048aa44 f   libcpmt:ios.obj
 0001:00089a7a       ??1ios_base@std@@UAE@XZ    0048aa7a f   libcpmt:ios.obj
 0001:00089aca       ?_Callfns@ios_base@std@@AAEXW4event@12@@Z 0048aaca f   libcpmt:ios.obj
 0001:00089aec       ?_Findarr@ios_base@std@@AAEAAU_Iosarray@12@H@Z 0048aaec f   libcpmt:ios.obj
 0001:00089bbd       ?_Addstd@ios_base@std@@IAEXXZ 0048abbd f   libcpmt:ios.obj
 0001:00089c0b       ?_Init@ios_base@std@@IAEXXZ 0048ac0b f   libcpmt:ios.obj
 0001:00089c43       ?_Tidy@ios_base@std@@AAEXXZ 0048ac43 f   libcpmt:ios.obj
 0001:00089c85       ?uncaught_exception@std@@YA_NXZ 0048ac85 f   libcpmt:uncaught.obj
 0001:00089ca9       ?classic@locale@std@@SAABV12@XZ 0048aca9 f   libcpmt:locale0.obj
 0001:00089cc9       ?empty@locale@std@@SA?AV12@XZ 0048acc9 f   libcpmt:locale0.obj
 0001:00089d10       ?_Getfacet@locale@std@@QBEPBVfacet@12@I_N@Z 0048ad10 f   libcpmt:locale0.obj
 0001:00089d66       ?_Iscloc@locale@std@@QBE_NXZ 0048ad66 f   libcpmt:locale0.obj
 0001:00089da1       ??8locale@std@@QBE_NABV01@@Z 0048ada1 f   libcpmt:locale0.obj
 0001:00089e70       ?name@locale@std@@QBE?AV?$basic_string@DU?$char_traits@D@std@@V?$allocator@D@2@@2@XZ 0048ae70 f i libcpmt:locale0.obj
 0001:00089ea7       ?_Init@locale@std@@CAPAV_Locimp@12@XZ 0048aea7 f   libcpmt:locale0.obj
 0001:00089f71       ?_Tidy@locale@std@@CAXXZ   0048af71 f   libcpmt:locale0.obj
 0001:00089fbb       ??0_Locimp@locale@std@@AAE@_N@Z 0048afbb f   libcpmt:locale0.obj
 0001:0008a02d       ??_E_Locimp@locale@std@@UAEPAXI@Z 0048b02d f i libcpmt:locale0.obj
 0001:0008a02d       ??_G_Locimp@locale@std@@UAEPAXI@Z 0048b02d f i libcpmt:locale0.obj
 0001:0008a049       ??1_Locimp@locale@std@@UAE@XZ 0048b049 f   libcpmt:locale0.obj
 0001:0008a113       ?__Fiopen@std@@YAPAU_iobuf@@PBDH@Z 0048b113 f   libcpmt:fiopen.obj
 0001:0008a1ce       ??0locale@std@@QAE@ABV01@0H@Z 0048b1ce f   libcpmt:locale.obj
 0001:0008a276       ??0locale@std@@QAE@PBDH@Z  0048b276 f   libcpmt:locale.obj
 0001:0008a383       ?_Getname@_Locinfo@std@@QBE?AV?$basic_string@DU?$char_traits@D@std@@V?$allocator@D@2@@2@XZ 0048b383 f i libcpmt:locale.obj
 0001:0008a3b9       ??0locale@std@@QAE@ABV01@PBDH@Z 0048b3b9 f   libcpmt:locale.obj
 0001:0008a4da       ?_Addfac@locale@std@@QAEAAV12@PAVfacet@12@II@Z 0048b4da f   libcpmt:locale.obj
 0001:0008a55d       ?global@locale@std@@SA?AV12@ABV12@@Z 0048b55d f   libcpmt:locale.obj
 0001:0008a658       ?_Makeloc@_Locimp@locale@std@@CAPAV123@ABV_Locinfo@3@HPAV123@PBV23@@Z 0048b658 f   libcpmt:locale.obj
 0001:0008a8cc       ??0_Locimp@locale@std@@AAE@ABV012@@Z 0048b8cc f   libcpmt:locale.obj
 0001:0008a9ec       ?_Addfac@_Locimp@locale@std@@AAEXPAVfacet@23@I@Z 0048b9ec f   libcpmt:locale.obj
 0001:0008aa9f       ??0_Locinfo@std@@QAE@PBD@Z 0048ba9f f   libcpmt:locale.obj
 0001:0008ab58       ??0_Locinfo@std@@QAE@HPBD@Z 0048bb58 f   libcpmt:locale.obj
 0001:0008abcf       ??1_Locinfo@std@@QAE@XZ    0048bbcf f   libcpmt:locale.obj
 0001:0008ac44       ?_Addcats@_Locinfo@std@@QAEAAV12@HPBD@Z 0048bc44 f   libcpmt:locale.obj
 0001:0008acb3       ?do_get@?$num_get@DV?$istreambuf_iterator@DU?$char_traits@D@std@@@std@@@std@@MBE?AV?$istreambuf_iterator@DU?$char_traits@D@std@@@2@V32@0AAVios_base@2@AAHAA_N@Z 0048bcb3 f i libcpmt:locale.obj
 0001:0008ae5d       ?do_get@?$num_get@DV?$istreambuf_iterator@DU?$char_traits@D@std@@@std@@@std@@MBE?AV?$istreambuf_iterator@DU?$char_traits@D@std@@@2@V32@0AAVios_base@2@AAHAAG@Z 0048be5d f i libcpmt:locale.obj
 0001:0008af29       ?do_get@?$num_get@DV?$istreambuf_iterator@DU?$char_traits@D@std@@@std@@@std@@MBE?AV?$istreambuf_iterator@DU?$char_traits@D@std@@@2@V32@0AAVios_base@2@AAHAAI@Z 0048bf29 f i libcpmt:locale.obj
 0001:0008aff1       ?do_get@?$num_get@DV?$istreambuf_iterator@DU?$char_traits@D@std@@@std@@@std@@MBE?AV?$istreambuf_iterator@DU?$char_traits@D@std@@@2@V32@0AAVios_base@2@AAHAAJ@Z 0048bff1 f i libcpmt:locale.obj
 0001:0008b09f       ?do_get@?$num_get@DV?$istreambuf_iterator@DU?$char_traits@D@std@@@std@@@std@@MBE?AV?$istreambuf_iterator@DU?$char_traits@D@std@@@2@V32@0AAVios_base@2@AAHAAK@Z 0048c09f f i libcpmt:locale.obj
 0001:0008b14d       ?do_get@?$num_get@DV?$istreambuf_iterator@DU?$char_traits@D@std@@@std@@@std@@MBE?AV?$istreambuf_iterator@DU?$char_traits@D@std@@@2@V32@0AAVios_base@2@AAHAAM@Z 0048c14d f i libcpmt:locale.obj
 0001:0008b1f7       ?do_get@?$num_get@DV?$istreambuf_iterator@DU?$char_traits@D@std@@@std@@@std@@MBE?AV?$istreambuf_iterator@DU?$char_traits@D@std@@@2@V32@0AAVios_base@2@AAHAAN@Z 0048c1f7 f i libcpmt:locale.obj
 0001:0008b2a1       ?do_get@?$num_get@DV?$istreambuf_iterator@DU?$char_traits@D@std@@@std@@@std@@MBE?AV?$istreambuf_iterator@DU?$char_traits@D@std@@@2@V32@0AAVios_base@2@AAHAAO@Z 0048c2a1 f i libcpmt:locale.obj
 0001:0008b34b       ?do_get@?$num_get@DV?$istreambuf_iterator@DU?$char_traits@D@std@@@std@@@std@@MBE?AV?$istreambuf_iterator@DU?$char_traits@D@std@@@2@V32@0AAVios_base@2@AAHAAPAX@Z 0048c34b f i libcpmt:locale.obj
 0001:0008b441       ??_E?$num_get@DV?$istreambuf_iterator@DU?$char_traits@D@std@@@std@@@std@@UAEPAXI@Z 0048c441 f i libcpmt:locale.obj
 0001:0008b441       ??_G?$num_get@DV?$istreambuf_iterator@DU?$char_traits@D@std@@@std@@@std@@UAEPAXI@Z 0048c441 f i libcpmt:locale.obj
 0001:0008b45d       ??1?$num_get@DV?$istreambuf_iterator@DU?$char_traits@D@std@@@std@@@std@@UAE@XZ 0048c45d f i libcpmt:locale.obj
 0001:0008b464       ?_Getifld@?$num_get@DV?$istreambuf_iterator@DU?$char_traits@D@std@@@std@@@std@@CAHPADAAV?$istreambuf_iterator@DU?$char_traits@D@std@@@2@1HABVlocale@2@@Z 0048c464 f i libcpmt:locale.obj
 0001:0008b7f9       ?_Getffld@?$num_get@DV?$istreambuf_iterator@DU?$char_traits@D@std@@@std@@@std@@CAHPADAAV?$istreambuf_iterator@DU?$char_traits@D@std@@@2@1ABVlocale@2@@Z 0048c7f9 f i libcpmt:locale.obj
 0001:0008bae5       ?assign@?$basic_string@DU?$char_traits@D@std@@V?$allocator@D@2@@std@@QAEAAV12@ID@Z 0048cae5 f i libcpmt:locale.obj
 0001:0008bb2b       ?_Inc@?$istreambuf_iterator@DU?$char_traits@D@std@@@std@@AAEXXZ 0048cb2b f i libcpmt:locale.obj
 0001:0008bb4d       ?_Peek@?$istreambuf_iterator@DU?$char_traits@D@std@@@std@@AAEDXZ 0048cb4d f i libcpmt:locale.obj
 0001:0008bb71       ?use_facet@std@@YAABV?$num_get@DV?$istreambuf_iterator@DU?$char_traits@D@std@@@std@@@1@ABVlocale@1@PBV21@_N@Z 0048cb71 f i libcpmt:locale.obj
 0001:0008bc4d       ?_Getloctxt@std@@YAHAAV?$istreambuf_iterator@DU?$char_traits@D@std@@@1@0IPBD@Z 0048cc4d f i libcpmt:locale.obj
 0001:0008be06       ?isdigit@std@@YA_NDABVlocale@1@@Z 0048ce06 f i libcpmt:locale.obj
 0001:0008be27       ?equal@?$istreambuf_iterator@DU?$char_traits@D@std@@@std@@QBE_NABV12@@Z 0048ce27 f i libcpmt:locale.obj
 0001:0008be66       ?_Save@?$_Tidyfac@V?$num_get@DV?$istreambuf_iterator@DU?$char_traits@D@std@@@std@@@std@@@std@@SAPAV?$num_get@DV?$istreambuf_iterator@DU?$char_traits@D@std@@@std@@@2@PAV32@@Z 0048ce66 f i libcpmt:locale.obj
 0001:0008beb4       ?_Tidy@?$_Tidyfac@V?$num_get@DV?$istreambuf_iterator@DU?$char_traits@D@std@@@std@@@std@@@std@@SAXXZ 0048ceb4 f i libcpmt:locale.obj
 0001:0008bf43       __Tolower                  0048cf43 f   libcpmt:_tolower.obj
 0001:0008bfc2       __Tolower_lk               0048cfc2 f   libcpmt:_tolower.obj
 0001:0008c0aa       __Getctype                 0048d0aa f   libcpmt:_tolower.obj
 0001:0008c152       __Toupper                  0048d152 f   libcpmt:_toupper.obj
 0001:0008c1d1       __Toupper_lk               0048d1d1 f   libcpmt:_toupper.obj
 0001:0008c2b2       __Wcrtomb                  0048d2b2 f   libcpmt:xwctomb.obj
 0001:0008c311       ___Wcrtomb_lk              0048d311 f   libcpmt:xwctomb.obj
 0001:0008c384       __Getcvt                   0048d384 f   libcpmt:xwctomb.obj
 0001:0008c3d8       _wcrtomb                   0048d3d8 f   libcpmt:xwctomb.obj
 0001:0008c3f7       _wcsrtombs                 0048d3f7 f   libcpmt:xwctomb.obj
 0001:0008c55f       _wctob                     0048d55f f   libcpmt:xwctomb.obj
 0001:0008c58d       __Mbrtowc                  0048d58d f   libcpmt:xmbtowc.obj
 0001:0008c703       _btowc                     0048d703 f   libcpmt:xmbtowc.obj
 0001:0008c744       _mbrlen                    0048d744 f   libcpmt:xmbtowc.obj
 0001:0008c7af       _mbrtowc                   0048d7af f   libcpmt:xmbtowc.obj
 0001:0008c840       _mbsrtowcs                 0048d840 f   libcpmt:xmbtowc.obj
 0001:0008c935       ?_Nomemory@std@@YAXXZ      0048d935 f   libcpmt:nomemory.obj
 0001:0008c980       ??0bad_alloc@std@@QAE@PBD@Z 0048d980 f i libcpmt:nomemory.obj
 0001:0008c999       ??1bad_alloc@std@@UAE@XZ   0048d999 f i libcpmt:nomemory.obj
 0001:0008c9a4       ?_Doraise@bad_alloc@std@@MBEXXZ 0048d9a4 f i libcpmt:nomemory.obj
 0001:0008c9c1       ??_Ebad_alloc@std@@UAEPAXI@Z 0048d9c1 f i libcpmt:nomemory.obj
 0001:0008c9c1       ??_Gbad_alloc@std@@UAEPAXI@Z 0048d9c1 f i libcpmt:nomemory.obj
 0001:0008c9dd       ??0bad_alloc@std@@QAE@ABV01@@Z 0048d9dd f i libcpmt:nomemory.obj
 0001:0008c9ff       ?_Makewloc@_Locimp@locale@std@@CAXABV_Locinfo@3@HPAV123@PBV23@@Z 0048d9ff f   libcpmt:wlocale.obj
 0001:0008cf51       ??1_Timevec@std@@QAE@XZ    0048df51 f i libcpmt:wlocale.obj
 0001:0008cf5a       ?do_in@?$codecvt@GDH@std@@MBEHAAHPBD1AAPBDPAG3AAPAG@Z 0048df5a f i libcpmt:wlocale.obj
 0001:0008cfdc       ?do_out@?$codecvt@GDH@std@@MBEHAAHPBG1AAPBGPAD3AAPAD@Z 0048dfdc f i libcpmt:wlocale.obj
 0001:0008d0af       ?do_length@?$codecvt@GDH@std@@MBEHAAHPBG1I@Z 0048e0af f i libcpmt:wlocale.obj
 0001:0008d0fe       ?do_always_noconv@?$codecvt@GDH@std@@MBE_NXZ 0048e0fe f i libcpmt:wlocale.obj
 0001:0008d101       ?do_max_length@?$codecvt@GDH@std@@MBEHXZ 0048e101 f i libcpmt:wlocale.obj
 0001:0008d105       ?do_encoding@?$codecvt@GDH@std@@MBEHXZ 0048e105 f i libcpmt:wlocale.obj
 0001:0008d108       ??_G?$codecvt@GDH@std@@UAEPAXI@Z 0048e108 f i libcpmt:wlocale.obj
 0001:0008d108       ??_E?$codecvt@GDH@std@@UAEPAXI@Z 0048e108 f i libcpmt:wlocale.obj
 0001:0008d124       ??1?$codecvt@GDH@std@@UAE@XZ 0048e124 f i libcpmt:wlocale.obj
 0001:0008d12b       ??1time_base@std@@UAE@XZ   0048e12b f i libcpmt:wlocale.obj
 0001:0008d132       ??1messages_base@std@@UAE@XZ 0048e132 f i libcpmt:wlocale.obj
 0001:0008d139       ?do_is@?$ctype@G@std@@MBE_NFG@Z 0048e139 f i libcpmt:wlocale.obj
 0001:0008d160       ?do_is@?$ctype@G@std@@MBEPBGPBG0PAF@Z 0048e160 f i libcpmt:wlocale.obj
 0001:0008d19f       ?do_scan_is@?$ctype@G@std@@MBEPBGFPBG0@Z 0048e19f f i libcpmt:wlocale.obj
 0001:0008d1cb       ?do_scan_not@?$ctype@G@std@@MBEPBGFPBG0@Z 0048e1cb f i libcpmt:wlocale.obj
 0001:0008d1f7       ?do_tolower@?$ctype@G@std@@MBEGG@Z 0048e1f7 f i libcpmt:wlocale.obj
 0001:0008d228       ?do_tolower@?$ctype@G@std@@MBEPBGPAGPBG@Z 0048e228 f i libcpmt:wlocale.obj
 0001:0008d255       ?do_toupper@?$ctype@G@std@@MBEGG@Z 0048e255 f i libcpmt:wlocale.obj
 0001:0008d286       ?do_toupper@?$ctype@G@std@@MBEPBGPAGPBG@Z 0048e286 f i libcpmt:wlocale.obj
 0001:0008d2b3       ?do_widen@?$ctype@G@std@@MBEGD@Z 0048e2b3 f i libcpmt:wlocale.obj
 0001:0008d2c2       ?do_widen@?$ctype@G@std@@MBEPBDPBD0PAG@Z 0048e2c2 f i libcpmt:wlocale.obj
 0001:0008d2ef       ?do_narrow@?$ctype@G@std@@MBEDGD@Z 0048e2ef f i libcpmt:wlocale.obj
 0001:0008d2fc       ?do_narrow@?$ctype@G@std@@MBEPBGPBG0DPAD@Z 0048e2fc f i libcpmt:wlocale.obj
 0001:0008d328       ?do_put@?$time_put@GV?$ostreambuf_iterator@GU?$char_traits@G@std@@@std@@@std@@MBE?AV?$ostreambuf_iterator@GU?$char_traits@G@std@@@2@V32@AAVios_base@2@PBUtm@@DD@Z 0048e328 f i libcpmt:wlocale.obj
 0001:0008d404       ?do_get@?$num_get@GV?$istreambuf_iterator@GU?$char_traits@G@std@@@std@@@std@@MBE?AV?$istreambuf_iterator@GU?$char_traits@G@std@@@2@V32@0AAVios_base@2@AAHAA_N@Z 0048e404 f i libcpmt:wlocale.obj
 0001:0008d5ae       ?do_get@?$num_get@GV?$istreambuf_iterator@GU?$char_traits@G@std@@@std@@@std@@MBE?AV?$istreambuf_iterator@GU?$char_traits@G@std@@@2@V32@0AAVios_base@2@AAHAAG@Z 0048e5ae f i libcpmt:wlocale.obj
 0001:0008d67a       ?do_get@?$num_get@GV?$istreambuf_iterator@GU?$char_traits@G@std@@@std@@@std@@MBE?AV?$istreambuf_iterator@GU?$char_traits@G@std@@@2@V32@0AAVios_base@2@AAHAAI@Z 0048e67a f i libcpmt:wlocale.obj
 0001:0008d742       ?do_get@?$num_get@GV?$istreambuf_iterator@GU?$char_traits@G@std@@@std@@@std@@MBE?AV?$istreambuf_iterator@GU?$char_traits@G@std@@@2@V32@0AAVios_base@2@AAHAAJ@Z 0048e742 f i libcpmt:wlocale.obj
 0001:0008d7f0       ?do_get@?$num_get@GV?$istreambuf_iterator@GU?$char_traits@G@std@@@std@@@std@@MBE?AV?$istreambuf_iterator@GU?$char_traits@G@std@@@2@V32@0AAVios_base@2@AAHAAK@Z 0048e7f0 f i libcpmt:wlocale.obj
 0001:0008d89e       ?do_get@?$num_get@GV?$istreambuf_iterator@GU?$char_traits@G@std@@@std@@@std@@MBE?AV?$istreambuf_iterator@GU?$char_traits@G@std@@@2@V32@0AAVios_base@2@AAHAAM@Z 0048e89e f i libcpmt:wlocale.obj
 0001:0008d948       ?do_get@?$num_get@GV?$istreambuf_iterator@GU?$char_traits@G@std@@@std@@@std@@MBE?AV?$istreambuf_iterator@GU?$char_traits@G@std@@@2@V32@0AAVios_base@2@AAHAAN@Z 0048e948 f i libcpmt:wlocale.obj
 0001:0008d9f2       ?do_get@?$num_get@GV?$istreambuf_iterator@GU?$char_traits@G@std@@@std@@@std@@MBE?AV?$istreambuf_iterator@GU?$char_traits@G@std@@@2@V32@0AAVios_base@2@AAHAAO@Z 0048e9f2 f i libcpmt:wlocale.obj
 0001:0008da9c       ?do_get@?$num_get@GV?$istreambuf_iterator@GU?$char_traits@G@std@@@std@@@std@@MBE?AV?$istreambuf_iterator@GU?$char_traits@G@std@@@2@V32@0AAVios_base@2@AAHAAPAX@Z 0048ea9c f i libcpmt:wlocale.obj
 0001:0008db9a       ?do_put@?$num_put@GV?$ostreambuf_iterator@GU?$char_traits@G@std@@@std@@@std@@MBE?AV?$ostreambuf_iterator@GU?$char_traits@G@std@@@2@V32@AAVios_base@2@G_N@Z 0048eb9a f i libcpmt:wlocale.obj
 0001:0008dd4d       ?do_put@?$num_put@GV?$ostreambuf_iterator@GU?$char_traits@G@std@@@std@@@std@@MBE?AV?$ostreambuf_iterator@GU?$char_traits@G@std@@@2@V32@AAVios_base@2@GJ@Z 0048ed4d f i libcpmt:wlocale.obj
 0001:0008dda5       ?do_put@?$num_put@GV?$ostreambuf_iterator@GU?$char_traits@G@std@@@std@@@std@@MBE?AV?$ostreambuf_iterator@GU?$char_traits@G@std@@@2@V32@AAVios_base@2@GK@Z 0048eda5 f i libcpmt:wlocale.obj
 0001:0008ddfd       ?do_put@?$num_put@GV?$ostreambuf_iterator@GU?$char_traits@G@std@@@std@@@std@@MBE?AV?$ostreambuf_iterator@GU?$char_traits@G@std@@@2@V32@AAVios_base@2@GN@Z 0048edfd f i libcpmt:wlocale.obj
 0001:0008de7b       ?do_put@?$num_put@GV?$ostreambuf_iterator@GU?$char_traits@G@std@@@std@@@std@@MBE?AV?$ostreambuf_iterator@GU?$char_traits@G@std@@@2@V32@AAVios_base@2@GO@Z 0048ee7b f i libcpmt:wlocale.obj
 0001:0008def9       ?do_put@?$num_put@GV?$ostreambuf_iterator@GU?$char_traits@G@std@@@std@@@std@@MBE?AV?$ostreambuf_iterator@GU?$char_traits@G@std@@@2@V32@AAVios_base@2@GPBX@Z 0048eef9 f i libcpmt:wlocale.obj
 0001:0008dfcb       ?do_decimal_point@?$numpunct@G@std@@MBEGXZ 0048efcb f i libcpmt:wlocale.obj
 0001:0008dfd0       ?do_thousands_sep@?$numpunct@G@std@@MBEGXZ 0048efd0 f i libcpmt:wlocale.obj
 0001:0008dfd5       ?do_grouping@?$numpunct@G@std@@MBE?AV?$basic_string@DU?$char_traits@D@std@@V?$allocator@D@2@@2@XZ 0048efd5 f i libcpmt:wlocale.obj
 0001:0008e00b       ?do_falsename@?$numpunct@G@std@@MBE?AV?$basic_string@GU?$char_traits@G@std@@V?$allocator@G@2@@2@XZ 0048f00b f i libcpmt:wlocale.obj
 0001:0008e041       ?do_truename@?$numpunct@G@std@@MBE?AV?$basic_string@GU?$char_traits@G@std@@V?$allocator@G@2@@2@XZ 0048f041 f i libcpmt:wlocale.obj
 0001:0008e077       ?do_compare@?$collate@G@std@@MBEHPBG000@Z 0048f077 f i libcpmt:wlocale.obj
 0001:0008e0ba       ?do_transform@?$collate@G@std@@MBE?AV?$basic_string@GU?$char_traits@G@std@@V?$allocator@G@2@@2@PBG0@Z 0048f0ba f i libcpmt:wlocale.obj
 0001:0008e191       ?do_hash@?$collate@G@std@@MBEJPBG0@Z 0048f191 f i libcpmt:wlocale.obj
 0001:0008e1b3       ?do_open@?$messages@G@std@@MBEHABV?$basic_string@DU?$char_traits@D@std@@V?$allocator@D@2@@2@ABVlocale@2@@Z 0048f1b3 f i libcpmt:wlocale.obj
 0001:0008e1b8       ?do_get@?$messages@G@std@@MBE?AV?$basic_string@GU?$char_traits@G@std@@V?$allocator@G@2@@2@HHHABV32@@Z 0048f1b8 f i libcpmt:wlocale.obj
 0001:0008e229       ?do_close@?$messages@G@std@@MBEXH@Z 0048f229 f i libcpmt:wlocale.obj
 0001:0008e22c       ?do_get@?$money_get@GV?$istreambuf_iterator@GU?$char_traits@G@std@@@std@@@std@@MBE?AV?$istreambuf_iterator@GU?$char_traits@G@std@@@2@V32@0_NAAVios_base@2@AAHAAO@Z 0048f22c f i libcpmt:wlocale.obj
 0001:0008e361       ?do_get@?$money_get@GV?$istreambuf_iterator@GU?$char_traits@G@std@@@std@@@std@@MBE?AV?$istreambuf_iterator@GU?$char_traits@G@std@@@2@V32@0_NAAVios_base@2@AAHAAV?$basic_string@GU?$char_traits@G@std@@V?$allocator@G@2@@2@@Z 0048f361 f i libcpmt:wlocale.obj
 0001:0008e3eb       ?do_put@?$money_put@GV?$ostreambuf_iterator@GU?$char_traits@G@std@@@std@@@std@@MBE?AV?$ostreambuf_iterator@GU?$char_traits@G@std@@@2@V32@_NAAVios_base@2@GO@Z 0048f3eb f i libcpmt:wlocale.obj
 0001:0008e51f       ?do_put@?$money_put@GV?$ostreambuf_iterator@GU?$char_traits@G@std@@@std@@@std@@MBE?AV?$ostreambuf_iterator@GU?$char_traits@G@std@@@2@V32@_NAAVios_base@2@GABV?$basic_string@GU?$char_traits@G@std@@V?$allocator@G@2@@2@@Z 0048f51f f i libcpmt:wlocale.obj
 0001:0008e65b       ?do_decimal_point@?$_Mpunct@G@std@@MBEGXZ 0048f65b f i libcpmt:wlocale.obj
 0001:0008e660       ?do_thousands_sep@?$_Mpunct@G@std@@MBEGXZ 0048f660 f i libcpmt:wlocale.obj
 0001:0008e665       ?do_grouping@?$_Mpunct@G@std@@MBE?AV?$basic_string@DU?$char_traits@D@std@@V?$allocator@D@2@@2@XZ 0048f665 f i libcpmt:wlocale.obj
 0001:0008e69b       ?do_curr_symbol@?$_Mpunct@G@std@@MBE?AV?$basic_string@GU?$char_traits@G@std@@V?$allocator@G@2@@2@XZ 0048f69b f i libcpmt:wlocale.obj
 0001:0008e6d1       ?do_positive_sign@?$_Mpunct@G@std@@MBE?AV?$basic_string@GU?$char_traits@G@std@@V?$allocator@G@2@@2@XZ 0048f6d1 f i libcpmt:wlocale.obj
 0001:0008e707       ?do_negative_sign@?$_Mpunct@G@std@@MBE?AV?$basic_string@GU?$char_traits@G@std@@V?$allocator@G@2@@2@XZ 0048f707 f i libcpmt:wlocale.obj
 0001:0008e73d       ?do_frac_digits@?$_Mpunct@G@std@@MBEHXZ 0048f73d f i libcpmt:wlocale.obj
 0001:0008e741       ?do_pos_format@?$_Mpunct@G@std@@MBE?AUpattern@money_base@2@XZ 0048f741 f i libcpmt:wlocale.obj
 0001:0008e74d       ?do_neg_format@?$_Mpunct@G@std@@MBE?AUpattern@money_base@2@XZ 0048f74d f i libcpmt:wlocale.obj
 0001:0008e759       ?do_date_order@?$time_get@GV?$istreambuf_iterator@GU?$char_traits@G@std@@@std@@@std@@MBEHXZ 0048f759 f i libcpmt:wlocale.obj
 0001:0008e75d       ?do_get_time@?$time_get@GV?$istreambuf_iterator@GU?$char_traits@G@std@@@std@@@std@@MBE?AV?$istreambuf_iterator@GU?$char_traits@G@std@@@2@V32@0AAVios_base@2@AAHPAUtm@@@Z 0048f75d f i libcpmt:wlocale.obj
 0001:0008e821       ?do_get_date@?$time_get@GV?$istreambuf_iterator@GU?$char_traits@G@std@@@std@@@std@@MBE?AV?$istreambuf_iterator@GU?$char_traits@G@std@@@2@V32@0AAVios_base@2@AAHPAUtm@@@Z 0048f821 f i libcpmt:wlocale.obj
 0001:0008e952       ?do_get_weekday@?$time_get@GV?$istreambuf_iterator@GU?$char_traits@G@std@@@std@@@std@@MBE?AV?$istreambuf_iterator@GU?$char_traits@G@std@@@2@V32@0AAVios_base@2@AAHPAUtm@@@Z 0048f952 f i libcpmt:wlocale.obj
 0001:0008e990       ?do_get_monthname@?$time_get@GV?$istreambuf_iterator@GU?$char_traits@G@std@@@std@@@std@@MBE?AV?$istreambuf_iterator@GU?$char_traits@G@std@@@2@V32@0AAVios_base@2@AAHPAUtm@@@Z 0048f990 f i libcpmt:wlocale.obj
 0001:0008e9ce       ?do_get_year@?$time_get@GV?$istreambuf_iterator@GU?$char_traits@G@std@@@std@@@std@@MBE?AV?$istreambuf_iterator@GU?$char_traits@G@std@@@2@V32@0AAVios_base@2@AAHPAUtm@@@Z 0048f9ce f i libcpmt:wlocale.obj
 0001:0008ea34       ??_G?$ctype@G@std@@UAEPAXI@Z 0048fa34 f i libcpmt:wlocale.obj
 0001:0008ea34       ??_E?$ctype@G@std@@UAEPAXI@Z 0048fa34 f i libcpmt:wlocale.obj
 0001:0008ea50       ??1?$ctype@G@std@@UAE@XZ   0048fa50 f i libcpmt:wlocale.obj
 0001:0008ea70       ??_G?$time_put@GV?$ostreambuf_iterator@GU?$char_traits@G@std@@@std@@@std@@UAEPAXI@Z 0048fa70 f i libcpmt:wlocale.obj
 0001:0008ea70       ??_E?$time_put@GV?$ostreambuf_iterator@GU?$char_traits@G@std@@@std@@@std@@UAEPAXI@Z 0048fa70 f i libcpmt:wlocale.obj
 0001:0008ea8c       ??1?$time_put@GV?$ostreambuf_iterator@GU?$char_traits@G@std@@@std@@@std@@UAE@XZ 0048fa8c f i libcpmt:wlocale.obj
 0001:0008eaa6       ??_G?$num_get@GV?$istreambuf_iterator@GU?$char_traits@G@std@@@std@@@std@@UAEPAXI@Z 0048faa6 f i libcpmt:wlocale.obj
 0001:0008eaa6       ??_E?$num_get@GV?$istreambuf_iterator@GU?$char_traits@G@std@@@std@@@std@@UAEPAXI@Z 0048faa6 f i libcpmt:wlocale.obj
 0001:0008eac2       ??1?$num_get@GV?$istreambuf_iterator@GU?$char_traits@G@std@@@std@@@std@@UAE@XZ 0048fac2 f i libcpmt:wlocale.obj
 0001:0008eac9       ??_E?$num_put@GV?$ostreambuf_iterator@GU?$char_traits@G@std@@@std@@@std@@UAEPAXI@Z 0048fac9 f i libcpmt:wlocale.obj
 0001:0008eac9       ??_G?$num_put@GV?$ostreambuf_iterator@GU?$char_traits@G@std@@@std@@@std@@UAEPAXI@Z 0048fac9 f i libcpmt:wlocale.obj
 0001:0008eae5       ??1?$num_put@GV?$ostreambuf_iterator@GU?$char_traits@G@std@@@std@@@std@@UAE@XZ 0048fae5 f i libcpmt:wlocale.obj
 0001:0008eaec       ??_E?$numpunct@G@std@@UAEPAXI@Z 0048faec f i libcpmt:wlocale.obj
 0001:0008eaec       ??_G?$numpunct@G@std@@UAEPAXI@Z 0048faec f i libcpmt:wlocale.obj
 0001:0008eb08       ??1?$numpunct@G@std@@UAE@XZ 0048fb08 f i libcpmt:wlocale.obj
 0001:0008eb34       ??_E?$collate@G@std@@UAEPAXI@Z 0048fb34 f i libcpmt:wlocale.obj
 0001:0008eb34       ??_G?$collate@G@std@@UAEPAXI@Z 0048fb34 f i libcpmt:wlocale.obj
 0001:0008eb50       ??1?$collate@G@std@@UAE@XZ 0048fb50 f i libcpmt:wlocale.obj
 0001:0008eb57       ??_G?$messages@G@std@@UAEPAXI@Z 0048fb57 f i libcpmt:wlocale.obj
 0001:0008eb57       ??_E?$messages@G@std@@UAEPAXI@Z 0048fb57 f i libcpmt:wlocale.obj
 0001:0008eb73       ??1?$messages@G@std@@UAE@XZ 0048fb73 f i libcpmt:wlocale.obj
 0001:0008eb96       ??_E?$money_get@GV?$istreambuf_iterator@GU?$char_traits@G@std@@@std@@@std@@UAEPAXI@Z 0048fb96 f i libcpmt:wlocale.obj
 0001:0008eb96       ??_G?$money_get@GV?$istreambuf_iterator@GU?$char_traits@G@std@@@std@@@std@@UAEPAXI@Z 0048fb96 f i libcpmt:wlocale.obj
 0001:0008ebb2       ??1?$money_get@GV?$istreambuf_iterator@GU?$char_traits@G@std@@@std@@@std@@UAE@XZ 0048fbb2 f i libcpmt:wlocale.obj
 0001:0008ebb9       ??_G?$money_put@GV?$ostreambuf_iterator@GU?$char_traits@G@std@@@std@@@std@@UAEPAXI@Z 0048fbb9 f i libcpmt:wlocale.obj
 0001:0008ebb9       ??_E?$money_put@GV?$ostreambuf_iterator@GU?$char_traits@G@std@@@std@@@std@@UAEPAXI@Z 0048fbb9 f i libcpmt:wlocale.obj
 0001:0008ebd5       ??1?$money_put@GV?$ostreambuf_iterator@GU?$char_traits@G@std@@@std@@@std@@UAE@XZ 0048fbd5 f i libcpmt:wlocale.obj
 0001:0008ebdc       ??_E?$moneypunct@G$0A@@std@@UAEPAXI@Z 0048fbdc f i libcpmt:wlocale.obj
 0001:0008ebdc       ??_G?$moneypunct@G$0A@@std@@UAEPAXI@Z 0048fbdc f i libcpmt:wlocale.obj
 0001:0008ebf8       ??_E?$moneypunct@G$00@std@@UAEPAXI@Z 0048fbf8 f i libcpmt:wlocale.obj
 0001:0008ebf8       ??_G?$moneypunct@G$00@std@@UAEPAXI@Z 0048fbf8 f i libcpmt:wlocale.obj
 0001:0008ec14       ??_G?$time_get@GV?$istreambuf_iterator@GU?$char_traits@G@std@@@std@@@std@@UAEPAXI@Z 0048fc14 f i libcpmt:wlocale.obj
 0001:0008ec14       ??_E?$time_get@GV?$istreambuf_iterator@GU?$char_traits@G@std@@@std@@@std@@UAEPAXI@Z 0048fc14 f i libcpmt:wlocale.obj
 0001:0008ec30       ??1?$time_get@GV?$istreambuf_iterator@GU?$char_traits@G@std@@@std@@@std@@UAE@XZ 0048fc30 f i libcpmt:wlocale.obj
 0001:0008ec53       ??1?$moneypunct@G$0A@@std@@UAE@XZ 0048fc53 f i libcpmt:wlocale.obj
 0001:0008ec58       ??1?$_Mpunct@G@std@@UAE@XZ 0048fc58 f i libcpmt:wlocale.obj
 0001:0008ec8c       ??_G?$_Mpunct@G@std@@UAEPAXI@Z 0048fc8c f i libcpmt:wlocale.obj
 0001:0008ec8c       ??_E?$_Mpunct@G@std@@UAEPAXI@Z 0048fc8c f i libcpmt:wlocale.obj
 0001:0008eca8       ??1?$moneypunct@G$00@std@@UAE@XZ 0048fca8 f i libcpmt:wlocale.obj
 0001:0008ecad       ?_Init@?$time_put@GV?$ostreambuf_iterator@GU?$char_traits@G@std@@@std@@@std@@IAEXABV_Locinfo@2@@Z 0048fcad f i libcpmt:wlocale.obj
 0001:0008ecd5       ?_Gettnames@_Locinfo@std@@QBE?AV_Timevec@2@XZ 0048fcd5 f i libcpmt:wlocale.obj
 0001:0008eced       ??4?$ostreambuf_iterator@GU?$char_traits@G@std@@@std@@QAEAAV01@G@Z 0048fced f i libcpmt:wlocale.obj
 0001:0008ed0f       ?sputc@?$basic_streambuf@GU?$char_traits@G@std@@@std@@QAEGG@Z 0048fd0f f i libcpmt:wlocale.obj
 0001:0008ed40       ?_Getifld@?$num_get@GV?$istreambuf_iterator@GU?$char_traits@G@std@@@std@@@std@@CAHPADAAV?$istreambuf_iterator@GU?$char_traits@G@std@@@2@1HABVlocale@2@@Z 0048fd40 f i libcpmt:wlocale.obj
 0001:0008f10f       ?_Getffld@?$num_get@GV?$istreambuf_iterator@GU?$char_traits@G@std@@@std@@@std@@CAHPADAAV?$istreambuf_iterator@GU?$char_traits@G@std@@@2@1ABVlocale@2@@Z 0049010f f i libcpmt:wlocale.obj
 0001:0008f45a       ?_Ffmt@?$num_put@GV?$ostreambuf_iterator@GU?$char_traits@G@std@@@std@@@std@@KAPADPADDH@Z 0049045a f i libcpmt:wlocale.obj
 0001:0008f4b8       ?_Fput@?$num_put@GV?$ostreambuf_iterator@GU?$char_traits@G@std@@@std@@@std@@KA?AV?$ostreambuf_iterator@GU?$char_traits@G@std@@@2@V32@AAVios_base@2@GPBDII@Z 004904b8 f i libcpmt:wlocale.obj
 0001:0008f79d       ?_Ifmt@?$num_put@GV?$ostreambuf_iterator@GU?$char_traits@G@std@@@std@@@std@@KAPADPADDH@Z 0049079d f i libcpmt:wlocale.obj
 0001:0008f7f7       ?_Iput@?$num_put@GV?$ostreambuf_iterator@GU?$char_traits@G@std@@@std@@@std@@KA?AV?$ostreambuf_iterator@GU?$char_traits@G@std@@@2@V32@AAVios_base@2@GPADI@Z 004907f7 f i libcpmt:wlocale.obj
 0001:0008faa5       ?falsename@?$numpunct@G@std@@QBE?AV?$basic_string@GU?$char_traits@G@std@@V?$allocator@G@2@@2@XZ 00490aa5 f i libcpmt:wlocale.obj
 0001:0008fabc       ?truename@?$numpunct@G@std@@QBE?AV?$basic_string@GU?$char_traits@G@std@@V?$allocator@G@2@@2@XZ 00490abc f i libcpmt:wlocale.obj
 0001:0008fad3       ?_Init@?$numpunct@G@std@@IAEXABV_Locinfo@2@@Z 00490ad3 f i libcpmt:wlocale.obj
 0001:0008fb30       ?_Init@?$messages@G@std@@IAEXABV_Locinfo@2@@Z 00490b30 f i libcpmt:wlocale.obj
 0001:0008fb58       ?_Getmfld@?$money_get@GV?$istreambuf_iterator@GU?$char_traits@G@std@@@std@@@std@@ABE?AV?$basic_string@GU?$char_traits@G@std@@V?$allocator@G@2@@2@AAV?$istreambuf_iterator@GU?$char_traits@G@std@@@2@0_NAAVios_base@2@@Z 00490b58 f i libcpmt:wlocale.obj
 0001:00090406       ?_Putmfld@?$money_put@GV?$ostreambuf_iterator@GU?$char_traits@G@std@@@std@@@std@@ABE?AV?$ostreambuf_iterator@GU?$char_traits@G@std@@@2@V32@_NAAVios_base@2@G1V?$basic_string@GU?$char_traits@G@std@@V?$allocator@G@2@@2@@Z 00491406 f i libcpmt:wlocale.obj
 0001:000909d4       ??1?$basic_string@GU?$char_traits@G@std@@V?$allocator@G@2@@std@@QAE@XZ 004919d4 f i libcpmt:wlocale.obj
 0001:000909dc       ?append@?$basic_string@GU?$char_traits@G@std@@V?$allocator@G@2@@std@@QAEAAV12@IG@Z 004919dc f i libcpmt:wlocale.obj
 0001:00090a45       ?resize@?$basic_string@GU?$char_traits@G@std@@V?$allocator@G@2@@std@@QAEXI@Z 00491a45 f i libcpmt:wlocale.obj
 0001:00090a6b       ??0?$_Mpunct@G@std@@QAE@ABV_Locinfo@1@I_N@Z 00491a6b f i libcpmt:wlocale.obj
 0001:00090aab       ??1money_base@std@@UAE@XZ  00491aab f i libcpmt:wlocale.obj
 0001:00090ab2       ?_Init@?$time_get@GV?$istreambuf_iterator@GU?$char_traits@G@std@@@std@@@std@@IAEXABV_Locinfo@2@@Z 00491ab2 f i libcpmt:wlocale.obj
 0001:00090ae5       ?_Getdays@_Locinfo@std@@QBEPBDXZ 00491ae5 f i libcpmt:wlocale.obj
 0001:00090b2b       ?_Getmonths@_Locinfo@std@@QBEPBDXZ 00491b2b f i libcpmt:wlocale.obj
 0001:00090b72       ?_Getint@?$time_get@GV?$istreambuf_iterator@GU?$char_traits@G@std@@@std@@@std@@CAHAAV?$istreambuf_iterator@GU?$char_traits@G@std@@@2@0HHAAH@Z 00491b72 f i libcpmt:wlocale.obj
 0001:00090cc9       ?_Inc@?$istreambuf_iterator@GU?$char_traits@G@std@@@std@@AAEXXZ 00491cc9 f i libcpmt:wlocale.obj
 0001:00090cec       ?sbumpc@?$basic_streambuf@GU?$char_traits@G@std@@@std@@QAEGXZ 00491cec f i libcpmt:wlocale.obj
 0001:00090d10       ?_Peek@?$istreambuf_iterator@GU?$char_traits@G@std@@@std@@AAEGXZ 00491d10 f i libcpmt:wlocale.obj
 0001:00090d37       ?sgetc@?$basic_streambuf@GU?$char_traits@G@std@@@std@@QAEGXZ 00491d37 f i libcpmt:wlocale.obj
 0001:00090d56       ?grouping@?$numpunct@G@std@@QBE?AV?$basic_string@DU?$char_traits@D@std@@V?$allocator@D@2@@2@XZ 00491d56 f i libcpmt:wlocale.obj
 0001:00090d6d       ?assign@?$basic_string@GU?$char_traits@G@std@@V?$allocator@G@2@@std@@QAEAAV12@ABV12@II@Z 00491d6d f i libcpmt:wlocale.obj
 0001:00090e4b       ?assign@?$basic_string@GU?$char_traits@G@std@@V?$allocator@G@2@@std@@QAEAAV12@PBGI@Z 00491e4b f i libcpmt:wlocale.obj
 0001:00090e8d       ?assign@?$basic_string@GU?$char_traits@G@std@@V?$allocator@G@2@@std@@QAEAAV12@IG@Z 00491e8d f i libcpmt:wlocale.obj
 0001:00090ee5       ?insert@?$basic_string@GU?$char_traits@G@std@@V?$allocator@G@2@@std@@QAEAAV12@IIG@Z 00491ee5 f i libcpmt:wlocale.obj
 0001:00090f7a       _wmemmove                  00491f7a f i libcpmt:wlocale.obj
 0001:00090fbf       ?erase@?$basic_string@GU?$char_traits@G@std@@V?$allocator@G@2@@std@@QAEAAV12@II@Z 00491fbf f i libcpmt:wlocale.obj
 0001:0009102b       ?_Freeze@?$basic_string@GU?$char_traits@G@std@@V?$allocator@G@2@@std@@AAEXXZ 0049202b f i libcpmt:wlocale.obj
 0001:00091057       ?_Grow@?$basic_string@GU?$char_traits@G@std@@V?$allocator@G@2@@std@@AAE_NI_N@Z 00492057 f i libcpmt:wlocale.obj
 0001:000910e0       ?_Tidy@?$basic_string@GU?$char_traits@G@std@@V?$allocator@G@2@@std@@AAEX_N@Z 004920e0 f i libcpmt:wlocale.obj
 0001:0009111d       ?grouping@?$_Mpunct@G@std@@QBE?AV?$basic_string@DU?$char_traits@D@std@@V?$allocator@D@2@@2@XZ 0049211d f i libcpmt:wlocale.obj
 0001:00091134       ?curr_symbol@?$_Mpunct@G@std@@QBE?AV?$basic_string@GU?$char_traits@G@std@@V?$allocator@G@2@@2@XZ 00492134 f i libcpmt:wlocale.obj
 0001:0009114b       ?positive_sign@?$_Mpunct@G@std@@QBE?AV?$basic_string@GU?$char_traits@G@std@@V?$allocator@G@2@@2@XZ 0049214b f i libcpmt:wlocale.obj
 0001:00091162       ?negative_sign@?$_Mpunct@G@std@@QBE?AV?$basic_string@GU?$char_traits@G@std@@V?$allocator@G@2@@2@XZ 00492162 f i libcpmt:wlocale.obj
 0001:00091179       ?_Init@?$_Mpunct@G@std@@IAEXABV_Locinfo@2@@Z 00492179 f i libcpmt:wlocale.obj
 0001:00091264       ?append@?$basic_string@GU?$char_traits@G@std@@V?$allocator@G@2@@std@@QAEAAV12@ABV12@II@Z 00492264 f i libcpmt:wlocale.obj
 0001:000912f6       ?_Copy@?$basic_string@GU?$char_traits@G@std@@V?$allocator@G@2@@std@@AAEXI@Z 004922f6 f i libcpmt:wlocale.obj
 0001:000913c8       ?_Split@?$basic_string@GU?$char_traits@G@std@@V?$allocator@G@2@@std@@AAEXXZ 004923c8 f i libcpmt:wlocale.obj
 0001:000913f8       ?_Makpat@?$_Mpunct@G@std@@AAEXAAUpattern@money_base@2@DDD@Z 004923f8 f i libcpmt:wlocale.obj
 0001:00091459       ?use_facet@std@@YAABV?$ctype@G@1@ABVlocale@1@PBV21@_N@Z 00492459 f i libcpmt:wlocale.obj
 0001:0009151d       ?use_facet@std@@YAABV?$num_get@GV?$istreambuf_iterator@GU?$char_traits@G@std@@@std@@@1@ABVlocale@1@PBV21@_N@Z 0049251d f i libcpmt:wlocale.obj
 0001:000915f9       ?use_facet@std@@YAABV?$num_put@GV?$ostreambuf_iterator@GU?$char_traits@G@std@@@std@@@1@ABVlocale@1@PBV21@_N@Z 004925f9 f i libcpmt:wlocale.obj
 0001:000916d5       ?use_facet@std@@YAABV?$numpunct@G@1@ABVlocale@1@PBV21@_N@Z 004926d5 f i libcpmt:wlocale.obj
 0001:00091799       ?use_facet@std@@YAABV?$collate@G@1@ABVlocale@1@PBV21@_N@Z 00492799 f i libcpmt:wlocale.obj
 0001:0009185d       ?use_facet@std@@YAABV?$messages@G@1@ABVlocale@1@PBV21@_N@Z 0049285d f i libcpmt:wlocale.obj
 0001:00091921       ?use_facet@std@@YAABV?$money_get@GV?$istreambuf_iterator@GU?$char_traits@G@std@@@std@@@1@ABVlocale@1@PBV21@_N@Z 00492921 f i libcpmt:wlocale.obj
 0001:000919fd       ?use_facet@std@@YAABV?$money_put@GV?$ostreambuf_iterator@GU?$char_traits@G@std@@@std@@@1@ABVlocale@1@PBV21@_N@Z 004929fd f i libcpmt:wlocale.obj
 0001:00091ad9       ?use_facet@std@@YAABV?$moneypunct@G$0A@@1@ABVlocale@1@PBV21@_N@Z 00492ad9 f i libcpmt:wlocale.obj
 0001:00091ba8       ?use_facet@std@@YAABV?$moneypunct@G$00@1@ABVlocale@1@PBV21@_N@Z 00492ba8 f i libcpmt:wlocale.obj
 0001:00091c77       ?use_facet@std@@YAABV?$time_get@GV?$istreambuf_iterator@GU?$char_traits@G@std@@@std@@@1@ABVlocale@1@PBV21@_N@Z 00492c77 f i libcpmt:wlocale.obj
 0001:00091d3b       ?use_facet@std@@YAABV?$time_put@GV?$ostreambuf_iterator@GU?$char_traits@G@std@@@std@@@1@ABVlocale@1@PBV21@_N@Z 00492d3b f i libcpmt:wlocale.obj
 0001:00091dff       ?use_facet@std@@YAABV?$codecvt@GDH@1@ABVlocale@1@PBV21@_N@Z 00492dff f i libcpmt:wlocale.obj
 0001:00091ec3       ??0?$codecvt@GDH@std@@QAE@I@Z 00492ec3 f i libcpmt:wlocale.obj
 0001:00091f17       ?_Getloctxt@std@@YAHAAV?$istreambuf_iterator@GU?$char_traits@G@std@@@1@0IPBG@Z 00492f17 f i libcpmt:wlocale.obj
 0001:000920e3       ?_Maklocstr@std@@YAPAGPBDPAG@Z 004930e3 f i libcpmt:wlocale.obj
 0001:00092121       ??0?$ctype@G@std@@QAE@I@Z  00493121 f i libcpmt:wlocale.obj
 0001:00092181       ??0?$time_put@GV?$ostreambuf_iterator@GU?$char_traits@G@std@@@std@@@std@@QAE@I@Z 00493181 f i libcpmt:wlocale.obj
 0001:000921ee       ?equal@?$istreambuf_iterator@GU?$char_traits@G@std@@@std@@QBE_NABV12@@Z 004931ee f i libcpmt:wlocale.obj
 0001:0009222d       ??0?$numpunct@G@std@@QAE@I@Z 0049322d f i libcpmt:wlocale.obj
 0001:00092286       ??0?$collate@G@std@@QAE@I@Z 00493286 f i libcpmt:wlocale.obj
 0001:000922da       ??0?$messages@G@std@@QAE@I@Z 004932da f i libcpmt:wlocale.obj
 0001:0009234c       ??0?$time_get@GV?$istreambuf_iterator@GU?$char_traits@G@std@@@std@@@std@@QAE@I@Z 0049334c f i libcpmt:wlocale.obj
 0001:000923a5       ?_Save@?$_Tidyfac@V?$ctype@G@std@@@std@@SAPAV?$ctype@G@2@PAV32@@Z 004933a5 f i libcpmt:wlocale.obj
 0001:000923f3       ?_Save@?$_Tidyfac@V?$num_get@GV?$istreambuf_iterator@GU?$char_traits@G@std@@@std@@@std@@@std@@SAPAV?$num_get@GV?$istreambuf_iterator@GU?$char_traits@G@std@@@std@@@2@PAV32@@Z 004933f3 f i libcpmt:wlocale.obj
 0001:00092441       ?_Save@?$_Tidyfac@V?$num_put@GV?$ostreambuf_iterator@GU?$char_traits@G@std@@@std@@@std@@@std@@SAPAV?$num_put@GV?$ostreambuf_iterator@GU?$char_traits@G@std@@@std@@@2@PAV32@@Z 00493441 f i libcpmt:wlocale.obj
 0001:0009248f       ?_Save@?$_Tidyfac@V?$numpunct@G@std@@@std@@SAPAV?$numpunct@G@2@PAV32@@Z 0049348f f i libcpmt:wlocale.obj
 0001:000924dd       ?_Save@?$_Tidyfac@V?$collate@G@std@@@std@@SAPAV?$collate@G@2@PAV32@@Z 004934dd f i libcpmt:wlocale.obj
 0001:0009252b       ?_Save@?$_Tidyfac@V?$messages@G@std@@@std@@SAPAV?$messages@G@2@PAV32@@Z 0049352b f i libcpmt:wlocale.obj
 0001:00092579       ?_Save@?$_Tidyfac@V?$money_get@GV?$istreambuf_iterator@GU?$char_traits@G@std@@@std@@@std@@@std@@SAPAV?$money_get@GV?$istreambuf_iterator@GU?$char_traits@G@std@@@std@@@2@PAV32@@Z 00493579 f i libcpmt:wlocale.obj
 0001:000925c7       ?_Save@?$_Tidyfac@V?$money_put@GV?$ostreambuf_iterator@GU?$char_traits@G@std@@@std@@@std@@@std@@SAPAV?$money_put@GV?$ostreambuf_iterator@GU?$char_traits@G@std@@@std@@@2@PAV32@@Z 004935c7 f i libcpmt:wlocale.obj
 0001:00092615       ?_Save@?$_Tidyfac@V?$moneypunct@G$0A@@std@@@std@@SAPAV?$moneypunct@G$0A@@2@PAV32@@Z 00493615 f i libcpmt:wlocale.obj
 0001:00092663       ?_Save@?$_Tidyfac@V?$moneypunct@G$00@std@@@std@@SAPAV?$moneypunct@G$00@2@PAV32@@Z 00493663 f i libcpmt:wlocale.obj
 0001:000926b1       ?_Save@?$_Tidyfac@V?$time_get@GV?$istreambuf_iterator@GU?$char_traits@G@std@@@std@@@std@@@std@@SAPAV?$time_get@GV?$istreambuf_iterator@GU?$char_traits@G@std@@@std@@@2@PAV32@@Z 004936b1 f i libcpmt:wlocale.obj
 0001:000926ff       ?_Save@?$_Tidyfac@V?$time_put@GV?$ostreambuf_iterator@GU?$char_traits@G@std@@@std@@@std@@@std@@SAPAV?$time_put@GV?$ostreambuf_iterator@GU?$char_traits@G@std@@@std@@@2@PAV32@@Z 004936ff f i libcpmt:wlocale.obj
 0001:0009274d       ?_Save@?$_Tidyfac@V?$codecvt@GDH@std@@@std@@SAPAV?$codecvt@GDH@2@PAV32@@Z 0049374d f i libcpmt:wlocale.obj
 0001:0009279b       ??0?$_Mpunct@G@std@@QAE@I_N@Z 0049379b f i libcpmt:wlocale.obj
 0001:000927fa       ?_Tidy@?$_Tidyfac@V?$ctype@G@std@@@std@@SAXXZ 004937fa f i libcpmt:wlocale.obj
 0001:00092847       ?_Tidy@?$_Tidyfac@V?$num_get@GV?$istreambuf_iterator@GU?$char_traits@G@std@@@std@@@std@@@std@@SAXXZ 00493847 f i libcpmt:wlocale.obj
 0001:00092894       ?_Tidy@?$_Tidyfac@V?$num_put@GV?$ostreambuf_iterator@GU?$char_traits@G@std@@@std@@@std@@@std@@SAXXZ 00493894 f i libcpmt:wlocale.obj
 0001:000928e1       ?_Tidy@?$_Tidyfac@V?$numpunct@G@std@@@std@@SAXXZ 004938e1 f i libcpmt:wlocale.obj
 0001:0009292e       ?_Tidy@?$_Tidyfac@V?$collate@G@std@@@std@@SAXXZ 0049392e f i libcpmt:wlocale.obj
 0001:0009297b       ?_Tidy@?$_Tidyfac@V?$messages@G@std@@@std@@SAXXZ 0049397b f i libcpmt:wlocale.obj
 0001:000929c8       ?_Tidy@?$_Tidyfac@V?$money_get@GV?$istreambuf_iterator@GU?$char_traits@G@std@@@std@@@std@@@std@@SAXXZ 004939c8 f i libcpmt:wlocale.obj
 0001:00092a15       ?_Tidy@?$_Tidyfac@V?$money_put@GV?$ostreambuf_iterator@GU?$char_traits@G@std@@@std@@@std@@@std@@SAXXZ 00493a15 f i libcpmt:wlocale.obj
 0001:00092a62       ?_Tidy@?$_Tidyfac@V?$moneypunct@G$0A@@std@@@std@@SAXXZ 00493a62 f i libcpmt:wlocale.obj
 0001:00092aaf       ?_Tidy@?$_Tidyfac@V?$moneypunct@G$00@std@@@std@@SAXXZ 00493aaf f i libcpmt:wlocale.obj
 0001:00092afc       ?_Tidy@?$_Tidyfac@V?$time_get@GV?$istreambuf_iterator@GU?$char_traits@G@std@@@std@@@std@@@std@@SAXXZ 00493afc f i libcpmt:wlocale.obj
 0001:00092b49       ?_Tidy@?$_Tidyfac@V?$time_put@GV?$ostreambuf_iterator@GU?$char_traits@G@std@@@std@@@std@@@std@@SAXXZ 00493b49 f i libcpmt:wlocale.obj
 0001:00092b96       ?_Tidy@?$_Tidyfac@V?$codecvt@GDH@std@@@std@@SAXXZ 00493b96 f i libcpmt:wlocale.obj
 0001:00092c04       ?_Makexloc@_Locimp@locale@std@@CAXABV_Locinfo@3@HPAV123@PBV23@@Z 00493c04 f   libcpmt:xlocale.obj
 0001:00092f5c       ?do_compare@?$collate@D@std@@MBEHPBD000@Z 00493f5c f i libcpmt:xlocale.obj
 0001:00092f9a       ?do_transform@?$collate@D@std@@MBE?AV?$basic_string@DU?$char_traits@D@std@@V?$allocator@D@2@@2@PBD0@Z 00493f9a f i libcpmt:xlocale.obj
 0001:00093069       ?do_hash@?$collate@D@std@@MBEJPBD0@Z 00494069 f i libcpmt:xlocale.obj
 0001:0009308a       ?do_open@?$messages@D@std@@MBEHABV?$basic_string@DU?$char_traits@D@std@@V?$allocator@D@2@@2@ABVlocale@2@@Z 0049408a f i libcpmt:xlocale.obj
 0001:0009308f       ?do_get@?$messages@D@std@@MBE?AV?$basic_string@DU?$char_traits@D@std@@V?$allocator@D@2@@2@HHHABV32@@Z 0049408f f i libcpmt:xlocale.obj
 0001:00093100       ?do_close@?$messages@D@std@@MBEXH@Z 00494100 f i libcpmt:xlocale.obj
 0001:00093103       ?do_get@?$money_get@DV?$istreambuf_iterator@DU?$char_traits@D@std@@@std@@@std@@MBE?AV?$istreambuf_iterator@DU?$char_traits@D@std@@@2@V32@0_NAAVios_base@2@AAHAAO@Z 00494103 f i libcpmt:xlocale.obj
 0001:00093231       ?do_get@?$money_get@DV?$istreambuf_iterator@DU?$char_traits@D@std@@@std@@@std@@MBE?AV?$istreambuf_iterator@DU?$char_traits@D@std@@@2@V32@0_NAAVios_base@2@AAHAAV?$basic_string@DU?$char_traits@D@std@@V?$allocator@D@2@@2@@Z 00494231 f i libcpmt:xlocale.obj
 0001:000932bb       ?do_put@?$money_put@DV?$ostreambuf_iterator@DU?$char_traits@D@std@@@std@@@std@@MBE?AV?$ostreambuf_iterator@DU?$char_traits@D@std@@@2@V32@_NAAVios_base@2@DO@Z 004942bb f i libcpmt:xlocale.obj
 0001:000933e5       ?do_put@?$money_put@DV?$ostreambuf_iterator@DU?$char_traits@D@std@@@std@@@std@@MBE?AV?$ostreambuf_iterator@DU?$char_traits@D@std@@@2@V32@_NAAVios_base@2@DABV?$basic_string@DU?$char_traits@D@std@@V?$allocator@D@2@@2@@Z 004943e5 f i libcpmt:xlocale.obj
 0001:000934fd       ?do_decimal_point@?$_Mpunct@D@std@@MBEDXZ 004944fd f i libcpmt:xlocale.obj
 0001:00093501       ?do_thousands_sep@?$_Mpunct@D@std@@MBEDXZ 00494501 f i libcpmt:xlocale.obj
 0001:00093505       ?do_grouping@?$_Mpunct@D@std@@MBE?AV?$basic_string@DU?$char_traits@D@std@@V?$allocator@D@2@@2@XZ 00494505 f i libcpmt:xlocale.obj
 0001:0009353b       ?do_curr_symbol@?$_Mpunct@D@std@@MBE?AV?$basic_string@DU?$char_traits@D@std@@V?$allocator@D@2@@2@XZ 0049453b f i libcpmt:xlocale.obj
 0001:00093571       ?do_positive_sign@?$_Mpunct@D@std@@MBE?AV?$basic_string@DU?$char_traits@D@std@@V?$allocator@D@2@@2@XZ 00494571 f i libcpmt:xlocale.obj
 0001:000935a7       ?do_negative_sign@?$_Mpunct@D@std@@MBE?AV?$basic_string@DU?$char_traits@D@std@@V?$allocator@D@2@@2@XZ 004945a7 f i libcpmt:xlocale.obj
 0001:000935dd       ?do_frac_digits@?$_Mpunct@D@std@@MBEHXZ 004945dd f i libcpmt:xlocale.obj
 0001:000935e1       ?do_pos_format@?$_Mpunct@D@std@@MBE?AUpattern@money_base@2@XZ 004945e1 f i libcpmt:xlocale.obj
 0001:000935ed       ?do_neg_format@?$_Mpunct@D@std@@MBE?AUpattern@money_base@2@XZ 004945ed f i libcpmt:xlocale.obj
 0001:000935f9       ?do_date_order@?$time_get@DV?$istreambuf_iterator@DU?$char_traits@D@std@@@std@@@std@@MBEHXZ 004945f9 f i libcpmt:xlocale.obj
 0001:000935fd       ?do_get_time@?$time_get@DV?$istreambuf_iterator@DU?$char_traits@D@std@@@std@@@std@@MBE?AV?$istreambuf_iterator@DU?$char_traits@D@std@@@2@V32@0AAVios_base@2@AAHPAUtm@@@Z 004945fd f i libcpmt:xlocale.obj
 0001:000936ae       ?do_get_date@?$time_get@DV?$istreambuf_iterator@DU?$char_traits@D@std@@@std@@@std@@MBE?AV?$istreambuf_iterator@DU?$char_traits@D@std@@@2@V32@0AAVios_base@2@AAHPAUtm@@@Z 004946ae f i libcpmt:xlocale.obj
 0001:000937c3       ?do_get_weekday@?$time_get@DV?$istreambuf_iterator@DU?$char_traits@D@std@@@std@@@std@@MBE?AV?$istreambuf_iterator@DU?$char_traits@D@std@@@2@V32@0AAVios_base@2@AAHPAUtm@@@Z 004947c3 f i libcpmt:xlocale.obj
 0001:00093801       ?do_get_monthname@?$time_get@DV?$istreambuf_iterator@DU?$char_traits@D@std@@@std@@@std@@MBE?AV?$istreambuf_iterator@DU?$char_traits@D@std@@@2@V32@0AAVios_base@2@AAHPAUtm@@@Z 00494801 f i libcpmt:xlocale.obj
 0001:0009383f       ?do_get_year@?$time_get@DV?$istreambuf_iterator@DU?$char_traits@D@std@@@std@@@std@@MBE?AV?$istreambuf_iterator@DU?$char_traits@D@std@@@2@V32@0AAVios_base@2@AAHPAUtm@@@Z 0049483f f i libcpmt:xlocale.obj
 0001:000938a5       ?do_put@?$time_put@DV?$ostreambuf_iterator@DU?$char_traits@D@std@@@std@@@std@@MBE?AV?$ostreambuf_iterator@DU?$char_traits@D@std@@@2@V32@AAVios_base@2@PBUtm@@DD@Z 004948a5 f i libcpmt:xlocale.obj
 0001:0009397e       ??_G?$collate@D@std@@UAEPAXI@Z 0049497e f i libcpmt:xlocale.obj
 0001:0009397e       ??_E?$collate@D@std@@UAEPAXI@Z 0049497e f i libcpmt:xlocale.obj
 0001:0009399a       ??1?$collate@D@std@@UAE@XZ 0049499a f i libcpmt:xlocale.obj
 0001:000939a1       ??_E?$messages@D@std@@UAEPAXI@Z 004949a1 f i libcpmt:xlocale.obj
 0001:000939a1       ??_G?$messages@D@std@@UAEPAXI@Z 004949a1 f i libcpmt:xlocale.obj
 0001:000939bd       ??1?$messages@D@std@@UAE@XZ 004949bd f i libcpmt:xlocale.obj
 0001:000939e0       ??_G?$money_get@DV?$istreambuf_iterator@DU?$char_traits@D@std@@@std@@@std@@UAEPAXI@Z 004949e0 f i libcpmt:xlocale.obj
 0001:000939e0       ??_E?$money_get@DV?$istreambuf_iterator@DU?$char_traits@D@std@@@std@@@std@@UAEPAXI@Z 004949e0 f i libcpmt:xlocale.obj
 0001:000939fc       ??1?$money_get@DV?$istreambuf_iterator@DU?$char_traits@D@std@@@std@@@std@@UAE@XZ 004949fc f i libcpmt:xlocale.obj
 0001:00093a03       ??_E?$money_put@DV?$ostreambuf_iterator@DU?$char_traits@D@std@@@std@@@std@@UAEPAXI@Z 00494a03 f i libcpmt:xlocale.obj
 0001:00093a03       ??_G?$money_put@DV?$ostreambuf_iterator@DU?$char_traits@D@std@@@std@@@std@@UAEPAXI@Z 00494a03 f i libcpmt:xlocale.obj
 0001:00093a1f       ??1?$money_put@DV?$ostreambuf_iterator@DU?$char_traits@D@std@@@std@@@std@@UAE@XZ 00494a1f f i libcpmt:xlocale.obj
 0001:00093a26       ??_G?$moneypunct@D$0A@@std@@UAEPAXI@Z 00494a26 f i libcpmt:xlocale.obj
 0001:00093a26       ??_E?$moneypunct@D$0A@@std@@UAEPAXI@Z 00494a26 f i libcpmt:xlocale.obj
 0001:00093a42       ??_E?$moneypunct@D$00@std@@UAEPAXI@Z 00494a42 f i libcpmt:xlocale.obj
 0001:00093a42       ??_G?$moneypunct@D$00@std@@UAEPAXI@Z 00494a42 f i libcpmt:xlocale.obj
 0001:00093a5e       ??_G?$time_get@DV?$istreambuf_iterator@DU?$char_traits@D@std@@@std@@@std@@UAEPAXI@Z 00494a5e f i libcpmt:xlocale.obj
 0001:00093a5e       ??_E?$time_get@DV?$istreambuf_iterator@DU?$char_traits@D@std@@@std@@@std@@UAEPAXI@Z 00494a5e f i libcpmt:xlocale.obj
 0001:00093a7a       ??1?$time_get@DV?$istreambuf_iterator@DU?$char_traits@D@std@@@std@@@std@@UAE@XZ 00494a7a f i libcpmt:xlocale.obj
 0001:00093a9d       ??_G?$time_put@DV?$ostreambuf_iterator@DU?$char_traits@D@std@@@std@@@std@@UAEPAXI@Z 00494a9d f i libcpmt:xlocale.obj
 0001:00093a9d       ??_E?$time_put@DV?$ostreambuf_iterator@DU?$char_traits@D@std@@@std@@@std@@UAEPAXI@Z 00494a9d f i libcpmt:xlocale.obj
 0001:00093ab9       ??1?$time_put@DV?$ostreambuf_iterator@DU?$char_traits@D@std@@@std@@@std@@UAE@XZ 00494ab9 f i libcpmt:xlocale.obj
 0001:00093ad3       ??1?$moneypunct@D$0A@@std@@UAE@XZ 00494ad3 f i libcpmt:xlocale.obj
 0001:00093ad8       ??1?$_Mpunct@D@std@@UAE@XZ 00494ad8 f i libcpmt:xlocale.obj
 0001:00093b0c       ??_G?$_Mpunct@D@std@@UAEPAXI@Z 00494b0c f i libcpmt:xlocale.obj
 0001:00093b0c       ??_E?$_Mpunct@D@std@@UAEPAXI@Z 00494b0c f i libcpmt:xlocale.obj
 0001:00093b28       ??1?$moneypunct@D$00@std@@UAE@XZ 00494b28 f i libcpmt:xlocale.obj
 0001:00093b2d       ?resize@?$basic_string@DU?$char_traits@D@std@@V?$allocator@D@2@@std@@QAEXI@Z 00494b2d f i libcpmt:xlocale.obj
 0001:00093b53       ?_Init@?$messages@D@std@@IAEXABV_Locinfo@2@@Z 00494b53 f i libcpmt:xlocale.obj
 0001:00093b7b       ?_Getmfld@?$money_get@DV?$istreambuf_iterator@DU?$char_traits@D@std@@@std@@@std@@ABE?AV?$basic_string@DU?$char_traits@D@std@@V?$allocator@D@2@@2@AAV?$istreambuf_iterator@DU?$char_traits@D@std@@@2@0_NAAVios_base@2@@Z 00494b7b f i libcpmt:xlocale.obj
 0001:000943f0       ?_Putmfld@?$money_put@DV?$ostreambuf_iterator@DU?$char_traits@D@std@@@std@@@std@@ABE?AV?$ostreambuf_iterator@DU?$char_traits@D@std@@@2@V32@_NAAVios_base@2@D1V?$basic_string@DU?$char_traits@D@std@@V?$allocator@D@2@@2@@Z 004953f0 f i libcpmt:xlocale.obj
 0001:0009499b       ??0?$_Mpunct@D@std@@QAE@ABV_Locinfo@1@I_N@Z 0049599b f i libcpmt:xlocale.obj
 0001:000949db       ?_Init@?$time_get@DV?$istreambuf_iterator@DU?$char_traits@D@std@@@std@@@std@@IAEXABV_Locinfo@2@@Z 004959db f i libcpmt:xlocale.obj
 0001:00094a0e       ?_Getint@?$time_get@DV?$istreambuf_iterator@DU?$char_traits@D@std@@@std@@@std@@CAHAAV?$istreambuf_iterator@DU?$char_traits@D@std@@@2@0HHAAH@Z 00495a0e f i libcpmt:xlocale.obj
 0001:00094b45       ?_Init@?$time_put@DV?$ostreambuf_iterator@DU?$char_traits@D@std@@@std@@@std@@IAEXABV_Locinfo@2@@Z 00495b45 f i libcpmt:xlocale.obj
 0001:00094b6d       ?insert@?$basic_string@DU?$char_traits@D@std@@V?$allocator@D@2@@std@@QAEAAV12@IID@Z 00495b6d f i libcpmt:xlocale.obj
 0001:00094bec       ?grouping@?$_Mpunct@D@std@@QBE?AV?$basic_string@DU?$char_traits@D@std@@V?$allocator@D@2@@2@XZ 00495bec f i libcpmt:xlocale.obj
 0001:00094c03       ?curr_symbol@?$_Mpunct@D@std@@QBE?AV?$basic_string@DU?$char_traits@D@std@@V?$allocator@D@2@@2@XZ 00495c03 f i libcpmt:xlocale.obj
 0001:00094c1a       ?positive_sign@?$_Mpunct@D@std@@QBE?AV?$basic_string@DU?$char_traits@D@std@@V?$allocator@D@2@@2@XZ 00495c1a f i libcpmt:xlocale.obj
 0001:00094c31       ?negative_sign@?$_Mpunct@D@std@@QBE?AV?$basic_string@DU?$char_traits@D@std@@V?$allocator@D@2@@2@XZ 00495c31 f i libcpmt:xlocale.obj
 0001:00094c48       ?_Init@?$_Mpunct@D@std@@IAEXABV_Locinfo@2@@Z 00495c48 f i libcpmt:xlocale.obj
 0001:00094d22       ?_Makpat@?$_Mpunct@D@std@@AAEXAAUpattern@money_base@2@DDD@Z 00495d22 f i libcpmt:xlocale.obj
 0001:00094d83       ?use_facet@std@@YAABV?$collate@D@1@ABVlocale@1@PBV21@_N@Z 00495d83 f i libcpmt:xlocale.obj
 0001:00094e47       ?use_facet@std@@YAABV?$messages@D@1@ABVlocale@1@PBV21@_N@Z 00495e47 f i libcpmt:xlocale.obj
 0001:00094f0b       ?use_facet@std@@YAABV?$money_get@DV?$istreambuf_iterator@DU?$char_traits@D@std@@@std@@@1@ABVlocale@1@PBV21@_N@Z 00495f0b f i libcpmt:xlocale.obj
 0001:00094fe7       ?use_facet@std@@YAABV?$money_put@DV?$ostreambuf_iterator@DU?$char_traits@D@std@@@std@@@1@ABVlocale@1@PBV21@_N@Z 00495fe7 f i libcpmt:xlocale.obj
 0001:000950c3       ?use_facet@std@@YAABV?$moneypunct@D$0A@@1@ABVlocale@1@PBV21@_N@Z 004960c3 f i libcpmt:xlocale.obj
 0001:00095192       ?use_facet@std@@YAABV?$moneypunct@D$00@1@ABVlocale@1@PBV21@_N@Z 00496192 f i libcpmt:xlocale.obj
 0001:00095261       ?use_facet@std@@YAABV?$time_get@DV?$istreambuf_iterator@DU?$char_traits@D@std@@@std@@@1@ABVlocale@1@PBV21@_N@Z 00496261 f i libcpmt:xlocale.obj
 0001:00095325       ?use_facet@std@@YAABV?$time_put@DV?$ostreambuf_iterator@DU?$char_traits@D@std@@@std@@@1@ABVlocale@1@PBV21@_N@Z 00496325 f i libcpmt:xlocale.obj
 0001:000953e9       ??0?$collate@D@std@@QAE@I@Z 004963e9 f i libcpmt:xlocale.obj
 0001:0009543d       ??0?$messages@D@std@@QAE@I@Z 0049643d f i libcpmt:xlocale.obj
 0001:000954af       ??0?$time_get@DV?$istreambuf_iterator@DU?$char_traits@D@std@@@std@@@std@@QAE@I@Z 004964af f i libcpmt:xlocale.obj
 0001:00095508       ??0?$time_put@DV?$ostreambuf_iterator@DU?$char_traits@D@std@@@std@@@std@@QAE@I@Z 00496508 f i libcpmt:xlocale.obj
 0001:00095575       ?_Save@?$_Tidyfac@V?$collate@D@std@@@std@@SAPAV?$collate@D@2@PAV32@@Z 00496575 f i libcpmt:xlocale.obj
 0001:000955c3       ?_Save@?$_Tidyfac@V?$messages@D@std@@@std@@SAPAV?$messages@D@2@PAV32@@Z 004965c3 f i libcpmt:xlocale.obj
 0001:00095611       ?_Save@?$_Tidyfac@V?$money_get@DV?$istreambuf_iterator@DU?$char_traits@D@std@@@std@@@std@@@std@@SAPAV?$money_get@DV?$istreambuf_iterator@DU?$char_traits@D@std@@@std@@@2@PAV32@@Z 00496611 f i libcpmt:xlocale.obj
 0001:0009565f       ?_Save@?$_Tidyfac@V?$money_put@DV?$ostreambuf_iterator@DU?$char_traits@D@std@@@std@@@std@@@std@@SAPAV?$money_put@DV?$ostreambuf_iterator@DU?$char_traits@D@std@@@std@@@2@PAV32@@Z 0049665f f i libcpmt:xlocale.obj
 0001:000956ad       ?_Save@?$_Tidyfac@V?$moneypunct@D$0A@@std@@@std@@SAPAV?$moneypunct@D$0A@@2@PAV32@@Z 004966ad f i libcpmt:xlocale.obj
 0001:000956fb       ?_Save@?$_Tidyfac@V?$moneypunct@D$00@std@@@std@@SAPAV?$moneypunct@D$00@2@PAV32@@Z 004966fb f i libcpmt:xlocale.obj
 0001:00095749       ?_Save@?$_Tidyfac@V?$time_get@DV?$istreambuf_iterator@DU?$char_traits@D@std@@@std@@@std@@@std@@SAPAV?$time_get@DV?$istreambuf_iterator@DU?$char_traits@D@std@@@std@@@2@PAV32@@Z 00496749 f i libcpmt:xlocale.obj
 0001:00095797       ?_Save@?$_Tidyfac@V?$time_put@DV?$ostreambuf_iterator@DU?$char_traits@D@std@@@std@@@std@@@std@@SAPAV?$time_put@DV?$ostreambuf_iterator@DU?$char_traits@D@std@@@std@@@2@PAV32@@Z 00496797 f i libcpmt:xlocale.obj
 0001:000957e5       ??0?$_Mpunct@D@std@@QAE@I_N@Z 004967e5 f i libcpmt:xlocale.obj
 0001:00095844       ?_Tidy@?$_Tidyfac@V?$collate@D@std@@@std@@SAXXZ 00496844 f i libcpmt:xlocale.obj
 0001:00095891       ?_Tidy@?$_Tidyfac@V?$messages@D@std@@@std@@SAXXZ 00496891 f i libcpmt:xlocale.obj
 0001:000958de       ?_Tidy@?$_Tidyfac@V?$money_get@DV?$istreambuf_iterator@DU?$char_traits@D@std@@@std@@@std@@@std@@SAXXZ 004968de f i libcpmt:xlocale.obj
 0001:0009592b       ?_Tidy@?$_Tidyfac@V?$money_put@DV?$ostreambuf_iterator@DU?$char_traits@D@std@@@std@@@std@@@std@@SAXXZ 0049692b f i libcpmt:xlocale.obj
 0001:00095978       ?_Tidy@?$_Tidyfac@V?$moneypunct@D$0A@@std@@@std@@SAXXZ 00496978 f i libcpmt:xlocale.obj
 0001:000959c5       ?_Tidy@?$_Tidyfac@V?$moneypunct@D$00@std@@@std@@SAXXZ 004969c5 f i libcpmt:xlocale.obj
 0001:00095a12       ?_Tidy@?$_Tidyfac@V?$time_get@DV?$istreambuf_iterator@DU?$char_traits@D@std@@@std@@@std@@@std@@SAXXZ 00496a12 f i libcpmt:xlocale.obj
 0001:00095a5f       ?_Tidy@?$_Tidyfac@V?$time_put@DV?$ostreambuf_iterator@DU?$char_traits@D@std@@@std@@@std@@@std@@SAXXZ 00496a5f f i libcpmt:xlocale.obj
 0001:00095acd       __Stod                     00496acd f   libcpmt:xstod.obj
 0001:00095b09       __Stof                     00496b09 f   libcpmt:xstod.obj
 0001:00095b1e       __Stold                    00496b1e f   libcpmt:xstod.obj
 0001:00095b33       __Strcoll                  00496b33 f   libcpmt:xstrcoll.obj
 0001:00095c2c       __Getcoll                  00496c2c f   libcpmt:xstrcoll.obj
 0001:00095c80       __onexit                   00496c80 f   LIBCMT:onexit.obj
 0001:00095cfe       _atexit                    00496cfe f   LIBCMT:onexit.obj
 0001:00095d10       ___onexitinit              00496d10 f   LIBCMT:onexit.obj
 0001:00095d3f       ?_JumpToContinuation@@YGXPAXPAUEHRegistrationNode@@@Z 00496d3f f   LIBCMT:trnsctrl.obj
 0001:00095d73       ?_CallMemberFunction0@@YGXPAX0@Z 00496d73 f   LIBCMT:trnsctrl.obj
 0001:00095d7a       ?_CallMemberFunction1@@YGXPAX00@Z 00496d7a f   LIBCMT:trnsctrl.obj
 0001:00095d81       ?_CallMemberFunction2@@YGXPAX00H@Z 00496d81 f   LIBCMT:trnsctrl.obj
 0001:00095d88       ?_UnwindNestedFrames@@YGXPAUEHRegistrationNode@@PAUEHExceptionRecord@@@Z 00496d88 f   LIBCMT:trnsctrl.obj
 0001:00095dd7       ___CxxFrameHandler         00496dd7 f   LIBCMT:trnsctrl.obj
 0001:00095e0d       ___CxxLongjmpUnwind@4      00496e0d f   LIBCMT:trnsctrl.obj
 0001:00095e27       ?_CallCatchBlock2@@YAPAXPAUEHRegistrationNode@@PBU_s_FuncInfo@@PAXHK@Z 00496e27 f   LIBCMT:trnsctrl.obj
 0001:00095ea0       ?_CallSETranslator@@YAHPAUEHExceptionRecord@@PAUEHRegistrationNode@@PAX2PBU_s_FuncInfo@@H1@Z 00496ea0 f   LIBCMT:trnsctrl.obj
 0001:00095fcb       ?_GetRangeOfTrysToCheck@@YAPBU_s_TryBlockMapEntry@@PBU_s_FuncInfo@@HHPAI1@Z 00496fcb f   LIBCMT:trnsctrl.obj
 0001:00096048       __global_unwind2           00497048 f   LIBCMT:exsup.obj
 0001:0009608a       __local_unwind2            0049708a f   LIBCMT:exsup.obj
 0001:000960e2       __NLG_Return2              004970e2 f   LIBCMT:exsup.obj
 0001:000960f2       __abnormal_termination     004970f2 f   LIBCMT:exsup.obj
 0001:00096115       __NLG_Notify1              00497115 f   LIBCMT:exsup.obj
 0001:0009611e       __NLG_Notify               0049711e f   LIBCMT:exsup.obj
 0001:00096131       __NLG_Dispatch             00497131 f   LIBCMT:exsup.obj
 0001:00096140       _memset                    00497140 f   LIBCMT:memset.obj
 0001:00096198       ??2@YAPAXI@Z               00497198 f   LIBCMT:new.obj
 0001:000961a6       __beginthreadex            004971a6 f   LIBCMT:threadex.obj
 0001:000962ad       __endthreadex              004972ad f   LIBCMT:threadex.obj
 0001:000962e0       _memcpy                    004972e0 f   LIBCMT:memcpy.obj
 0001:00096620       _strlen                    00497620 f   LIBCMT:strlen.obj
 0001:000966a0       _strncpy                   004976a0 f   LIBCMT:strncpy.obj
 0001:000967a0       __chkstk                   004977a0 f   LIBCMT:chkstk.obj
 0001:000967a0       __alloca_probe             004977a0 f   LIBCMT:chkstk.obj
 0001:000967d0       _memmove                   004977d0 f   LIBCMT:memmove.obj
 0001:00096b10       _memcmp                    00497b10 f   LIBCMT:memcmp.obj
 0001:00096bc0       _strcmp                    00497bc0 f   LIBCMT:strcmp.obj
 0001:00096c50       __allmul                   00497c50 f   LIBCMT:llmul.obj
 0001:00096c90       _strcpy                    00497c90 f   LIBCMT:strcat.obj
 0001:00096ca0       _strcat                    00497ca0 f   LIBCMT:strcat.obj
 0001:00096d80       _fclose                    00497d80 f   LIBCMT:fclose.obj
 0001:00096db1       __fclose_lk                00497db1 f   LIBCMT:fclose.obj
 0001:00096dfd       _fread                     00497dfd f   LIBCMT:fread.obj
 0001:00096e2c       __fread_lk                 00497e2c f   LIBCMT:fread.obj
 0001:00096f14       __fsopen                   00497f14 f   LIBCMT:fopen.obj
 0001:00096f45       _fopen                     00497f45 f   LIBCMT:fopen.obj
 0001:00096f58       _fwrite                    00497f58 f   LIBCMT:fwrite.obj
 0001:00096f87       __fwrite_lk                00497f87 f   LIBCMT:fwrite.obj
 0001:00097091       __fpmath                   00498091 f   LIBCMT:fpinit.obj
 0001:000970a8       __fpclear                  004980a8 f   LIBCMT:fpinit.obj
 0001:000970a9       __cfltcvt_init             004980a9 f   LIBCMT:fpinit.obj
 0001:000970e1       ___setfflag                004980e1 f   LIBCMT:fpinit.obj
 0001:000970f1       _free                      004980f1 f   LIBCMT:free.obj
 0001:00097139       _fputc                     00498139 f   LIBCMT:fputc.obj
 0001:00097174       _putc                      00498174 f   LIBCMT:fputc.obj
 0001:00097184       _ungetc                    00498184 f   LIBCMT:ungetc.obj
 0001:000971ad       __ungetc_lk                004981ad f   LIBCMT:ungetc.obj
 0001:0009721b       _fgetc                     0049821b f   LIBCMT:fgetc.obj
 0001:0009724c       _getc                      0049824c f   LIBCMT:fgetc.obj
 0001:00097257       _fgetpos                   00498257 f   LIBCMT:fgetpos.obj
 0001:00097279       _fseek                     00498279 f   LIBCMT:fseek.obj
 0001:000972a5       __fseek_lk                 004982a5 f   LIBCMT:fseek.obj
 0001:00097332       _fsetpos                   00498332 f   LIBCMT:fsetpos.obj
 0001:0009734a       _setvbuf                   0049834a f   LIBCMT:setvbuf.obj
 0001:000973f9       _fflush                    004983f9 f   LIBCMT:fflush.obj
 0001:00097428       __fflush_lk                00498428 f   LIBCMT:fflush.obj
 0001:00097456       __flush                    00498456 f   LIBCMT:fflush.obj
 0001:000974b2       __flushall                 004984b2 f   LIBCMT:fflush.obj
 0001:0009755f       ??0exception@@QAE@XZ       0049855f f   LIBCMT:stdexcpt.obj
 0001:00097570       ??_Gexception@@UAEPAXI@Z   00498570 f i LIBCMT:stdexcpt.obj
 0001:00097570       ??_Eexception@@UAEPAXI@Z   00498570 f i LIBCMT:stdexcpt.obj
 0001:0009758c       ??0exception@@QAE@ABQBD@Z  0049858c f   LIBCMT:stdexcpt.obj
 0001:000975c9       ??0exception@@QAE@ABV0@@Z  004985c9 f   LIBCMT:stdexcpt.obj
 0001:00097613       ??4exception@@QAEAAV0@ABV0@@Z 00498613 f   LIBCMT:stdexcpt.obj
 0001:00097632       ??1exception@@UAE@XZ       00498632 f   LIBCMT:stdexcpt.obj
 0001:00097648       ?what@exception@@UBEPBDXZ  00498648 f   LIBCMT:stdexcpt.obj
 0001:00097655       ??1type_info@@UAE@XZ       00498655 f   LIBCMT:typinfo.obj
 0001:0009767e       ??_Gtype_info@@UAEPAXI@Z   0049867e f i LIBCMT:typinfo.obj
 0001:0009767e       ??_Etype_info@@UAEPAXI@Z   0049867e f i LIBCMT:typinfo.obj
 0001:0009769a       ??8type_info@@QBEHABV0@@Z  0049869a f   LIBCMT:typinfo.obj
 0001:000976b5       ??9type_info@@QBEHABV0@@Z  004986b5 f   LIBCMT:typinfo.obj
 0001:000976d1       ?before@type_info@@QBEHABV1@@Z 004986d1 f   LIBCMT:typinfo.obj
 0001:000976f0       ?raw_name@type_info@@QBEPBDXZ 004986f0 f   LIBCMT:typinfo.obj
 0001:000976f4       ??0type_info@@AAE@ABV0@@Z  004986f4 f   LIBCMT:typinfo.obj
 0001:000976ff       ??4type_info@@AAEAAV0@ABV0@@Z 004986ff f   LIBCMT:typinfo.obj
 0001:00097704       __CxxThrowException@8      00498704 f   LIBCMT:throw.obj
 0001:0009773e       _sprintf                   0049873e f   LIBCMT:sprintf.obj
 0001:00097790       _memchr                    00498790 f   LIBCMT:memchr.obj
 0001:00097835       _localeconv                00498835 f   LIBCMT:lconv.obj
 0001:00097840       _strcspn                   00498840 f   LIBCMT:strcspn.obj
 0001:0009787e       __findfirst                0049887e f   LIBCMT:findfile.obj
 0001:0009794b       __findnext                 0049894b f   LIBCMT:findfile.obj
 0001:00097a13       __findclose                00498a13 f   LIBCMT:findfile.obj
 0001:00097a33       ___timet_from_ft           00498a33 f   LIBCMT:findfile.obj
 0001:00097a97       _ftell                     00498a97 f   LIBCMT:ftell.obj
 0001:00097ab9       __ftell_lk                 00498ab9 f   LIBCMT:ftell.obj
 0001:00097c1a       _remove                    00498c1a f   LIBCMT:unlink.obj
 0001:00097c44       _unlink                    00498c44 f   LIBCMT:unlink.obj
 0001:00097c44       __unlink                   00498c44 f   LIBCMT:unlink.obj
 0001:00097c4f       _fgets                     00498c4f f   LIBCMT:fgets.obj
 0001:00097cb1       _WinMainCRTStartup         00498cb1 f   LIBCMT:wincrt0.obj
 0001:00097db9       __amsg_exit                00498db9 f   LIBCMT:wincrt0.obj
 0001:00097e02       _atol                      00498e02 f   LIBCMT:atox.obj
 0001:00097e8d       _atoi                      00498e8d f   LIBCMT:atox.obj
 0001:00097e98       __atoi64                   00498e98 f   LIBCMT:atox.obj
 0001:00097f52       __toupper                  00498f52 f   LIBCMT:toupper.obj
 0001:00097f5a       _toupper                   00498f5a f   LIBCMT:toupper.obj
 0001:00097fc9       __toupper_lk               00498fc9 f   LIBCMT:toupper.obj
 0001:00098095       _isalpha                   00499095 f   LIBCMT:_ctype.obj
 0001:000980c3       _isupper                   004990c3 f   LIBCMT:_ctype.obj
 0001:000980eb       _islower                   004990eb f   LIBCMT:_ctype.obj
 0001:00098113       _isdigit                   00499113 f   LIBCMT:_ctype.obj
 0001:0009813b       _isxdigit                  0049913b f   LIBCMT:_ctype.obj
 0001:00098168       _isspace                   00499168 f   LIBCMT:_ctype.obj
 0001:00098190       _ispunct                   00499190 f   LIBCMT:_ctype.obj
 0001:000981b8       _isalnum                   004991b8 f   LIBCMT:_ctype.obj
 0001:000981e6       _isprint                   004991e6 f   LIBCMT:_ctype.obj
 0001:00098214       _isgraph                   00499214 f   LIBCMT:_ctype.obj
 0001:00098242       _iscntrl                   00499242 f   LIBCMT:_ctype.obj
 0001:0009826a       ___isascii                 0049926a f   LIBCMT:_ctype.obj
 0001:00098277       ___toascii                 00499277 f   LIBCMT:_ctype.obj
 0001:0009827f       ___iscsymf                 0049927f f   LIBCMT:_ctype.obj
 0001:000982bc       ___iscsym                  004992bc f   LIBCMT:_ctype.obj
 0001:000982f9       _strtok                    004992f9 f   LIBCMT:strtok.obj
 0001:0009839d       _strerror                  0049939d f   LIBCMT:strerror.obj
 0001:000983ed       _malloc                    004993ed f   LIBCMT:malloc.obj
 0001:000983ff       __nh_malloc                004993ff f   LIBCMT:malloc.obj
 0001:0009842b       __heap_alloc               0049942b f   LIBCMT:malloc.obj
 0001:00098479       _realloc                   00499479 f   LIBCMT:realloc.obj
 0001:000985b1       _srand                     004995b1 f   LIBCMT:rand.obj
 0001:000985be       _rand                      004995be f   LIBCMT:rand.obj
 0001:000985e0       __isctype                  004995e0 f   LIBCMT:isctype.obj
 0001:00098670       _strchr                    00499670 f   LIBCMT:strchr.obj
 0001:00098676       ___from_strstr_to_strchr   00499676 f   LIBCMT:strchr.obj
 0001:0009872c       _getenv                    0049972c f   LIBCMT:getenv.obj
 0001:0009874d       __getenv_lk                0049974d f   LIBCMT:getenv.obj
 0001:000987ca       _sscanf                    004997ca f   LIBCMT:sscanf.obj
 0001:000987fe       __snprintf                 004997fe f   LIBCMT:snprintf.obj
 0001:0009884f       _abort                     0049984f f   LIBCMT:abort.obj
 0001:00098866       _fprintf                   00499866 f   LIBCMT:fprintf.obj
 0001:000988a2       ___initstdio               004998a2 f   LIBCMT:_file.obj
 0001:0009894a       ___endstdio                0049994a f   LIBCMT:_file.obj
 0001:0009895e       __lock_file                0049995e f   LIBCMT:_file.obj
 0001:0009898d       __lock_file2               0049998d f   LIBCMT:_file.obj
 0001:000989b0       __unlock_file              004999b0 f   LIBCMT:_file.obj
 0001:000989df       __unlock_file2             004999df f   LIBCMT:_file.obj
 0001:00098a02       __vsnprintf                00499a02 f   LIBCMT:vsnprint.obj
 0001:00098a52       _vfprintf                  00499a52 f   LIBCMT:vfprintf.obj
 0001:00098a8d       _qsort                     00499a8d f   LIBCMT:qsort.obj
 0001:00098c5b       __dosmaperr                00499c5b f   LIBCMT:dosmap.obj
 0001:00098cce       __errno                    00499cce f   LIBCMT:dosmap.obj
 0001:00098cd7       ___doserrno                00499cd7 f   LIBCMT:dosmap.obj
 0001:00098ce0       _time                      00499ce0 f   LIBCMT:time.obj
 0001:00098dbc       _printf                    00499dbc f   LIBCMT:printf.obj
 0001:00098dfd       __ftime                    00499dfd f   LIBCMT:ftime.obj
 0001:00098ee2       __Getdays                  00499ee2 f   LIBCMT:strftime.obj
 0001:00098f71       __Getmonths                00499f71 f   LIBCMT:strftime.obj
 0001:00099006       __Gettnames                0049a006 f   LIBCMT:strftime.obj
 0001:00099238       _strftime                  0049a238 f   LIBCMT:strftime.obj
 0001:00099253       __Strftime                 0049a253 f   LIBCMT:strftime.obj
 0001:00099aea       _localtime                 0049aaea f   LIBCMT:localtim.obj
 0001:00099c50       _strncmp                   0049ac50 f   LIBCMT:strncmp.obj
 0001:00099c88       __getcwd                   0049ac88 f   LIBCMT:getcwd.obj
 0001:00099c88       _getcwd                    0049ac88 f   LIBCMT:getcwd.obj
 0001:00099caf       __getdcwd                  0049acaf f   LIBCMT:getcwd.obj
 0001:00099cd8       __getdcwd_lk               0049acd8 f   LIBCMT:getcwd.obj
 0001:00099dad       __validdrive               0049adad f   LIBCMT:getcwd.obj
 0001:00099de4       _ctime                     0049ade4 f   LIBCMT:ctime.obj
 0001:00099e00       __ftol                     0049ae00 f   LIBCMT:ftol.obj
 0001:00099e30       __aullshr                  0049ae30 f   LIBCMT:ullshr.obj
 0001:00099e50       _strrchr                   0049ae50 f   LIBCMT:strrchr.obj
 0001:00099e78       __EH_prolog                0049ae78 f   LIBCMT:ehprolog.obj
 0001:00099e97       _fputwc                    0049ae97 f   LIBCMT:fputwc.obj
 0001:00099ec1       __putwc_lk                 0049aec1 f   LIBCMT:fputwc.obj
 0001:00099fba       _putwc                     0049afba f   LIBCMT:fputwc.obj
 0001:00099fca       _ungetwc                   0049afca f   LIBCMT:ungetwc.obj
 0001:00099ff4       __ungetwc_lk               0049aff4 f   LIBCMT:ungetwc.obj
 0001:0009a0e1       _fgetwc                    0049b0e1 f   LIBCMT:fgetwc.obj
 0001:0009a104       __getwc_lk                 0049b104 f   LIBCMT:fgetwc.obj
 0001:0009a1f5       _getwc                     0049b1f5 f   LIBCMT:fgetwc.obj
 0001:0009a200       _setlocale                 0049b200 f   LIBCMT:setlocal.obj
 0001:0009a61a       __expandlocale             0049b61a f   LIBCMT:setlocal.obj
 0001:0009a732       ___init_dummy              0049b732 f   LIBCMT:setlocal.obj
 0001:0009a735       __strcats                  0049b735 f   LIBCMT:setlocal.obj
 0001:0009a75a       ___lc_strtolc              0049b75a f   LIBCMT:setlocal.obj
 0001:0009a826       ___lc_lctostr              0049b826 f   LIBCMT:setlocal.obj
 0001:0009a879       _strtol                    0049b879 f   LIBCMT:strtol.obj
 0001:0009aa95       _strtoul                   0049ba95 f   LIBCMT:strtol.obj
 0001:0009aaac       __mtinitlocks              0049baac f   LIBCMT:mlock.obj
 0001:0009aad5       __mtdeletelocks            0049bad5 f   LIBCMT:mlock.obj
 0001:0009ab41       __lock                     0049bb41 f   LIBCMT:mlock.obj
 0001:0009aba2       __unlock                   0049bba2 f   LIBCMT:mlock.obj
 0001:0009abb7       __lockerr_exit             0049bbb7 f   LIBCMT:mlock.obj
 0001:0009abcf       ___crtLCMapStringA         0049bbcf f   LIBCMT:a_map.obj
 0001:0009ae1e       _wcslen                    0049be1e f   LIBCMT:wcslen.obj
 0001:0009ae3b       _strtod                    0049be3b f   LIBCMT:strtod.obj
 0001:0009aee5       ___crtCompareStringA       0049bee5 f   LIBCMT:a_cmp.obj
 0001:0009b18d       __cinit                    0049c18d f   LIBCMT:crt0dat.obj
 0001:0009b1ba       _exit                      0049c1ba f   LIBCMT:crt0dat.obj
 0001:0009b1cb       __exit                     0049c1cb f   LIBCMT:crt0dat.obj
 0001:0009b1dc       __cexit                    0049c1dc f   LIBCMT:crt0dat.obj
 0001:0009b1eb       __c_exit                   0049c1eb f   LIBCMT:crt0dat.obj
 0001:0009b29f       __lockexit                 0049c29f f   LIBCMT:crt0dat.obj
 0001:0009b2a8       __unlockexit               0049c2a8 f   LIBCMT:crt0dat.obj
 0001:0009b2cb       __msize                    0049c2cb f   LIBCMT:msize.obj
 0001:0009b310       ___InternalCxxFrameHandler 0049c310 f   LIBCMT:frame.obj
 0001:0009b665       ___FrameUnwindToState      0049c665 f   LIBCMT:frame.obj
 0001:0009ba9d       ?_DestructExceptionObject@@YAXPAUEHExceptionRecord@@E@Z 0049ca9d f   LIBCMT:frame.obj
 0001:0009bb30       __CallSettingFrame@12      0049cb30 f   LIBCMT:lowhelpr.obj
 0001:0009bb57       __NLG_Return               0049cb57 f   LIBCMT:lowhelpr.obj
 0001:0009bb7c       __mtinit                   0049cb7c f   LIBCMT:tidtable.obj
 0001:0009bbd0       __mtterm                   0049cbd0 f   LIBCMT:tidtable.obj
 0001:0009bbee       __initptd                  0049cbee f   LIBCMT:tidtable.obj
 0001:0009bc01       __getptd                   0049cc01 f   LIBCMT:tidtable.obj
 0001:0009bc68       __freeptd                  0049cc68 f   LIBCMT:tidtable.obj
 0001:0009bd08       ___threadid                0049cd08 f   LIBCMT:tidtable.obj
 0001:0009bd0e       ___threadhandle            0049cd0e f   LIBCMT:tidtable.obj
 0001:0009bd14       ?terminate@@YAXXZ          0049cd14 f   LIBCMT:hooks.obj
 0001:0009bd75       ?unexpected@@YAXXZ         0049cd75 f   LIBCMT:hooks.obj
 0001:0009bd8d       ?_inconsistency@@YAXXZ     0049cd8d f   LIBCMT:hooks.obj
 0001:0009bde3       _calloc                    0049cde3 f   LIBCMT:calloc.obj
 0001:0009be70       __XcptFilter               0049ce70 f   LIBCMT:winxfltr.obj
 0001:0009bff0       __except_handler3          0049cff0 f   LIBCMT:exsup3.obj
 0001:0009c0ad       __seh_longjmp_unwind@4     0049d0ad f   LIBCMT:exsup3.obj
 0001:0009c0c8       _close                     0049d0c8 f   LIBCMT:close.obj
 0001:0009c0c8       __close                    0049d0c8 f   LIBCMT:close.obj
 0001:0009c125       __close_lk                 0049d125 f   LIBCMT:close.obj
 0001:0009c1a8       __freebuf                  0049d1a8 f   LIBCMT:_freebuf.obj
 0001:0009c1d3       __filbuf                   0049d1d3 f   LIBCMT:_filbuf.obj
 0001:0009c2af       __read                     0049d2af f   LIBCMT:read.obj
 0001:0009c314       __read_lk                  0049d314 f   LIBCMT:read.obj
 0001:0009c4ed       __openfile                 0049d4ed f   LIBCMT:_open.obj
 0001:0009c65d       __getstream                0049d65d f   LIBCMT:stream.obj
 0001:0009c725       __flsbuf                   0049d725 f   LIBCMT:_flsbuf.obj
 0001:0009c83d       __write                    0049d83d f   LIBCMT:write.obj
 0001:0009c8a2       __write_lk                 0049d8a2 f   LIBCMT:write.obj
 0001:0009ca2d       __setdefaultprecision      0049da2d f   LIBCMT:fp8.obj
 0001:0009ca3f       __ms_p5_test_fdiv          0049da3f f   LIBCMT:testfdiv.obj
 0001:0009ca7d       __ms_p5_mp_test_fdiv       0049da7d f   LIBCMT:testfdiv.obj
 0001:0009caa6       __forcdecpt                0049daa6 f   LIBCMT:cvt.obj
 0001:0009cb00       __cropzeros                0049db00 f   LIBCMT:cvt.obj
 0001:0009cb4e       __positive                 0049db4e f   LIBCMT:cvt.obj
 0001:0009cb66       __fassign                  0049db66 f   LIBCMT:cvt.obj
 0001:0009cba4       __cftoe                    0049dba4 f   LIBCMT:cvt.obj
 0001:0009ccc7       __cftof                    0049dcc7 f   LIBCMT:cvt.obj
 0001:0009cdc3       __cftog                    0049ddc3 f   LIBCMT:cvt.obj
 0001:0009ce56       __cfltcvt                  0049de56 f   LIBCMT:cvt.obj
 0001:0009cecc       __heap_init                0049decc f   LIBCMT:heapinit.obj
 0001:0009cf08       __heap_term                0049df08 f   LIBCMT:heapinit.obj
 0001:0009cf7d       __get_sbh_threshold        0049df7d f   LIBCMT:sbheap.obj
 0001:0009cf83       __set_sbh_threshold        0049df83 f   LIBCMT:sbheap.obj
 0001:0009cf9a       ___sbh_heap_init           0049df9a f   LIBCMT:sbheap.obj
 0001:0009cfd8       ___sbh_find_block          0049dfd8 f   LIBCMT:sbheap.obj
 0001:0009d003       ___sbh_free_block          0049e003 f   LIBCMT:sbheap.obj
 0001:0009d32e       ___sbh_alloc_block         0049e32e f   LIBCMT:sbheap.obj
 0001:0009d637       ___sbh_alloc_new_region    0049e637 f   LIBCMT:sbheap.obj
 0001:0009d6e8       ___sbh_alloc_new_group     0049e6e8 f   LIBCMT:sbheap.obj
 0001:0009d7e3       ___sbh_resize_block        0049e7e3 f   LIBCMT:sbheap.obj
 0001:0009dad9       ___sbh_heapmin             0049ead9 f   LIBCMT:sbheap.obj
 0001:0009dbaa       ___sbh_heap_check          0049ebaa f   LIBCMT:sbheap.obj
 0001:0009ded9       __getbuf                   0049eed9 f   LIBCMT:_getbuf.obj
 0001:0009df1d       __ftelli64                 0049ef1d f   LIBCMT:ftelli64.obj
 0001:0009df45       __ftelli64_lk              0049ef45 f   LIBCMT:ftelli64.obj
 0001:0009e0d5       __lseek                    0049f0d5 f   LIBCMT:lseek.obj
 0001:0009e13a       __lseek_lk                 0049f13a f   LIBCMT:lseek.obj
 0001:0009e1ad       __fseeki64                 0049f1ad f   LIBCMT:fseeki64.obj
 0001:0009e1dc       __fseeki64_lk              0049f1dc f   LIBCMT:fseeki64.obj
 0001:0009e26d       __commit                   0049f26d f   LIBCMT:commit.obj
 0001:0009e300       ?__CxxUnhandledExceptionFilter@@YGJPAU_EXCEPTION_POINTERS@@@Z 0049f300 f   LIBCMT:unhandld.obj
 0001:0009e346       ?__CxxSetUnhandledExceptionFilter@@YAXXZ 0049f346 f   LIBCMT:unhandld.obj
 0001:0009e357       ?__CxxRestoreUnhandledExceptionFilter@@YAXXZ 0049f357 f   LIBCMT:unhandld.obj
 0001:0009e364       __output                   0049f364 f   LIBCMT:output.obj
 0001:0009eb6e       ___loctotime_t             0049fb6e f   LIBCMT:dtoxtime.obj
 0001:0009ec30       __ioinit                   0049fc30 f   LIBCMT:ioinit.obj
 0001:0009edec       __ioterm                   0049fdec f   LIBCMT:ioinit.obj
 0001:0009ee40       __wincmdln                 0049fe40 f   LIBCMT:wincmdln.obj
 0001:0009ee98       __setenvp                  0049fe98 f   LIBCMT:stdenvp.obj
 0001:0009ef51       __setargv                  0049ff51 f   LIBCMT:stdargv.obj
 0001:0009f19e       ___crtGetEnvironmentStringsA 004a019e f   LIBCMT:a_env.obj
 0001:0009f2d0       __FF_MSGBANNER             004a02d0 f   LIBCMT:crt0msg.obj
 0001:0009f309       __NMSG_WRITE               004a0309 f   LIBCMT:crt0msg.obj
 0001:0009f45c       __GET_RTERRMSG             004a045c f   LIBCMT:crt0msg.obj
 0001:0009f48d       ?_set_new_handler@@YAP6AHI@ZP6AHI@Z@Z 004a048d f   LIBCMT:handler.obj
 0001:0009f4b1       ?_query_new_handler@@YAP6AHI@ZXZ 004a04b1 f   LIBCMT:handler.obj
 0001:0009f4b7       __callnewh                 004a04b7 f   LIBCMT:handler.obj
 0001:0009f4d2       ___crtGetStringTypeA       004a04d2 f   LIBCMT:a_str.obj
 0001:0009f61b       __mbsnbicoll               004a061b f   LIBCMT:mbsnbico.obj
 0001:0009f65a       ___wtomb_environ           004a065a f   LIBCMT:wtombenv.obj
 0001:0009f6c8       __input                    004a06c8 f   LIBCMT:input.obj
 0001:000a0179       _signal                    004a1179 f   LIBCMT:winsig.obj
 0001:000a035d       _raise                     004a135d f   LIBCMT:winsig.obj
 0001:000a051c       ___fpecode                 004a151c f   LIBCMT:winsig.obj
 0001:000a0525       ___pxcptinfoptrs           004a1525 f   LIBCMT:winsig.obj
 0001:000a052e       __stbuf                    004a152e f   LIBCMT:_sftbuf.obj
 0001:000a05bb       __ftbuf                    004a15bb f   LIBCMT:_sftbuf.obj
 0001:000a05e5       __fcloseall                004a15e5 f   LIBCMT:closeall.obj
 0001:000a0666       ___tzset                   004a1666 f   LIBCMT:tzset.obj
 0001:000a0694       __tzset                    004a1694 f   LIBCMT:tzset.obj
 0001:000a0931       __isindst                  004a1931 f   LIBCMT:tzset.obj
 0001:000a0c40       __aullrem                  004a1c40 f   LIBCMT:ullrem.obj
 0001:000a0cc0       __aulldiv                  004a1cc0 f   LIBCMT:ulldiv.obj
 0001:000a0d30       __strcmpi                  004a1d30 f   LIBCMT:stricmp.obj
 0001:000a0d30       __stricmp                  004a1d30 f   LIBCMT:stricmp.obj
 0001:000a0e00       _gmtime                    004a1e00 f   LIBCMT:gmtime.obj
 0001:000a0f0a       _asctime                   004a1f0a f   LIBCMT:asctime.obj
 0001:000a0ffc       __flswbuf                  004a1ffc f   LIBCMT:_flswbuf.obj
 0001:000a1123       _wctomb                    004a2123 f   LIBCMT:wctomb.obj
 0001:000a117c       __wctomb_lk                004a217c f   LIBCMT:wctomb.obj
 0001:000a11e5       __filwbuf                  004a21e5 f   LIBCMT:_filwbuf.obj
 0001:000a12cc       _mbtowc                    004a22cc f   LIBCMT:mbtowc.obj
 0001:000a1329       __mbtowc_lk                004a2329 f   LIBCMT:mbtowc.obj
 0001:000a13f2       ___init_time               004a23f2 f   LIBCMT:inittime.obj
 0001:000a1961       ___init_numeric            004a2961 f   LIBCMT:initnum.obj
 0001:000a1b6d       ___init_monetary           004a2b6d f   LIBCMT:initmon.obj
 0001:000a1ddf       ___init_ctype              004a2ddf f   LIBCMT:initctyp.obj
 0001:000a2024       ___init_collate            004a3024 f   LIBCMT:initcoll.obj
 0001:000a2030       _strpbrk                   004a3030 f   LIBCMT:strpbrk.obj
 0001:000a206a       ___get_qualified_locale    004a306a f   LIBCMT:getqloc.obj
 0001:000a2914       __fltin2                   004a3914 f   LIBCMT:cfin.obj
 0001:000a2993       ?_ValidateRead@@YAHPBXI@Z  004a3993 f   LIBCMT:validate.obj
 0001:000a29af       ?_ValidateWrite@@YAHPAXI@Z 004a39af f   LIBCMT:validate.obj
 0001:000a29cb       ?_ValidateExecute@@YAHP6GHXZ@Z 004a39cb f   LIBCMT:validate.obj
 0001:000a29e3       __alloc_osfhnd             004a39e3 f   LIBCMT:osfinfo.obj
 0001:000a2b06       __set_osfhnd               004a3b06 f   LIBCMT:osfinfo.obj
 0001:000a2b82       __free_osfhnd              004a3b82 f   LIBCMT:osfinfo.obj
 0001:000a2c01       __get_osfhandle            004a3c01 f   LIBCMT:osfinfo.obj
 0001:000a2c43       __open_osfhandle           004a3c43 f   LIBCMT:osfinfo.obj
 0001:000a2cea       __lock_fhandle             004a3cea f   LIBCMT:osfinfo.obj
 0001:000a2d49       __unlock_fhandle           004a3d49 f   LIBCMT:osfinfo.obj
 0001:000a2d6b       __open                     004a3d6b f   LIBCMT:open.obj
 0001:000a2d6b       _open                      004a3d6b f   LIBCMT:open.obj
 0001:000a2d82       __sopen                    004a3d82 f   LIBCMT:open.obj
 0001:000a3051       __isatty                   004a4051 f   LIBCMT:isatty.obj
 0001:000a307a       __statusfp                 004a407a f   LIBCMT:ieee87.obj
 0001:000a308d       __clearfp                  004a408d f   LIBCMT:ieee87.obj
 0001:000a30a1       __control87                004a40a1 f   LIBCMT:ieee87.obj
 0001:000a30d6       __controlfp                004a40d6 f   LIBCMT:ieee87.obj
 0001:000a30ec       __fpreset                  004a40ec f   LIBCMT:ieee87.obj
 0001:000a3267       __tolower                  004a4267 f   LIBCMT:tolower.obj
 0001:000a326f       _tolower                   004a426f f   LIBCMT:tolower.obj
 0001:000a32de       __tolower_lk               004a42de f   LIBCMT:tolower.obj
 0001:000a33a9       __ZeroTail                 004a43a9 f   LIBCMT:intrncvt.obj
 0001:000a33f2       __IncMan                   004a43f2 f   LIBCMT:intrncvt.obj
 0001:000a3448       __RoundMan                 004a4448 f   LIBCMT:intrncvt.obj
 0001:000a34d4       __CopyMan                  004a44d4 f   LIBCMT:intrncvt.obj
 0001:000a34ef       __FillZeroMan              004a44ef f   LIBCMT:intrncvt.obj
 0001:000a34fb       __IsZeroMan                004a44fb f   LIBCMT:intrncvt.obj
 0001:000a3516       __ShrMan                   004a4516 f   LIBCMT:intrncvt.obj
 0001:000a35a3       __ld12cvt                  004a45a3 f   LIBCMT:intrncvt.obj
 0001:000a370f       __ld12tod                  004a470f f   LIBCMT:intrncvt.obj
 0001:000a3725       __ld12tof                  004a4725 f   LIBCMT:intrncvt.obj
 0001:000a373b       __ld12told                 004a473b f   LIBCMT:intrncvt.obj
 0001:000a37b5       __atodbl                   004a47b5 f   LIBCMT:intrncvt.obj
 0001:000a37e2       __atoldbl                  004a47e2 f   LIBCMT:intrncvt.obj
 0001:000a3810       __atoflt                   004a4810 f   LIBCMT:intrncvt.obj
 0001:000a383d       __fptostr                  004a483d f   LIBCMT:_fptostr.obj
 0001:000a38b4       __fltout2                  004a48b4 f   LIBCMT:cfout.obj
 0001:000a3910       ___dtold                   004a4910 f   LIBCMT:cfout.obj
 0001:000a39c6       __fptrap                   004a49c6 f   LIBCMT:crt0fp.obj
 0001:000a39cf       __lseeki64                 004a49cf f   LIBCMT:lseeki64.obj
 0001:000a3a40       __lseeki64_lk              004a4a40 f   LIBCMT:lseeki64.obj
 0001:000a3ac5       __ismbbkalnum              004a4ac5 f   LIBCMT:ismbbyte.obj
 0001:000a3ad6       __ismbbkprint              004a4ad6 f   LIBCMT:ismbbyte.obj
 0001:000a3ae7       __ismbbkpunct              004a4ae7 f   LIBCMT:ismbbyte.obj
 0001:000a3af8       __ismbbalnum               004a4af8 f   LIBCMT:ismbbyte.obj
 0001:000a3b0c       __ismbbalpha               004a4b0c f   LIBCMT:ismbbyte.obj
 0001:000a3b20       __ismbbgraph               004a4b20 f   LIBCMT:ismbbyte.obj
 0001:000a3b34       __ismbbprint               004a4b34 f   LIBCMT:ismbbyte.obj
 0001:000a3b48       __ismbbpunct               004a4b48 f   LIBCMT:ismbbyte.obj
 0001:000a3b59       __ismbblead                004a4b59 f   LIBCMT:ismbbyte.obj
 0001:000a3b6a       __ismbbtrail               004a4b6a f   LIBCMT:ismbbyte.obj
 0001:000a3b7b       __ismbbkana                004a4b7b f   LIBCMT:ismbbyte.obj
 0001:000a3bd3       __setmbcp                  004a4bd3 f   LIBCMT:mbctype.obj
 0001:000a3fab       __getmbcp                  004a4fab f   LIBCMT:mbctype.obj
 0001:000a3fbb       ___initmbctable            004a4fbb f   LIBCMT:mbctype.obj
 0001:000a3fd7       ___crtMessageBoxA          004a4fd7 f   LIBCMT:crtmbox.obj
 0001:000a4060       ___crtsetenv               004a5060 f   LIBCMT:setenv.obj
 0001:000a42b0       __allshl                   004a52b0 f   LIBCMT:llshl.obj
 0001:000a42cf       ___getlocaleinfo           004a52cf f   LIBCMT:inithelp.obj
 0001:000a4407       ___crtGetStringTypeW       004a5407 f   LIBCMT:w_str.obj
 0001:000a45cc       _itoa                      004a55cc f   LIBCMT:xtoa.obj
 0001:000a45cc       __itoa                     004a55cc f   LIBCMT:xtoa.obj
 0001:000a4655       __ltoa                     004a5655 f   LIBCMT:xtoa.obj
 0001:000a467f       __ultoa                    004a567f f   LIBCMT:xtoa.obj
 0001:000a469a       __i64toa                   004a569a f   LIBCMT:xtoa.obj
 0001:000a4751       __ui64toa                  004a5751 f   LIBCMT:xtoa.obj
 0001:000a4770       __strnicmp                 004a5770 f   LIBCMT:strnicmp.obj
 0001:000a4871       ___strgtold12              004a5871 f   LIBCMT:strgtold.obj
 0001:000a4d42       ___STRINGTOLD              004a5d42 f   LIBCMT:strgtold.obj
 0001:000a4d7e       __chsize                   004a5d7e f   LIBCMT:chsize.obj
 0001:000a4dd7       __chsize_lk                004a5dd7 f   LIBCMT:chsize.obj
 0001:000a4efc       ___addl                    004a5efc f   LIBCMT:mantold.obj
 0001:000a4f1d       ___add_12                  004a5f1d f   LIBCMT:mantold.obj
 0001:000a4f7b       ___shl_12                  004a5f7b f   LIBCMT:mantold.obj
 0001:000a4fa9       ___shr_12                  004a5fa9 f   LIBCMT:mantold.obj
 0001:000a4fd6       ___mtold12                 004a5fd6 f   LIBCMT:mantold.obj
 0001:000a509d       _$I10_OUTPUT               004a609d f   LIBCMT:x10fout.obj
 0001:000a5330       __mbschr                   004a6330 f   LIBCMT:mbschr.obj
 0001:000a53c7       __strdup                   004a63c7 f   LIBCMT:strdup.obj
 0001:000a53f2       ___crtGetLocaleInfoW       004a63f2 f   LIBCMT:w_loc.obj
 0001:000a5505       ___crtGetLocaleInfoA       004a6505 f   LIBCMT:a_loc.obj
 0001:000a5623       ___ld12mul                 004a6623 f   LIBCMT:tenpow.obj
 0001:000a5843       ___multtenpow12            004a6843 f   LIBCMT:tenpow.obj
 0001:000a58bf       __setmode                  004a68bf f   LIBCMT:setmode.obj
 0001:000a5918       __setmode_lk               004a6918 f   LIBCMT:setmode.obj
 0001:000a5980       _VerQueryValueA@16         004a6980 f   Version:VERSION.dll
 0001:000a5986       _GetFileVersionInfoA@16    004a6986 f   Version:VERSION.dll
 0001:000a598c       _GetFileVersionInfoSizeA@8 004a698c f   Version:VERSION.dll
 0001:000a5992       _GetLastError@0            004a6992 f   kernel32:KERNEL32.dll
 0001:000a5998       _CreateEventA@16           004a6998 f   kernel32:KERNEL32.dll
 0001:000a599e       _ResetEvent@4              004a699e f   kernel32:KERNEL32.dll
 0001:000a59a4       _SetEvent@4                004a69a4 f   kernel32:KERNEL32.dll
 0001:000a59aa       _PulseEvent@4              004a69aa f   kernel32:KERNEL32.dll
 0001:000a59b0       _InterlockedDecrement@4    004a69b0 f   kernel32:KERNEL32.dll
 0001:000a59b6       _InterlockedExchange@8     004a69b6 f   kernel32:KERNEL32.dll
 0001:000a59bc       _WritePrivateProfileStringA@16 004a69bc f   kernel32:KERNEL32.dll
 0001:000a59c2       _GetPrivateProfileStringA@24 004a69c2 f   kernel32:KERNEL32.dll
 0001:000a59c8       _GlobalFree@4              004a69c8 f   kernel32:KERNEL32.dll
 0001:000a59ce       _GlobalUnlock@4            004a69ce f   kernel32:KERNEL32.dll
 0001:000a59d4       _GlobalLock@4              004a69d4 f   kernel32:KERNEL32.dll
 0001:000a59da       _GlobalAlloc@8             004a69da f   kernel32:KERNEL32.dll
 0001:000a59e0       _FormatMessageA@28         004a69e0 f   kernel32:KERNEL32.dll
 0001:000a59e6       _GetCurrentDirectoryA@8    004a69e6 f   kernel32:KERNEL32.dll
 0001:000a59ec       _GetModuleFileNameA@12     004a69ec f   kernel32:KERNEL32.dll
 0001:000a59f2       _GetComputerNameA@8        004a69f2 f   kernel32:KERNEL32.dll
 0001:000a59f8       _SetLastError@4            004a69f8 f   kernel32:KERNEL32.dll
 0001:000a59fe       _GetTempPathA@8            004a69fe f   kernel32:KERNEL32.dll
 0001:000a5a04       _GetFileAttributesA@4      004a6a04 f   kernel32:KERNEL32.dll
 0001:000a5a0a       _GetFileInformationByHandle@8 004a6a0a f   kernel32:KERNEL32.dll
 0001:000a5a10       _FlushFileBuffers@4        004a6a10 f   kernel32:KERNEL32.dll
 0001:000a5a16       _SetEndOfFile@4            004a6a16 f   kernel32:KERNEL32.dll
 0001:000a5a1c       _WriteFile@20              004a6a1c f   kernel32:KERNEL32.dll
 0001:000a5a22       _SetFilePointer@16         004a6a22 f   kernel32:KERNEL32.dll
 0001:000a5a28       _CreateFileA@28            004a6a28 f   kernel32:KERNEL32.dll
 0001:000a5a2e       _GetDiskFreeSpaceA@20      004a6a2e f   kernel32:KERNEL32.dll
 0001:000a5a34       _ReadFile@20               004a6a34 f   kernel32:KERNEL32.dll
 0001:000a5a3a       _GetSystemInfo@4           004a6a3a f   kernel32:KERNEL32.dll
 0001:000a5a40       _DeleteFileA@4             004a6a40 f   kernel32:KERNEL32.dll
 0001:000a5a46       _MoveFileExA@12            004a6a46 f   kernel32:KERNEL32.dll
 0001:000a5a4c       _MoveFileA@8               004a6a4c f   kernel32:KERNEL32.dll
 0001:000a5a52       _UnmapViewOfFile@4         004a6a52 f   kernel32:KERNEL32.dll
 0001:000a5a58       _MapViewOfFile@20          004a6a58 f   kernel32:KERNEL32.dll
 0001:000a5a5e       _CreateFileMappingA@24     004a6a5e f   kernel32:KERNEL32.dll
 0001:000a5a64       _OpenFileMappingA@12       004a6a64 f   kernel32:KERNEL32.dll
 0001:000a5a6a       _GetVersion@0              004a6a6a f   kernel32:KERNEL32.dll
 0001:000a5a70       _WideCharToMultiByte@32    004a6a70 f   kernel32:KERNEL32.dll
 0001:000a5a76       _MultiByteToWideChar@24    004a6a76 f   kernel32:KERNEL32.dll
 0001:000a5a7c       _RtlUnwind@16              004a6a7c f   kernel32:KERNEL32.dll
 0001:000a5a82       _GetCurrentThreadId@0      004a6a82 f   kernel32:KERNEL32.dll
 0001:000a5a88       _TlsSetValue@8             004a6a88 f   kernel32:KERNEL32.dll
 0001:000a5a8e       _ExitThread@4              004a6a8e f   kernel32:KERNEL32.dll
 0001:000a5a94       _HeapFree@12               004a6a94 f   kernel32:KERNEL32.dll
 0001:000a5a9a       _RaiseException@16         004a6a9a f   kernel32:KERNEL32.dll
 0001:000a5aa0       _FindFirstFileA@8          004a6aa0 f   kernel32:KERNEL32.dll
 0001:000a5aa6       _FindNextFileA@8           004a6aa6 f   kernel32:KERNEL32.dll
 0001:000a5aac       _FindClose@4               004a6aac f   kernel32:KERNEL32.dll
 0001:000a5ab2       _FileTimeToSystemTime@8    004a6ab2 f   kernel32:KERNEL32.dll
 0001:000a5ab8       _FileTimeToLocalFileTime@8 004a6ab8 f   kernel32:KERNEL32.dll
 0001:000a5abe       _GetModuleHandleA@4        004a6abe f   kernel32:KERNEL32.dll
 0001:000a5ac4       _GetStartupInfoA@4         004a6ac4 f   kernel32:KERNEL32.dll
 0001:000a5aca       _GetCommandLineA@0         004a6aca f   kernel32:KERNEL32.dll
 0001:000a5ad0       _ExitProcess@4             004a6ad0 f   kernel32:KERNEL32.dll
 0001:000a5ad6       _HeapAlloc@12              004a6ad6 f   kernel32:KERNEL32.dll
 0001:000a5adc       _HeapReAlloc@16            004a6adc f   kernel32:KERNEL32.dll
 0001:000a5ae2       _GetTimeZoneInformation@4  004a6ae2 f   kernel32:KERNEL32.dll
 0001:000a5ae8       _GetSystemTimeAsFileTime@4 004a6ae8 f   kernel32:KERNEL32.dll
 0001:000a5aee       _GetFullPathNameA@16       004a6aee f   kernel32:KERNEL32.dll
 0001:000a5af4       _GetDriveTypeA@4           004a6af4 f   kernel32:KERNEL32.dll
 0001:000a5afa       _FatalAppExitA@8           004a6afa f   kernel32:KERNEL32.dll
 0001:000a5b00       _LCMapStringA@24           004a6b00 f   kernel32:KERNEL32.dll
 0001:000a5b06       _LCMapStringW@24           004a6b06 f   kernel32:KERNEL32.dll
 0001:000a5b0c       _GetCPInfo@8               004a6b0c f   kernel32:KERNEL32.dll
 0001:000a5b12       _CompareStringA@24         004a6b12 f   kernel32:KERNEL32.dll
 0001:000a5b18       _CompareStringW@24         004a6b18 f   kernel32:KERNEL32.dll
 0001:000a5b1e       _TerminateProcess@8        004a6b1e f   kernel32:KERNEL32.dll
 0001:000a5b24       _GetCurrentProcess@0       004a6b24 f   kernel32:KERNEL32.dll
 0001:000a5b2a       _HeapSize@12               004a6b2a f   kernel32:KERNEL32.dll
 0001:000a5b30       _TlsAlloc@0                004a6b30 f   kernel32:KERNEL32.dll
 0001:000a5b36       _TlsFree@4                 004a6b36 f   kernel32:KERNEL32.dll
 0001:000a5b3c       _TlsGetValue@4             004a6b3c f   kernel32:KERNEL32.dll
 0001:000a5b42       _GetCurrentThread@0        004a6b42 f   kernel32:KERNEL32.dll
 0001:000a5b48       _UnhandledExceptionFilter@4 004a6b48 f   kernel32:KERNEL32.dll
 0001:000a5b4e       _HeapDestroy@4             004a6b4e f   kernel32:KERNEL32.dll
 0001:000a5b54       _HeapCreate@12             004a6b54 f   kernel32:KERNEL32.dll
 0001:000a5b5a       _VirtualFree@12            004a6b5a f   kernel32:KERNEL32.dll
 0001:000a5b60       _VirtualAlloc@16           004a6b60 f   kernel32:KERNEL32.dll
 0001:000a5b66       _IsBadWritePtr@8           004a6b66 f   kernel32:KERNEL32.dll
 0001:000a5b6c       _SetUnhandledExceptionFilter@4 004a6b6c f   kernel32:KERNEL32.dll
 0001:000a5b72       _SetHandleCount@4          004a6b72 f   kernel32:KERNEL32.dll
 0001:000a5b78       _GetStdHandle@4            004a6b78 f   kernel32:KERNEL32.dll
 0001:000a5b7e       _GetFileType@4             004a6b7e f   kernel32:KERNEL32.dll
 0001:000a5b84       _FreeEnvironmentStringsA@4 004a6b84 f   kernel32:KERNEL32.dll
 0001:000a5b8a       _FreeEnvironmentStringsW@4 004a6b8a f   kernel32:KERNEL32.dll
 0001:000a5b90       _GetEnvironmentStrings@0   004a6b90 f   kernel32:KERNEL32.dll
 0001:000a5b96       _GetEnvironmentStringsW@0  004a6b96 f   kernel32:KERNEL32.dll
 0001:000a5b9c       _GetStringTypeA@20         004a6b9c f   kernel32:KERNEL32.dll
 0001:000a5ba2       _GetStringTypeW@16         004a6ba2 f   kernel32:KERNEL32.dll
 0001:000a5ba8       _SetConsoleCtrlHandler@8   004a6ba8 f   kernel32:KERNEL32.dll
 0001:000a5bae       _IsValidLocale@8           004a6bae f   kernel32:KERNEL32.dll
 0001:000a5bb4       _IsValidCodePage@4         004a6bb4 f   kernel32:KERNEL32.dll
 0001:000a5bba       _GetLocaleInfoA@16         004a6bba f   kernel32:KERNEL32.dll
 0001:000a5bc0       _EnumSystemLocalesA@8      004a6bc0 f   kernel32:KERNEL32.dll
 0001:000a5bc6       _GetUserDefaultLCID@0      004a6bc6 f   kernel32:KERNEL32.dll
 0001:000a5bcc       _GetVersionExA@4           004a6bcc f   kernel32:KERNEL32.dll
 0001:000a5bd2       _IsBadReadPtr@8            004a6bd2 f   kernel32:KERNEL32.dll
 0001:000a5bd8       _IsBadCodePtr@4            004a6bd8 f   kernel32:KERNEL32.dll
 0001:000a5bde       _SetStdHandle@8            004a6bde f   kernel32:KERNEL32.dll
 0001:000a5be4       _GetACP@0                  004a6be4 f   kernel32:KERNEL32.dll
 0001:000a5bea       _GetOEMCP@0                004a6bea f   kernel32:KERNEL32.dll
 0001:000a5bf0       _SetEnvironmentVariableA@8 004a6bf0 f   kernel32:KERNEL32.dll
 0001:000a5bf6       _GetLocaleInfoW@16         004a6bf6 f   kernel32:KERNEL32.dll
 0001:000a5bfc       _wsprintfA                 004a6bfc f   user32:USER32.dll
 0001:000a5c02       _MessageBeep@4             004a6c02 f   user32:USER32.dll
 0001:000a5c08       _GetUserNameA@8            004a6c08 f   advapi32:ADVAPI32.dll
 0001:000a5c0e       _mkdir                     004a6c0e f   LIBCMT:mkdir.obj
 0001:000a5c0e       __mkdir                    004a6c0e f   LIBCMT:mkdir.obj
 0001:000a5c3a       __getpid                   004a6c3a f   LIBCMT:getpid.obj
 0001:000a5c3a       _getpid                    004a6c3a f   LIBCMT:getpid.obj
 0001:000a5c40       _CreateDirectoryA@8        004a6c40 f   kernel32:KERNEL32.dll
 0001:000a5c46       _GetCurrentProcessId@0     004a6c46 f   kernel32:KERNEL32.dll
 0002:00000000       __imp__GetUserNameA@8      004aa000     advapi32:ADVAPI32.dll
 0002:00000004       \177ADVAPI32_NULL_THUNK_DATA 004aa004     advapi32:ADVAPI32.dll
 0002:00000008       __imp__EnterCriticalSection@4 004aa008     kernel32:KERNEL32.dll
 0002:0000000c       __imp__LeaveCriticalSection@4 004aa00c     kernel32:KERNEL32.dll
 0002:00000010       __imp__InterlockedIncrement@4 004aa010     kernel32:KERNEL32.dll
 0002:00000014       __imp__CloseHandle@4       004aa014     kernel32:KERNEL32.dll
 0002:00000018       __imp__TerminateThread@8   004aa018     kernel32:KERNEL32.dll
 0002:0000001c       __imp__WaitForSingleObject@8 004aa01c     kernel32:KERNEL32.dll
 0002:00000020       __imp__Sleep@4             004aa020     kernel32:KERNEL32.dll
 0002:00000024       __imp__CreateThread@24     004aa024     kernel32:KERNEL32.dll
 0002:00000028       __imp__DeleteCriticalSection@4 004aa028     kernel32:KERNEL32.dll
 0002:0000002c       __imp__ResumeThread@4      004aa02c     kernel32:KERNEL32.dll
 0002:00000030       __imp__GetLocalTime@4      004aa030     kernel32:KERNEL32.dll
 0002:00000034       __imp__GetSystemTime@4     004aa034     kernel32:KERNEL32.dll
 0002:00000038       __imp__GetProcAddress@8    004aa038     kernel32:KERNEL32.dll
 0002:0000003c       __imp__LoadLibraryA@4      004aa03c     kernel32:KERNEL32.dll
 0002:00000040       __imp__FreeLibrary@4       004aa040     kernel32:KERNEL32.dll
 0002:00000044       __imp__CreateDirectoryA@8  004aa044     kernel32:KERNEL32.dll
 0002:00000048       __imp__SuspendThread@4     004aa048     kernel32:KERNEL32.dll
 0002:0000004c       __imp__InitializeCriticalSection@4 004aa04c     kernel32:KERNEL32.dll
 0002:00000050       __imp__GetLocaleInfoW@16   004aa050     kernel32:KERNEL32.dll
 0002:00000054       __imp__SetEnvironmentVariableA@8 004aa054     kernel32:KERNEL32.dll
 0002:00000058       __imp__GetOEMCP@0          004aa058     kernel32:KERNEL32.dll
 0002:0000005c       __imp__GetACP@0            004aa05c     kernel32:KERNEL32.dll
 0002:00000060       __imp__SetStdHandle@8      004aa060     kernel32:KERNEL32.dll
 0002:00000064       __imp__IsBadCodePtr@4      004aa064     kernel32:KERNEL32.dll
 0002:00000068       __imp__IsBadReadPtr@8      004aa068     kernel32:KERNEL32.dll
 0002:0000006c       __imp__GetVersionExA@4     004aa06c     kernel32:KERNEL32.dll
 0002:00000070       __imp__GetUserDefaultLCID@0 004aa070     kernel32:KERNEL32.dll
 0002:00000074       __imp__EnumSystemLocalesA@8 004aa074     kernel32:KERNEL32.dll
 0002:00000078       __imp__GetLocaleInfoA@16   004aa078     kernel32:KERNEL32.dll
 0002:0000007c       __imp__IsValidCodePage@4   004aa07c     kernel32:KERNEL32.dll
 0002:00000080       __imp__IsValidLocale@8     004aa080     kernel32:KERNEL32.dll
 0002:00000084       __imp__SetConsoleCtrlHandler@8 004aa084     kernel32:KERNEL32.dll
 0002:00000088       __imp__GetStringTypeW@16   004aa088     kernel32:KERNEL32.dll
 0002:0000008c       __imp__GetStringTypeA@20   004aa08c     kernel32:KERNEL32.dll
 0002:00000090       __imp__GetEnvironmentStringsW@0 004aa090     kernel32:KERNEL32.dll
 0002:00000094       __imp__GetEnvironmentStrings@0 004aa094     kernel32:KERNEL32.dll
 0002:00000098       __imp__FreeEnvironmentStringsW@4 004aa098     kernel32:KERNEL32.dll
 0002:0000009c       __imp__FreeEnvironmentStringsA@4 004aa09c     kernel32:KERNEL32.dll
 0002:000000a0       __imp__GetFileType@4       004aa0a0     kernel32:KERNEL32.dll
 0002:000000a4       __imp__GetStdHandle@4      004aa0a4     kernel32:KERNEL32.dll
 0002:000000a8       __imp__SetHandleCount@4    004aa0a8     kernel32:KERNEL32.dll
 0002:000000ac       __imp__SetUnhandledExceptionFilter@4 004aa0ac     kernel32:KERNEL32.dll
 0002:000000b0       __imp__IsBadWritePtr@8     004aa0b0     kernel32:KERNEL32.dll
 0002:000000b4       __imp__VirtualAlloc@16     004aa0b4     kernel32:KERNEL32.dll
 0002:000000b8       __imp__GetLastError@0      004aa0b8     kernel32:KERNEL32.dll
 0002:000000bc       __imp__CreateEventA@16     004aa0bc     kernel32:KERNEL32.dll
 0002:000000c0       __imp__ResetEvent@4        004aa0c0     kernel32:KERNEL32.dll
 0002:000000c4       __imp__SetEvent@4          004aa0c4     kernel32:KERNEL32.dll
 0002:000000c8       __imp__PulseEvent@4        004aa0c8     kernel32:KERNEL32.dll
 0002:000000cc       __imp__InterlockedDecrement@4 004aa0cc     kernel32:KERNEL32.dll
 0002:000000d0       __imp__InterlockedExchange@8 004aa0d0     kernel32:KERNEL32.dll
 0002:000000d4       __imp__WritePrivateProfileStringA@16 004aa0d4     kernel32:KERNEL32.dll
 0002:000000d8       __imp__GetPrivateProfileStringA@24 004aa0d8     kernel32:KERNEL32.dll
 0002:000000dc       __imp__GlobalFree@4        004aa0dc     kernel32:KERNEL32.dll
 0002:000000e0       __imp__GlobalUnlock@4      004aa0e0     kernel32:KERNEL32.dll
 0002:000000e4       __imp__GlobalLock@4        004aa0e4     kernel32:KERNEL32.dll
 0002:000000e8       __imp__GlobalAlloc@8       004aa0e8     kernel32:KERNEL32.dll
 0002:000000ec       __imp__FormatMessageA@28   004aa0ec     kernel32:KERNEL32.dll
 0002:000000f0       __imp__GetCurrentDirectoryA@8 004aa0f0     kernel32:KERNEL32.dll
 0002:000000f4       __imp__GetModuleFileNameA@12 004aa0f4     kernel32:KERNEL32.dll
 0002:000000f8       __imp__GetComputerNameA@8  004aa0f8     kernel32:KERNEL32.dll
 0002:000000fc       __imp__SetLastError@4      004aa0fc     kernel32:KERNEL32.dll
 0002:00000100       __imp__GetTempPathA@8      004aa100     kernel32:KERNEL32.dll
 0002:00000104       __imp__GetFileAttributesA@4 004aa104     kernel32:KERNEL32.dll
 0002:00000108       __imp__GetFileInformationByHandle@8 004aa108     kernel32:KERNEL32.dll
 0002:0000010c       __imp__FlushFileBuffers@4  004aa10c     kernel32:KERNEL32.dll
 0002:00000110       __imp__SetEndOfFile@4      004aa110     kernel32:KERNEL32.dll
 0002:00000114       __imp__WriteFile@20        004aa114     kernel32:KERNEL32.dll
 0002:00000118       __imp__SetFilePointer@16   004aa118     kernel32:KERNEL32.dll
 0002:0000011c       __imp__CreateFileA@28      004aa11c     kernel32:KERNEL32.dll
 0002:00000120       __imp__GetDiskFreeSpaceA@20 004aa120     kernel32:KERNEL32.dll
 0002:00000124       __imp__ReadFile@20         004aa124     kernel32:KERNEL32.dll
 0002:00000128       __imp__GetSystemInfo@4     004aa128     kernel32:KERNEL32.dll
 0002:0000012c       __imp__DeleteFileA@4       004aa12c     kernel32:KERNEL32.dll
 0002:00000130       __imp__MoveFileExA@12      004aa130     kernel32:KERNEL32.dll
 0002:00000134       __imp__MoveFileA@8         004aa134     kernel32:KERNEL32.dll
 0002:00000138       __imp__UnmapViewOfFile@4   004aa138     kernel32:KERNEL32.dll
 0002:0000013c       __imp__MapViewOfFile@20    004aa13c     kernel32:KERNEL32.dll
 0002:00000140       __imp__CreateFileMappingA@24 004aa140     kernel32:KERNEL32.dll
 0002:00000144       __imp__OpenFileMappingA@12 004aa144     kernel32:KERNEL32.dll
 0002:00000148       __imp__GetVersion@0        004aa148     kernel32:KERNEL32.dll
 0002:0000014c       __imp__WideCharToMultiByte@32 004aa14c     kernel32:KERNEL32.dll
 0002:00000150       __imp__MultiByteToWideChar@24 004aa150     kernel32:KERNEL32.dll
 0002:00000154       __imp__RtlUnwind@16        004aa154     kernel32:KERNEL32.dll
 0002:00000158       __imp__GetCurrentThreadId@0 004aa158     kernel32:KERNEL32.dll
 0002:0000015c       __imp__TlsSetValue@8       004aa15c     kernel32:KERNEL32.dll
 0002:00000160       __imp__ExitThread@4        004aa160     kernel32:KERNEL32.dll
 0002:00000164       __imp__HeapFree@12         004aa164     kernel32:KERNEL32.dll
 0002:00000168       __imp__RaiseException@16   004aa168     kernel32:KERNEL32.dll
 0002:0000016c       __imp__FindFirstFileA@8    004aa16c     kernel32:KERNEL32.dll
 0002:00000170       __imp__FindNextFileA@8     004aa170     kernel32:KERNEL32.dll
 0002:00000174       __imp__FindClose@4         004aa174     kernel32:KERNEL32.dll
 0002:00000178       __imp__FileTimeToSystemTime@8 004aa178     kernel32:KERNEL32.dll
 0002:0000017c       __imp__FileTimeToLocalFileTime@8 004aa17c     kernel32:KERNEL32.dll
 0002:00000180       __imp__GetModuleHandleA@4  004aa180     kernel32:KERNEL32.dll
 0002:00000184       __imp__GetStartupInfoA@4   004aa184     kernel32:KERNEL32.dll
 0002:00000188       __imp__GetCommandLineA@0   004aa188     kernel32:KERNEL32.dll
 0002:0000018c       __imp__ExitProcess@4       004aa18c     kernel32:KERNEL32.dll
 0002:00000190       __imp__HeapAlloc@12        004aa190     kernel32:KERNEL32.dll
 0002:00000194       __imp__HeapReAlloc@16      004aa194     kernel32:KERNEL32.dll
 0002:00000198       __imp__GetTimeZoneInformation@4 004aa198     kernel32:KERNEL32.dll
 0002:0000019c       __imp__GetSystemTimeAsFileTime@4 004aa19c     kernel32:KERNEL32.dll
 0002:000001a0       __imp__GetFullPathNameA@16 004aa1a0     kernel32:KERNEL32.dll
 0002:000001a4       __imp__GetDriveTypeA@4     004aa1a4     kernel32:KERNEL32.dll
 0002:000001a8       __imp__FatalAppExitA@8     004aa1a8     kernel32:KERNEL32.dll
 0002:000001ac       __imp__LCMapStringA@24     004aa1ac     kernel32:KERNEL32.dll
 0002:000001b0       __imp__LCMapStringW@24     004aa1b0     kernel32:KERNEL32.dll
 0002:000001b4       __imp__GetCPInfo@8         004aa1b4     kernel32:KERNEL32.dll
 0002:000001b8       __imp__CompareStringA@24   004aa1b8     kernel32:KERNEL32.dll
 0002:000001bc       __imp__CompareStringW@24   004aa1bc     kernel32:KERNEL32.dll
 0002:000001c0       __imp__TerminateProcess@8  004aa1c0     kernel32:KERNEL32.dll
 0002:000001c4       __imp__GetCurrentProcess@0 004aa1c4     kernel32:KERNEL32.dll
 0002:000001c8       __imp__HeapSize@12         004aa1c8     kernel32:KERNEL32.dll
 0002:000001cc       __imp__TlsAlloc@0          004aa1cc     kernel32:KERNEL32.dll
 0002:000001d0       __imp__TlsFree@4           004aa1d0     kernel32:KERNEL32.dll
 0002:000001d4       __imp__TlsGetValue@4       004aa1d4     kernel32:KERNEL32.dll
 0002:000001d8       __imp__GetCurrentThread@0  004aa1d8     kernel32:KERNEL32.dll
 0002:000001dc       __imp__UnhandledExceptionFilter@4 004aa1dc     kernel32:KERNEL32.dll
 0002:000001e0       __imp__HeapDestroy@4       004aa1e0     kernel32:KERNEL32.dll
 0002:000001e4       __imp__HeapCreate@12       004aa1e4     kernel32:KERNEL32.dll
 0002:000001e8       __imp__VirtualFree@12      004aa1e8     kernel32:KERNEL32.dll
 0002:000001ec       __imp__GetCurrentProcessId@0 004aa1ec     kernel32:KERNEL32.dll
 0002:000001f0       \177KERNEL32_NULL_THUNK_DATA 004aa1f0     kernel32:KERNEL32.dll
 0002:000001f4       __imp__MessageBoxA@16      004aa1f4     user32:USER32.dll
 0002:000001f8       __imp__PostMessageA@16     004aa1f8     user32:USER32.dll
 0002:000001fc       __imp__DispatchMessageA@4  004aa1fc     user32:USER32.dll
 0002:00000200       __imp__MessageBeep@4       004aa200     user32:USER32.dll
 0002:00000204       __imp__wsprintfA           004aa204     user32:USER32.dll
 0002:00000208       __imp__TranslateMessage@4  004aa208     user32:USER32.dll
 0002:0000020c       __imp__SetDlgItemTextA@12  004aa20c     user32:USER32.dll
 0002:00000210       __imp__EnableWindow@8      004aa210     user32:USER32.dll
 0002:00000214       __imp__SetWindowTextA@8    004aa214     user32:USER32.dll
 0002:00000218       __imp__SetDlgItemInt@16    004aa218     user32:USER32.dll
 0002:0000021c       __imp__SetTimer@16         004aa21c     user32:USER32.dll
 0002:00000220       __imp__KillTimer@8         004aa220     user32:USER32.dll
 0002:00000224       __imp__GetDlgItemInt@16    004aa224     user32:USER32.dll
 0002:00000228       __imp__DestroyWindow@4     004aa228     user32:USER32.dll
 0002:0000022c       __imp__PostQuitMessage@4   004aa22c     user32:USER32.dll
 0002:00000230       __imp__SendMessageA@16     004aa230     user32:USER32.dll
 0002:00000234       __imp__CreateDialogParamA@20 004aa234     user32:USER32.dll
 0002:00000238       __imp__ShowWindow@8        004aa238     user32:USER32.dll
 0002:0000023c       __imp__UpdateWindow@4      004aa23c     user32:USER32.dll
 0002:00000240       __imp__GetDlgItem@8        004aa240     user32:USER32.dll
 0002:00000244       __imp__GetMessageA@16      004aa244     user32:USER32.dll
 0002:00000248       __imp__IsWindow@4          004aa248     user32:USER32.dll
 0002:0000024c       __imp__IsDialogMessageA@8  004aa24c     user32:USER32.dll
 0002:00000250       \177USER32_NULL_THUNK_DATA 004aa250     user32:USER32.dll
 0002:00000254       __imp__GetFileVersionInfoSizeA@8 004aa254     Version:VERSION.dll
 0002:00000258       __imp__GetFileVersionInfoA@16 004aa258     Version:VERSION.dll
 0002:0000025c       __imp__VerQueryValueA@16   004aa25c     Version:VERSION.dll
 0002:00000260       \177VERSION_NULL_THUNK_DATA 004aa260     Version:VERSION.dll
 0002:00000264       __imp__gethostname@8       004aa264     ws2_32:WS2_32.dll
 0002:00000268       __imp__gethostbyname@4     004aa268     ws2_32:WS2_32.dll
 0002:0000026c       \177WS2_32_NULL_THUNK_DATA 004aa26c     ws2_32:WS2_32.dll
 0002:00000290       _IID_IDocHostUIHandlerDispatch 004aa290     ClientNode.obj
 0002:000002a0       _IID_IInternalConnection   004aa2a0     ClientNode.obj
 0002:000002b0       _IID_IAxWinAmbientDispatch 004aa2b0     ClientNode.obj
 0002:000002c0       _IID_IAxWinHostWindow      004aa2c0     ClientNode.obj
 0002:000002d0       _IID_IRegistrar            004aa2d0     ClientNode.obj
 0002:000002e0       _CLSID_Registrar           004aa2e0     ClientNode.obj
 0002:000002f0       _LIBID_ATLLib              004aa2f0     ClientNode.obj
 0002:00000300       ??_7CClientNode@@6B@       004aa300     ClientNode.obj
 0002:00000304       ?npos@?$basic_string@DU?$char_traits@D@std@@V?$allocator@D@2@@std@@2IB 004aa304     ClientNode.obj
 0002:00000308       ?_C@?1??_Nullstr@?$basic_string@DU?$char_traits@D@std@@V?$allocator@D@2@@std@@CAPBDXZ@4DB 004aa308     ClientNode.obj
 0002:0000030c       ??_7CDBBackup@@6B@         004aa30c     DBBackup.obj
 0002:00000310       ??_7CDBDump@@6B@           004aa310     DBBackup.obj
 0002:00000314       ??_7?$basic_fstream@DU?$char_traits@D@std@@@std@@6B@ 004aa314     DBBackup.obj
 0002:00000318       ??_8?$basic_fstream@DU?$char_traits@D@std@@@std@@7B?$basic_ostream@DU?$char_traits@D@std@@@1@@ 004aa318     DBBackup.obj
 0002:00000320       ??_8?$basic_fstream@DU?$char_traits@D@std@@@std@@7B?$basic_istream@DU?$char_traits@D@std@@@1@@ 004aa320     DBBackup.obj
 0002:00000328       ??_7?$basic_iostream@DU?$char_traits@D@std@@@std@@6B@ 004aa328     DBBackup.obj
 0002:0000032c       ??_8?$basic_iostream@DU?$char_traits@D@std@@@std@@7B?$basic_ostream@DU?$char_traits@D@std@@@1@@ 004aa32c     DBBackup.obj
 0002:00000334       ??_8?$basic_iostream@DU?$char_traits@D@std@@@std@@7B?$basic_istream@DU?$char_traits@D@std@@@1@@ 004aa334     DBBackup.obj
 0002:0000033c       ??_8?$basic_ostream@DU?$char_traits@D@std@@@std@@7B@ 004aa33c     DBBackup.obj
 0002:00000344       ??_8?$basic_istream@DU?$char_traits@D@std@@@std@@7B@ 004aa344     DBBackup.obj
 0002:0000034c       ??_7ctype_base@std@@6B@    004aa34c     DBBackup.obj
 0002:00000350       ??_7codecvt_base@std@@6B@  004aa350     DBBackup.obj
 0002:00000360       ??_7CDBLoad@@6B@           004aa360     DBDumpLoad.obj
 0002:00000364       ??_7ZDBTable@@6B@          004aa364     DBTable.obj
 0002:00000368       ??_7CFilterTextLib@@6B@    004aa368     FilterTextLib.obj
 0002:00000370       _IID_IPropertyFrame        004aa370     Goddess.obj
 0002:00000380       _CLSID_CFontPropPage       004aa380     Goddess.obj
 0002:00000390       _CLSID_CColorPropPage      004aa390     Goddess.obj
 0002:000003a0       _CLSID_CPicturePropPage    004aa3a0     Goddess.obj
 0002:000003b0       _CLSID_PersistPropset      004aa3b0     Goddess.obj
 0002:000003c0       _CLSID_ConvertVBX          004aa3c0     Goddess.obj
 0002:000003d0       _CLSID_StdFont             004aa3d0     Goddess.obj
 0002:000003e0       _CLSID_StdPicture          004aa3e0     Goddess.obj
 0002:000003f0       _GUID_HIMETRIC             004aa3f0     Goddess.obj
 0002:00000400       _GUID_COLOR                004aa400     Goddess.obj
 0002:00000410       _GUID_XPOSPIXEL            004aa410     Goddess.obj
 0002:00000420       _GUID_YPOSPIXEL            004aa420     Goddess.obj
 0002:00000430       _GUID_XSIZEPIXEL           004aa430     Goddess.obj
 0002:00000440       _GUID_YSIZEPIXEL           004aa440     Goddess.obj
 0002:00000450       _GUID_XPOS                 004aa450     Goddess.obj
 0002:00000460       _GUID_YPOS                 004aa460     Goddess.obj
 0002:00000470       _GUID_XSIZE                004aa470     Goddess.obj
 0002:00000480       _GUID_YSIZE                004aa480     Goddess.obj
 0002:00000490       _GUID_OPTIONVALUEEXCLUSIVE 004aa490     Goddess.obj
 0002:000004a0       _GUID_CHECKVALUEEXCLUSIVE  004aa4a0     Goddess.obj
 0002:000004b0       _GUID_FONTNAME             004aa4b0     Goddess.obj
 0002:000004c0       _GUID_FONTSIZE             004aa4c0     Goddess.obj
 0002:000004d0       _GUID_FONTBOLD             004aa4d0     Goddess.obj
 0002:000004e0       _GUID_FONTITALIC           004aa4e0     Goddess.obj
 0002:000004f0       _GUID_FONTUNDERSCORE       004aa4f0     Goddess.obj
 0002:00000500       _GUID_FONTSTRIKETHROUGH    004aa500     Goddess.obj
 0002:00000510       _GUID_HANDLE               004aa510     Goddess.obj
 0002:00000520       _IID_IIOCPServer           004aa520     Goddess.obj
 0002:00000530       _IID_IServerFactory        004aa530     Goddess.obj
 0002:00000570       ??_7CRoleNameFilter@@6B@   004aa570     RoleNameFilter.obj
 0002:00000574       ??_7CEvent@Win32@OnlineGameLib@@6B@ 004aa574     common:Event.obj
 0002:00000578       ??_7CException@Win32@OnlineGameLib@@6B@ 004aa578     common:Event.obj
 0002:00000584       ??_7CWin32Exception@Win32@OnlineGameLib@@6B@ 004aa584     common:Event.obj
 0002:00000590       ??_7Allocator@CBuffer@Win32@OnlineGameLib@@6B@ 004aa590     common:Buffer.obj
 0002:000005a0       ??_7CPackager@Win32@OnlineGameLib@@6B@ 004aa5a0     common:Buffer.obj
 0002:000009a4       ??_7CLibrary@Win32@OnlineGameLib@@6B@ 004aa9a4     common:Library.obj
 0002:00001730       __real@8@c0048400000000000000 004ab730     libdb41s:env_recover.obj
 0002:00001738       __real@8@00000000000000000000 004ab738     libdb41s:env_recover.obj
 0002:00001740       __real@8@40048400000000000000 004ab740     libdb41s:env_recover.obj
 0002:00002bc8       __real@8@3fff8000000000000000 004acbc8     libdb41s:bt_stat.obj
 0002:00003034       ??_7?$basic_istream@DU?$char_traits@D@std@@@std@@6B@ 004ad034     libcpmt:iostream.obj
 0002:0000303c       ??_7?$basic_ostream@DU?$char_traits@D@std@@@std@@6B@ 004ad03c     libcpmt:iostream.obj
 0002:00003044       ??_7?$basic_ios@DU?$char_traits@D@std@@@std@@6B@ 004ad044     libcpmt:iostream.obj
 0002:0000304c       ??_7?$basic_filebuf@DU?$char_traits@D@std@@@std@@6B@ 004ad04c     libcpmt:iostream.obj
 0002:00003084       ??_7?$basic_streambuf@DU?$char_traits@D@std@@@std@@6B@ 004ad084     libcpmt:iostream.obj
 0002:000030bc       ??_7?$basic_istream@GU?$char_traits@G@std@@@std@@6B@ 004ad0bc     libcpmt:wiostrea.obj
 0002:000030c4       ??_7?$basic_ostream@GU?$char_traits@G@std@@@std@@6B@ 004ad0c4     libcpmt:wiostrea.obj
 0002:000030cc       ??_7?$basic_ios@GU?$char_traits@G@std@@@std@@6B@ 004ad0cc     libcpmt:wiostrea.obj
 0002:000030d0       ??_8?$basic_ostream@GU?$char_traits@G@std@@@std@@7B@ 004ad0d0     libcpmt:wiostrea.obj
 0002:000030d8       ??_8?$basic_istream@GU?$char_traits@G@std@@@std@@7B@ 004ad0d8     libcpmt:wiostrea.obj
 0002:000030e4       ??_7?$basic_filebuf@GU?$char_traits@G@std@@@std@@6B@ 004ad0e4     libcpmt:wiostrea.obj
 0002:0000311c       ??_7?$basic_streambuf@GU?$char_traits@G@std@@@std@@6B@ 004ad11c     libcpmt:wiostrea.obj
 0002:00003154       ??_7length_error@std@@6B@  004ad154     libcpmt:string.obj
 0002:00003160       ??_C@_0BA@HHMB@string?5too?5long?$AA@ 004ad160     libcpmt:string.obj
 0002:00003174       ??_7logic_error@std@@6B@   004ad174     libcpmt:string.obj
 0002:00003184       ??_7out_of_range@std@@6B@  004ad184     libcpmt:string.obj
 0002:00003190       ??_C@_0BI@EEBE@invalid?5string?5position?$AA@ 004ad190     libcpmt:string.obj
 0002:000031a8       ?_Fpz@std@@3_JB            004ad1a8     libcpmt:ios.obj
 0002:000031b4       ??_7failure@ios_base@std@@6B@ 004ad1b4     libcpmt:ios.obj
 0002:000031c0       ??_C@_0BA@NGIA@ios?3?3eofbit?5set?$AA@ 004ad1c0     libcpmt:ios.obj
 0002:000031d0       ??_C@_0BB@KPBH@ios?3?3failbit?5set?$AA@ 004ad1d0     libcpmt:ios.obj
 0002:000031e4       ??_C@_0BA@HGGD@ios?3?3badbit?5set?$AA@ 004ad1e4     libcpmt:ios.obj
 0002:000031f8       ??_7runtime_error@std@@6B@ 004ad1f8     libcpmt:ios.obj
 0002:00003208       ??_7ios_base@std@@6B@      004ad208     libcpmt:ios.obj
 0002:0000320c       ??_C@_0BP@INPK@invalid?5ios?3?3iword?1pword?5index?$AA@ 004ad20c     libcpmt:ios.obj
 0002:0000322c       ?table_size@?$ctype@D@std@@2IB 004ad22c     libcpmt:locale0.obj
 0002:00003230       ??_C@_01FDHG@?$CK?$AA@     004ad230     libcpmt:locale0.obj
 0002:00003238       ??_7_Locimp@locale@std@@6B@ 004ad238     libcpmt:locale0.obj
 0002:00003240       ??_7facet@locale@std@@6B@  004ad240     libcpmt:locale0.obj
 0002:00003280       ??_C@_03GMJO@a?$CLb?$AA@   004ad280     libcpmt:fiopen.obj
 0002:00003284       ??_C@_03KBID@w?$CLb?$AA@   004ad284     libcpmt:fiopen.obj
 0002:00003288       ??_C@_03LLMP@r?$CLb?$AA@   004ad288     libcpmt:fiopen.obj
 0002:0000328c       ??_C@_02JALM@a?$CL?$AA@    004ad28c     libcpmt:fiopen.obj
 0002:00003290       ??_C@_02INOK@w?$CL?$AA@    004ad290     libcpmt:fiopen.obj
 0002:00003294       ??_C@_02MBOK@r?$CL?$AA@    004ad294     libcpmt:fiopen.obj
 0002:00003298       ??_C@_02MLFD@ab?$AA@       004ad298     libcpmt:fiopen.obj
 0002:0000329c       ??_C@_02NGAF@wb?$AA@       004ad29c     libcpmt:fiopen.obj
 0002:000032a0       ??_C@_02JKAF@rb?$AA@       004ad2a0     libcpmt:fiopen.obj
 0002:000032a4       ??_C@_01FNLH@a?$AA@        004ad2a4     libcpmt:fiopen.obj
 0002:000032a8       ??_C@_0BA@KCC@bad?5locale?5name?$AA@ 004ad2a8     libcpmt:locale.obj
 0002:000032bc       ??_7?$codecvt@DDH@std@@6B@ 004ad2bc     libcpmt:locale.obj
 0002:000032dc       ??_7?$numpunct@D@std@@6B@  004ad2dc     libcpmt:locale.obj
 0002:000032f8       ??_7?$num_put@DV?$ostreambuf_iterator@DU?$char_traits@D@std@@@std@@@std@@6B@ 004ad2f8     libcpmt:locale.obj
 0002:00003318       ??_7?$num_get@DV?$istreambuf_iterator@DU?$char_traits@D@std@@@std@@@std@@6B@ 004ad318     libcpmt:locale.obj
 0002:00003344       ??_7?$ctype@D@std@@6B@     004ad344     libcpmt:locale.obj
 0002:00003358       ??_C@_0BH@CFAI@0123456789abcdefABCDEF?$AA@ 004ad358     libcpmt:locale.obj
 0002:00003374       ??_7bad_cast@std@@6B@      004ad374     libcpmt:locale.obj
 0002:00003380       ?nothrow@std@@3Unothrow_t@1@B 004ad380     libcpmt:nomemory.obj
 0002:00003384       ??_C@_0P@LJNA@bad?5allocation?$AA@ 004ad384     libcpmt:nomemory.obj
 0002:00003398       ??_7bad_alloc@std@@6B@     004ad398     libcpmt:nomemory.obj
 0002:000033a8       ??_7?$codecvt@GDH@std@@6B@ 004ad3a8     libcpmt:wlocale.obj
 0002:000033c8       ??_7?$time_put@GV?$ostreambuf_iterator@GU?$char_traits@G@std@@@std@@@std@@6B@ 004ad3c8     libcpmt:wlocale.obj
 0002:000033d4       ??_7?$time_get@GV?$istreambuf_iterator@GU?$char_traits@G@std@@@std@@@std@@6B@ 004ad3d4     libcpmt:wlocale.obj
 0002:000033f4       ??_7?$moneypunct@G$00@std@@6B@ 004ad3f4     libcpmt:wlocale.obj
 0002:00003420       ??_7?$moneypunct@G$0A@@std@@6B@ 004ad420     libcpmt:wlocale.obj
 0002:0000344c       ??_7?$money_put@GV?$ostreambuf_iterator@GU?$char_traits@G@std@@@std@@@std@@6B@ 004ad44c     libcpmt:wlocale.obj
 0002:0000345c       ??_7?$money_get@GV?$istreambuf_iterator@GU?$char_traits@G@std@@@std@@@std@@6B@ 004ad45c     libcpmt:wlocale.obj
 0002:0000346c       ??_7?$messages@G@std@@6B@  004ad46c     libcpmt:wlocale.obj
 0002:00003480       ??_7?$collate@G@std@@6B@   004ad480     libcpmt:wlocale.obj
 0002:00003494       ??_7?$numpunct@G@std@@6B@  004ad494     libcpmt:wlocale.obj
 0002:000034b0       ??_7?$num_put@GV?$ostreambuf_iterator@GU?$char_traits@G@std@@@std@@@std@@6B@ 004ad4b0     libcpmt:wlocale.obj
 0002:000034d0       ??_7?$num_get@GV?$istreambuf_iterator@GU?$char_traits@G@std@@@std@@@std@@6B@ 004ad4d0     libcpmt:wlocale.obj
 0002:000034fc       ??_7?$ctype@G@std@@6B@     004ad4fc     libcpmt:wlocale.obj
 0002:00003530       ??_C@_04HHID@?$CB?$CFx?$AA?$AA@ 004ad530     libcpmt:wlocale.obj
 0002:00003538       ?_C@?1??_Nullstr@?$basic_string@GU?$char_traits@G@std@@V?$allocator@G@2@@std@@CAPBGXZ@4GB 004ad538     libcpmt:wlocale.obj
 0002:0000353c       ?npos@?$basic_string@GU?$char_traits@G@std@@V?$allocator@G@2@@std@@2IB 004ad53c     libcpmt:wlocale.obj
 0002:00003540       ??_C@_05FFJC@?$CF?40Lf?$AA@ 004ad540     libcpmt:wlocale.obj
 0002:00003548       __real@8@3fdddbe6fecebdedd800 004ad548     libcpmt:wlocale.obj
 0002:00003550       __real@8@40739a130b963a6c1000 004ad550     libcpmt:wlocale.obj
 0002:0000355c       ??_7?$_Mpunct@G@std@@6B@   004ad55c     libcpmt:wlocale.obj
 0002:00003584       ??_C@_03LGKI@yes?$AA@      004ad584     libcpmt:wlocale.obj
 0002:00003588       ??_C@_02ELCB@no?$AA@       004ad588     libcpmt:wlocale.obj
 0002:0000358c       ??_C@_0FG@ILEN@?3Sun?3Sunday?3Mon?3Monday?3Tue?3Tuesd@ 004ad58c     libcpmt:wlocale.obj
 0002:000035e4       ??_C@_0IH@JLLA@?3Jan?3January?3Feb?3February?3Mar?3Ma@ 004ad5e4     libcpmt:wlocale.obj
 0002:0000366c       ??_C@_01GJD@?9?$AA@        004ad66c     libcpmt:wlocale.obj
 0002:00003670       ??_C@_04HDBI@$?$CLvx?$AA@  004ad670     libcpmt:wlocale.obj
 0002:00003678       ??_C@_0FB@PNAB@?$CLv$x?$CLv$xv$?$CLxv?$CL$xv$?$CLx?$CL$vx?$CL$vx$v?$CLx@ 004ad678     libcpmt:wlocale.obj
 0002:000036d0       ??_7?$time_put@DV?$ostreambuf_iterator@DU?$char_traits@D@std@@@std@@@std@@6B@ 004ad6d0     libcpmt:xlocale.obj
 0002:000036dc       ??_7?$time_get@DV?$istreambuf_iterator@DU?$char_traits@D@std@@@std@@@std@@6B@ 004ad6dc     libcpmt:xlocale.obj
 0002:000036fc       ??_7?$moneypunct@D$00@std@@6B@ 004ad6fc     libcpmt:xlocale.obj
 0002:00003728       ??_7?$moneypunct@D$0A@@std@@6B@ 004ad728     libcpmt:xlocale.obj
 0002:00003754       ??_7?$money_put@DV?$ostreambuf_iterator@DU?$char_traits@D@std@@@std@@@std@@6B@ 004ad754     libcpmt:xlocale.obj
 0002:00003764       ??_7?$money_get@DV?$istreambuf_iterator@DU?$char_traits@D@std@@@std@@@std@@6B@ 004ad764     libcpmt:xlocale.obj
 0002:00003774       ??_7?$messages@D@std@@6B@  004ad774     libcpmt:xlocale.obj
 0002:00003788       ??_7?$collate@D@std@@6B@   004ad788     libcpmt:xlocale.obj
 0002:0000379c       ??_7?$_Mpunct@D@std@@6B@   004ad79c     libcpmt:xlocale.obj
 0002:000037c8       __real@8@3ffbccccccccccccd000 004ad7c8     libcpmt:xstod.obj
 0002:000037d0       __real@8@4002a000000000000000 004ad7d0     libcpmt:xstod.obj
 0002:000037e8       ??_7exception@@6B@         004ad7e8     LIBCMT:stdexcpt.obj
 0002:000037f0       ??_C@_0BC@OIDF@Unknown?5exception?$AA@ 004ad7f0     LIBCMT:stdexcpt.obj
 0002:00003808       ??_7type_info@@6B@         004ad808     LIBCMT:typinfo.obj
 0002:0000383c       ??_C@_07CJME@H?3mm?3ss?$AA@ 004ad83c     LIBCMT:strftime.obj
 0002:00003844       ??_C@_0BE@MHI@dddd?0?5MMMM?5dd?0?5yyyy?$AA@ 004ad844     LIBCMT:strftime.obj
 0002:00003858       ??_C@_06HCAD@M?1d?1yy?$AA@ 004ad858     LIBCMT:strftime.obj
 0002:00003860       ??_C@_02DBLP@PM?$AA@       004ad860     LIBCMT:strftime.obj
 0002:00003864       ??_C@_02ENLM@AM?$AA@       004ad864     LIBCMT:strftime.obj
 0002:00003868       ??_C@_08LIDF@December?$AA@ 004ad868     LIBCMT:strftime.obj
 0002:00003874       ??_C@_08NJLI@November?$AA@ 004ad874     LIBCMT:strftime.obj
 0002:00003880       ??_C@_07IAMM@October?$AA@  004ad880     LIBCMT:strftime.obj
 0002:00003888       ??_C@_09MKGD@September?$AA@ 004ad888     LIBCMT:strftime.obj
 0002:00003894       ??_C@_06PADP@August?$AA@   004ad894     LIBCMT:strftime.obj
 0002:0000389c       ??_C@_04PIJO@July?$AA@     004ad89c     LIBCMT:strftime.obj
 0002:000038a4       ??_C@_04ICFP@June?$AA@     004ad8a4     LIBCMT:strftime.obj
 0002:000038ac       ??_C@_05JFGC@April?$AA@    004ad8ac     LIBCMT:strftime.obj
 0002:000038b4       ??_C@_05FGPD@March?$AA@    004ad8b4     LIBCMT:strftime.obj
 0002:000038bc       ??_C@_08PGBA@February?$AA@ 004ad8bc     LIBCMT:strftime.obj
 0002:000038c8       ??_C@_07BPKJ@January?$AA@  004ad8c8     LIBCMT:strftime.obj
 0002:000038d0       ??_C@_03PGJO@Dec?$AA@      004ad8d0     LIBCMT:strftime.obj
 0002:000038d4       ??_C@_03PDLM@Nov?$AA@      004ad8d4     LIBCMT:strftime.obj
 0002:000038d8       ??_C@_03BLHK@Oct?$AA@      004ad8d8     LIBCMT:strftime.obj
 0002:000038dc       ??_C@_03DPFM@Sep?$AA@      004ad8dc     LIBCMT:strftime.obj
 0002:000038e0       ??_C@_03CMCH@Aug?$AA@      004ad8e0     LIBCMT:strftime.obj
 0002:000038e4       ??_C@_03OBKI@Jul?$AA@      004ad8e4     LIBCMT:strftime.obj
 0002:000038e8       ??_C@_03LEIG@Jun?$AA@      004ad8e8     LIBCMT:strftime.obj
 0002:000038ec       ??_C@_03MGHB@May?$AA@      004ad8ec     LIBCMT:strftime.obj
 0002:000038f0       ??_C@_03MJJM@Apr?$AA@      004ad8f0     LIBCMT:strftime.obj
 0002:000038f4       ??_C@_03GNHA@Mar?$AA@      004ad8f4     LIBCMT:strftime.obj
 0002:000038f8       ??_C@_03PICE@Feb?$AA@      004ad8f8     LIBCMT:strftime.obj
 0002:000038fc       ??_C@_03IEIF@Jan?$AA@      004ad8fc     LIBCMT:strftime.obj
 0002:00003900       ??_C@_08FAKH@Saturday?$AA@ 004ad900     LIBCMT:strftime.obj
 0002:0000390c       ??_C@_06ONCK@Friday?$AA@   004ad90c     LIBCMT:strftime.obj
 0002:00003914       ??_C@_08CCFO@Thursday?$AA@ 004ad914     LIBCMT:strftime.obj
 0002:00003920       ??_C@_09PBIN@Wednesday?$AA@ 004ad920     LIBCMT:strftime.obj
 0002:0000392c       ??_C@_07BMBC@Tuesday?$AA@  004ad92c     LIBCMT:strftime.obj
 0002:00003934       ??_C@_06CHLK@Monday?$AA@   004ad934     LIBCMT:strftime.obj
 0002:0000393c       ??_C@_06OOEM@Sunday?$AA@   004ad93c     LIBCMT:strftime.obj
 0002:00003944       ??_C@_03MPKK@Sat?$AA@      004ad944     LIBCMT:strftime.obj
 0002:00003948       ??_C@_03FINJ@Fri?$AA@      004ad948     LIBCMT:strftime.obj
 0002:0000394c       ??_C@_03HIKC@Thu?$AA@      004ad94c     LIBCMT:strftime.obj
 0002:00003950       ??_C@_03HECK@Wed?$AA@      004ad950     LIBCMT:strftime.obj
 0002:00003954       ??_C@_03ECCP@Tue?$AA@      004ad954     LIBCMT:strftime.obj
 0002:00003958       ??_C@_03PIEP@Mon?$AA@      004ad958     LIBCMT:strftime.obj
 0002:0000395c       ??_C@_03FHEP@Sun?$AA@      004ad95c     LIBCMT:strftime.obj
 0002:00003960       ??_C@_03MKGK@a?1p?$AA@     004ad960     LIBCMT:strftime.obj
 0002:00003964       ??_C@_05BDJK@am?1pm?$AA@   004ad964     LIBCMT:strftime.obj
 0002:0000396c       ??_C@_07PCLE@LC_TIME?$AA@  004ad96c     LIBCMT:setlocal.obj
 0002:00003974       ??_C@_0L@NKG@LC_NUMERIC?$AA@ 004ad974     LIBCMT:setlocal.obj
 0002:00003980       ??_C@_0M@CBIH@LC_MONETARY?$AA@ 004ad980     LIBCMT:setlocal.obj
 0002:0000398c       ??_C@_08LFGE@LC_CTYPE?$AA@ 004ad98c     LIBCMT:setlocal.obj
 0002:00003998       ??_C@_0L@CFLC@LC_COLLATE?$AA@ 004ad998     LIBCMT:setlocal.obj
 0002:000039a4       ??_C@_06GCPK@LC_ALL?$AA@   004ad9a4     LIBCMT:setlocal.obj
 0002:000039ac       ??_C@_01FAJB@?$DL?$AA@     004ad9ac     LIBCMT:setlocal.obj
 0002:000039b0       ??_C@_02BGDO@?$DN?$DL?$AA@ 004ad9b0     LIBCMT:setlocal.obj
 0002:000039b4       ??_C@_01KPOD@?$DN?$AA@     004ad9b4     LIBCMT:setlocal.obj
 0002:000039b8       ??_C@_03DBOJ@_?4?0?$AA@    004ad9b8     LIBCMT:setlocal.obj
 0002:000039bc       ??_C@_01NON@_?$AA@         004ad9bc     LIBCMT:setlocal.obj
 0002:000039c0       ??_C@_13A@?$AA?$AA?$AA?$AA@ 004ad9c0     LIBCMT:a_map.obj
 0002:00003a70       __real@8@4015800bf60000000000 004ada70     LIBCMT:testfdiv.obj
 0002:00003a78       __real@8@4014bffffc0000000000 004ada78     LIBCMT:testfdiv.obj
 0002:00003a80       ??_C@_0BK@JEGK@IsProcessorFeaturePresent?$AA@ 004ada80     LIBCMT:testfdiv.obj
 0002:00003a9c       ??_C@_08OBID@KERNEL32?$AA@ 004ada9c     LIBCMT:testfdiv.obj
 0002:00003aa8       ??_C@_05OFLO@e?$CL000?$AA@ 004adaa8     LIBCMT:cvt.obj
 0002:00003ab0       ___lookuptable             004adab0     LIBCMT:output.obj
 0002:00003b0c       ??_C@_1O@POHA@?$AA?$CI?$AAn?$AAu?$AAl?$AAl?$AA?$CJ?$AA?$AA@ 004adb0c     LIBCMT:output.obj
 0002:00003b1c       ??_C@_06ONKE@?$CInull?$CJ?$AA@ 004adb1c     LIBCMT:output.obj
 0002:00003b24       ??_C@_0P@GGKG@runtime?5error?5?$AA@ 004adb24     LIBCMT:crt0msg.obj
 0002:00003b34       ??_C@_02PIMC@?$AN?6?$AA@   004adb34     LIBCMT:crt0msg.obj
 0002:00003b38       ??_C@_0O@DELO@TLOSS?5error?$AN?6?$AA@ 004adb38     LIBCMT:crt0msg.obj
 0002:00003b48       ??_C@_0N@OMLL@SING?5error?$AN?6?$AA@ 004adb48     LIBCMT:crt0msg.obj
 0002:00003b58       ??_C@_0P@OJAK@DOMAIN?5error?$AN?6?$AA@ 004adb58     LIBCMT:crt0msg.obj
 0002:00003b68       ??_C@_0CF@EANP@R6028?$AN?6?9?5unable?5to?5initialize?5he@ 004adb68     LIBCMT:crt0msg.obj
 0002:00003b90       ??_C@_0DF@ECGN@R6027?$AN?6?9?5not?5enough?5space?5for?5lo@ 004adb90     LIBCMT:crt0msg.obj
 0002:00003bc8       ??_C@_0DF@FKAC@R6026?$AN?6?9?5not?5enough?5space?5for?5st@ 004adbc8     LIBCMT:crt0msg.obj
 0002:00003c00       ??_C@_0CG@DPMN@R6025?$AN?6?9?5pure?5virtual?5function?5c@ 004adc00     LIBCMT:crt0msg.obj
 0002:00003c28       ??_C@_0DF@CKIP@R6024?$AN?6?9?5not?5enough?5space?5for?5_o@ 004adc28     LIBCMT:crt0msg.obj
 0002:00003c60       ??_C@_0CJ@GGOE@R6019?$AN?6?9?5unable?5to?5open?5console?5@ 004adc60     LIBCMT:crt0msg.obj
 0002:00003c8c       ??_C@_0CB@LBOB@R6018?$AN?6?9?5unexpected?5heap?5error?$AN?6@ 004adc8c     LIBCMT:crt0msg.obj
 0002:00003cb0       ??_C@_0CN@FPEG@R6017?$AN?6?9?5unexpected?5multithread?5@ 004adcb0     LIBCMT:crt0msg.obj
 0002:00003ce0       ??_C@_0CM@OBIC@R6016?$AN?6?9?5not?5enough?5space?5for?5th@ 004adce0     LIBCMT:crt0msg.obj
 0002:00003d0c       ??_C@_0CB@HPAL@?$AN?6abnormal?5program?5termination?$AN?6@ 004add0c     LIBCMT:crt0msg.obj
 0002:00003d30       ??_C@_0CM@JOOB@R6009?$AN?6?9?5not?5enough?5space?5for?5en@ 004add30     LIBCMT:crt0msg.obj
 0002:00003d5c       ??_C@_0CK@OIBL@R6008?$AN?6?9?5not?5enough?5space?5for?5ar@ 004add5c     LIBCMT:crt0msg.obj
 0002:00003d88       ??_C@_0CF@LKPB@R6002?$AN?6?9?5floating?5point?5not?5load@ 004add88     LIBCMT:crt0msg.obj
 0002:00003db0       ??_C@_0CF@JPDF@Microsoft?5Visual?5C?$CL?$CL?5Runtime?5Lib@ 004addb0     LIBCMT:crt0msg.obj
 0002:00003dd8       ??_C@_02JJJH@?6?6?$AA@     004addd8     LIBCMT:crt0msg.obj
 0002:00003ddc       ??_C@_0BK@DEOK@Runtime?5Error?$CB?6?6Program?3?5?$AA@ 004adddc     LIBCMT:crt0msg.obj
 0002:00003df8       ??_C@_0BH@NNCD@?$DMprogram?5name?5unknown?$DO?$AA@ 004addf8     LIBCMT:crt0msg.obj
 0002:00003e10       ??_C@_0BG@JPLP@Illegal?5byte?5sequence?$AA@ 004ade10     LIBCMT:syserr.obj
 0002:00003e28       ??_C@_0BE@FLBN@Directory?5not?5empty?$AA@ 004ade28     LIBCMT:syserr.obj
 0002:00003e3c       ??_C@_0BJ@KAFL@Function?5not?5implemented?$AA@ 004ade3c     LIBCMT:syserr.obj
 0002:00003e58       ??_C@_0BD@CEML@No?5locks?5available?$AA@ 004ade58     LIBCMT:syserr.obj
 0002:00003e6c       ??_C@_0BC@GADJ@Filename?5too?5long?$AA@ 004ade6c     LIBCMT:syserr.obj
 0002:00003e80       ??_C@_0BK@FNFN@Resource?5deadlock?5avoided?$AA@ 004ade80     LIBCMT:syserr.obj
 0002:00003e9c       ??_C@_0BB@EALI@Result?5too?5large?$AA@ 004ade9c     LIBCMT:syserr.obj
 0002:00003eb0       ??_C@_0N@FIAN@Domain?5error?$AA@ 004adeb0     LIBCMT:syserr.obj
 0002:00003ec0       ??_C@_0M@CLKF@Broken?5pipe?$AA@ 004adec0     LIBCMT:syserr.obj
 0002:00003ecc       ??_C@_0P@OFDM@Too?5many?5links?$AA@ 004adecc     LIBCMT:syserr.obj
 0002:00003edc       ??_C@_0BG@OHDM@Read?9only?5file?5system?$AA@ 004adedc     LIBCMT:syserr.obj
 0002:00003ef4       ??_C@_0N@NGPA@Invalid?5seek?$AA@ 004adef4     LIBCMT:syserr.obj
 0002:00003f04       ??_C@_0BI@DMFE@No?5space?5left?5on?5device?$AA@ 004adf04     LIBCMT:syserr.obj
 0002:00003f1c       ??_C@_0P@OPNK@File?5too?5large?$AA@ 004adf1c     LIBCMT:syserr.obj
 0002:00003f2c       ??_C@_0CE@BADJ@Inappropriate?5I?1O?5control?5operat@ 004adf2c     LIBCMT:syserr.obj
 0002:00003f50       ??_C@_0BE@COOK@Too?5many?5open?5files?$AA@ 004adf50     LIBCMT:syserr.obj
 0002:00003f64       ??_C@_0BO@ELHF@Too?5many?5open?5files?5in?5system?$AA@ 004adf64     LIBCMT:syserr.obj
 0002:00003f84       ??_C@_0BB@IHAB@Invalid?5argument?$AA@ 004adf84     LIBCMT:syserr.obj
 0002:00003f98       ??_C@_0P@NDNC@Is?5a?5directory?$AA@ 004adf98     LIBCMT:syserr.obj
 0002:00003fa8       ??_C@_0BA@JMMO@Not?5a?5directory?$AA@ 004adfa8     LIBCMT:syserr.obj
 0002:00003fb8       ??_C@_0P@GFAI@No?5such?5device?$AA@ 004adfb8     LIBCMT:syserr.obj
 0002:00003fc8       ??_C@_0O@KHHM@Improper?5link?$AA@ 004adfc8     LIBCMT:syserr.obj
 0002:00003fd8       ??_C@_0M@EPHJ@File?5exists?$AA@ 004adfd8     LIBCMT:syserr.obj
 0002:00003fe4       ??_C@_0BA@LPOH@Resource?5device?$AA@ 004adfe4     LIBCMT:syserr.obj
 0002:00003ff4       ??_C@_0O@NOFB@Unknown?5error?$AA@ 004adff4     LIBCMT:syserr.obj
 0002:00004004       ??_C@_0M@MLJM@Bad?5address?$AA@ 004ae004     LIBCMT:syserr.obj
 0002:00004010       ??_C@_0BC@DJON@Permission?5denied?$AA@ 004ae010     LIBCMT:syserr.obj
 0002:00004024       ??_C@_0BB@KDDC@Not?5enough?5space?$AA@ 004ae024     LIBCMT:syserr.obj
 0002:00004038       ??_C@_0CB@BBBH@Resource?5temporarily?5unavailable@ 004ae038     LIBCMT:syserr.obj
 0002:0000405c       ??_C@_0BD@ODIH@No?5child?5processes?$AA@ 004ae05c     LIBCMT:syserr.obj
 0002:00004070       ??_C@_0BE@CDDH@Bad?5file?5descriptor?$AA@ 004ae070     LIBCMT:syserr.obj
 0002:00004084       ??_C@_0BC@BICL@Exec?5format?5error?$AA@ 004ae084     LIBCMT:syserr.obj
 0002:00004098       ??_C@_0BC@IGMC@Arg?5list?5too?5long?$AA@ 004ae098     LIBCMT:syserr.obj
 0002:000040ac       ??_C@_0BK@HLB@No?5such?5device?5or?5address?$AA@ 004ae0ac     LIBCMT:syserr.obj
 0002:000040c8       ??_C@_0BD@MPKK@Input?1output?5error?$AA@ 004ae0c8     LIBCMT:syserr.obj
 0002:000040dc       ??_C@_0BK@ODCM@Interrupted?5function?5call?$AA@ 004ae0dc     LIBCMT:syserr.obj
 0002:000040f8       ??_C@_0BA@BPKN@No?5such?5process?$AA@ 004ae0f8     LIBCMT:syserr.obj
 0002:00004108       ??_C@_0BK@IEMO@No?5such?5file?5or?5directory?$AA@ 004ae108     LIBCMT:syserr.obj
 0002:00004124       ??_C@_0BI@IIAE@Operation?5not?5permitted?$AA@ 004ae124     LIBCMT:syserr.obj
 0002:0000413c       ??_C@_08KKBH@No?5error?$AA@ 004ae13c     LIBCMT:syserr.obj
 0002:00004154       ___dnames                  004ae154     LIBCMT:timeset.obj
 0002:0000416c       ___mnames                  004ae16c     LIBCMT:timeset.obj
 0002:00004194       ??_C@_02JHIA@TZ?$AA@       004ae194     LIBCMT:tzset.obj
 0002:00004198       ??_C@_08OBJD@Paraguay?$AA@ 004ae198     LIBCMT:getqloc.obj
 0002:000041a4       ??_C@_07GLKH@Uruguay?$AA@  004ae1a4     LIBCMT:getqloc.obj
 0002:000041ac       ??_C@_05FPFC@Chile?$AA@    004ae1ac     LIBCMT:getqloc.obj
 0002:000041b4       ??_C@_07IIGF@Ecuador?$AA@  004ae1b4     LIBCMT:getqloc.obj
 0002:000041bc       ??_C@_09PKAL@Argentina?$AA@ 004ae1bc     LIBCMT:getqloc.obj
 0002:000041c8       ??_C@_04LKAH@Peru?$AA@     004ae1c8     LIBCMT:getqloc.obj
 0002:000041d0       ??_C@_08NEEM@Colombia?$AA@ 004ae1d0     LIBCMT:getqloc.obj
 0002:000041dc       ??_C@_09ODEB@Venezuela?$AA@ 004ae1dc     LIBCMT:getqloc.obj
 0002:000041e8       ??_C@_0BD@CLEL@Dominican?5Republic?$AA@ 004ae1e8     LIBCMT:getqloc.obj
 0002:000041fc       ??_C@_0N@MDGL@South?5Africa?$AA@ 004ae1fc     LIBCMT:getqloc.obj
 0002:0000420c       ??_C@_06NKBG@Panama?$AA@   004ae20c     LIBCMT:getqloc.obj
 0002:00004214       ??_C@_0L@BMHO@Luxembourg?$AA@ 004ae214     LIBCMT:getqloc.obj
 0002:00004220       ??_C@_0L@IMDK@Costa?5Rica?$AA@ 004ae220     LIBCMT:getqloc.obj
 0002:0000422c       ??_C@_0M@BLJF@Switzerland?$AA@ 004ae22c     LIBCMT:getqloc.obj
 0002:00004238       ??_C@_09KBOL@Guatemala?$AA@ 004ae238     LIBCMT:getqloc.obj
 0002:00004244       ??_C@_06JNAK@Canada?$AA@   004ae244     LIBCMT:getqloc.obj
 0002:0000424c       ??_C@_0BG@OLLP@Spanish?5?9?5Modern?5Sort?$AA@ 004ae24c     LIBCMT:getqloc.obj
 0002:00004264       ??_C@_09IDKE@Australia?$AA@ 004ae264     LIBCMT:getqloc.obj
 0002:00004270       ??_C@_07JJJJ@English?$AA@  004ae270     LIBCMT:getqloc.obj
 0002:00004278       ??_C@_07NMDO@Austria?$AA@  004ae278     LIBCMT:getqloc.obj
 0002:00004280       ??_C@_06DEFE@German?$AA@   004ae280     LIBCMT:getqloc.obj
 0002:00004288       ??_C@_07JAIH@Belgium?$AA@  004ae288     LIBCMT:getqloc.obj
 0002:00004290       ??_C@_06BNLJ@Mexico?$AA@   004ae290     LIBCMT:getqloc.obj
 0002:00004298       ??_C@_07JHAG@Spanish?$AA@  004ae298     LIBCMT:getqloc.obj
 0002:000042a0       ??_C@_06DADE@Basque?$AA@   004ae2a0     LIBCMT:getqloc.obj
 0002:000042a8       ??_C@_06ENFP@Sweden?$AA@   004ae2a8     LIBCMT:getqloc.obj
 0002:000042b0       ??_C@_07JPMH@Swedish?$AA@  004ae2b0     LIBCMT:getqloc.obj
 0002:000042b8       ??_C@_07IEKF@Iceland?$AA@  004ae2b8     LIBCMT:getqloc.obj
 0002:000042c0       ??_C@_09KNEA@Icelandic?$AA@ 004ae2c0     LIBCMT:getqloc.obj
 0002:000042cc       ??_C@_06IJOD@France?$AA@   004ae2cc     LIBCMT:getqloc.obj
 0002:000042d4       ??_C@_06EINI@French?$AA@   004ae2d4     LIBCMT:getqloc.obj
 0002:000042dc       ??_C@_07FOOE@Finland?$AA@  004ae2dc     LIBCMT:getqloc.obj
 0002:000042e4       ??_C@_07OJOM@Finnish?$AA@  004ae2e4     LIBCMT:getqloc.obj
 0002:000042ec       ??_C@_05FFAC@Spain?$AA@    004ae2ec     LIBCMT:getqloc.obj
 0002:000042f4       ??_C@_0BL@BIHM@Spanish?5?9?5Traditional?5Sort?$AA@ 004ae2f4     LIBCMT:getqloc.obj
 0002:00004310       ??_C@_0O@GLHB@united?9states?$AA@ 004ae310     LIBCMT:getqloc.obj
 0002:00004320       ??_C@_0P@IIKK@united?9kingdom?$AA@ 004ae320     LIBCMT:getqloc.obj
 0002:00004330       ??_C@_0BC@FHBO@trinidad?5?$CG?5tobago?$AA@ 004ae330     LIBCMT:getqloc.obj
 0002:00004344       ??_C@_0M@BDFM@south?9korea?$AA@ 004ae344     LIBCMT:getqloc.obj
 0002:00004350       ??_C@_0N@CKFA@south?9africa?$AA@ 004ae350     LIBCMT:getqloc.obj
 0002:00004360       ??_C@_0M@HNHN@south?5korea?$AA@ 004ae360     LIBCMT:getqloc.obj
 0002:0000436c       ??_C@_0N@MKDO@south?5africa?$AA@ 004ae36c     LIBCMT:getqloc.obj
 0002:0000437c       ??_C@_06KFFJ@slovak?$AA@   004ae37c     LIBCMT:getqloc.obj
 0002:00004384       ??_C@_0M@NMAC@puerto?9rico?$AA@ 004ae384     LIBCMT:getqloc.obj
 0002:00004390       ??_C@_08EJOH@pr?9china?$AA@ 004ae390     LIBCMT:getqloc.obj
 0002:0000439c       ??_C@_08CHMG@pr?5china?$AA@ 004ae39c     LIBCMT:getqloc.obj
 0002:000043a8       ??_C@_02OCJK@nz?$AA@       004ae3a8     LIBCMT:getqloc.obj
 0002:000043ac       ??_C@_0M@MMKA@new?9zealand?$AA@ 004ae3ac     LIBCMT:getqloc.obj
 0002:000043b8       ??_C@_09MGEH@hong?9kong?$AA@ 004ae3b8     LIBCMT:getqloc.obj
 0002:000043c4       ??_C@_07CCAK@holland?$AA@  004ae3c4     LIBCMT:getqloc.obj
 0002:000043cc       ??_C@_0O@MEPL@great?5britain?$AA@ 004ae3cc     LIBCMT:getqloc.obj
 0002:000043dc       ??_C@_07LGIB@england?$AA@  004ae3dc     LIBCMT:getqloc.obj
 0002:000043e4       ??_C@_05BMOA@czech?$AA@    004ae3e4     LIBCMT:getqloc.obj
 0002:000043ec       ??_C@_05NMPB@china?$AA@    004ae3ec     LIBCMT:getqloc.obj
 0002:000043f4       ??_C@_07GN@britain?$AA@    004ae3f4     LIBCMT:getqloc.obj
 0002:000043fc       ??_C@_07DLAK@america?$AA@  004ae3fc     LIBCMT:getqloc.obj
 0002:00004404       ??_C@_03IPEP@usa?$AA@      004ae404     LIBCMT:getqloc.obj
 0002:00004408       ??_C@_02PILH@us?$AA@       004ae408     LIBCMT:getqloc.obj
 0002:0000440c       ??_C@_02FHP@uk?$AA@        004ae40c     LIBCMT:getqloc.obj
 0002:00004410       ??_C@_05DEAI@swiss?$AA@    004ae410     LIBCMT:getqloc.obj
 0002:00004418       ??_C@_0BA@LIAF@swedish?9finland?$AA@ 004ae418     LIBCMT:getqloc.obj
 0002:00004428       ??_C@_0BC@FMEG@spanish?9venezuela?$AA@ 004ae428     LIBCMT:getqloc.obj
 0002:0000443c       ??_C@_0BA@BNMG@spanish?9uruguay?$AA@ 004ae43c     LIBCMT:getqloc.obj
 0002:0000444c       ??_C@_0BE@BKDJ@spanish?9puerto?5rico?$AA@ 004ae44c     LIBCMT:getqloc.obj
 0002:00004460       ??_C@_0N@JIBL@spanish?9peru?$AA@ 004ae460     LIBCMT:getqloc.obj
 0002:00004470       ??_C@_0BB@OGOF@spanish?9paraguay?$AA@ 004ae470     LIBCMT:getqloc.obj
 0002:00004484       ??_C@_0P@LLFA@spanish?9panama?$AA@ 004ae484     LIBCMT:getqloc.obj
 0002:00004494       ??_C@_0BC@BBJM@spanish?9nicaragua?$AA@ 004ae494     LIBCMT:getqloc.obj
 0002:000044a8       ??_C@_0P@NJBN@spanish?9modern?$AA@ 004ae4a8     LIBCMT:getqloc.obj
 0002:000044b8       ??_C@_0BA@NHDN@spanish?9mexican?$AA@ 004ae4b8     LIBCMT:getqloc.obj
 0002:000044c8       ??_C@_0BB@JHOJ@spanish?9honduras?$AA@ 004ae4c8     LIBCMT:getqloc.obj
 0002:000044dc       ??_C@_0BC@BOOM@spanish?9guatemala?$AA@ 004ae4dc     LIBCMT:getqloc.obj
 0002:000044f0       ??_C@_0BE@EELI@spanish?9el?5salvador?$AA@ 004ae4f0     LIBCMT:getqloc.obj
 0002:00004504       ??_C@_0BA@POAE@spanish?9ecuador?$AA@ 004ae504     LIBCMT:getqloc.obj
 0002:00004514       ??_C@_0BL@LDKN@spanish?9dominican?5republic?$AA@ 004ae514     LIBCMT:getqloc.obj
 0002:00004530       ??_C@_0BD@HPMH@spanish?9costa?5rica?$AA@ 004ae530     LIBCMT:getqloc.obj
 0002:00004544       ??_C@_0BB@NDDK@spanish?9colombia?$AA@ 004ae544     LIBCMT:getqloc.obj
 0002:00004558       ??_C@_0O@BJHA@spanish?9chile?$AA@ 004ae558     LIBCMT:getqloc.obj
 0002:00004568       ??_C@_0BA@OBNG@spanish?9bolivia?$AA@ 004ae568     LIBCMT:getqloc.obj
 0002:00004578       ??_C@_0BC@EFAM@spanish?9argentina?$AA@ 004ae578     LIBCMT:getqloc.obj
 0002:0000458c       ??_C@_0BF@KMMM@portuguese?9brazilian?$AA@ 004ae58c     LIBCMT:getqloc.obj
 0002:000045a4       ??_C@_0BC@BAAE@norwegian?9nynorsk?$AA@ 004ae5a4     LIBCMT:getqloc.obj
 0002:000045b8       ??_C@_0BB@PBHK@norwegian?9bokmal?$AA@ 004ae5b8     LIBCMT:getqloc.obj
 0002:000045cc       ??_C@_09EHKL@norwegian?$AA@ 004ae5cc     LIBCMT:getqloc.obj
 0002:000045d8       ??_C@_0O@BEAN@italian?9swiss?$AA@ 004ae5d8     LIBCMT:getqloc.obj
 0002:000045e8       ??_C@_0O@OIFK@irish?9english?$AA@ 004ae5e8     LIBCMT:getqloc.obj
 0002:000045f8       ??_C@_0N@NBPL@german?9swiss?$AA@ 004ae5f8     LIBCMT:getqloc.obj
 0002:00004608       ??_C@_0BC@ICFJ@german?9luxembourg?$AA@ 004ae608     LIBCMT:getqloc.obj
 0002:0000461c       ??_C@_0BE@GGPC@german?9lichtenstein?$AA@ 004ae61c     LIBCMT:getqloc.obj
 0002:00004630       ??_C@_0BA@MKDC@german?9austrian?$AA@ 004ae630     LIBCMT:getqloc.obj
 0002:00004640       ??_C@_0N@ODNB@french?9swiss?$AA@ 004ae640     LIBCMT:getqloc.obj
 0002:00004650       ??_C@_0BC@MGCM@french?9luxembourg?$AA@ 004ae650     LIBCMT:getqloc.obj
 0002:00004664       ??_C@_0BA@NABK@french?9canadian?$AA@ 004ae664     LIBCMT:getqloc.obj
 0002:00004674       ??_C@_0P@CJNO@french?9belgian?$AA@ 004ae674     LIBCMT:getqloc.obj
 0002:00004684       ??_C@_0M@LJOL@english?9usa?$AA@ 004ae684     LIBCMT:getqloc.obj
 0002:00004690       ??_C@_0L@FMNC@english?9us?$AA@ 004ae690     LIBCMT:getqloc.obj
 0002:0000469c       ??_C@_0L@KBBK@english?9uk?$AA@ 004ae69c     LIBCMT:getqloc.obj
 0002:000046a8       ??_C@_0BK@NDDE@english?9trinidad?5y?5tobago?$AA@ 004ae6a8     LIBCMT:getqloc.obj
 0002:000046c4       ??_C@_0BF@LKML@english?9south?5africa?$AA@ 004ae6c4     LIBCMT:getqloc.obj
 0002:000046dc       ??_C@_0L@EGPP@english?9nz?$AA@ 004ae6dc     LIBCMT:getqloc.obj
 0002:000046e8       ??_C@_0BA@HLH@english?9jamaica?$AA@ 004ae6e8     LIBCMT:getqloc.obj
 0002:000046f8       ??_C@_0M@PMJI@english?9ire?$AA@ 004ae6f8     LIBCMT:getqloc.obj
 0002:00004704       ??_C@_0BC@HINE@english?9caribbean?$AA@ 004ae704     LIBCMT:getqloc.obj
 0002:00004718       ??_C@_0M@DCFH@english?9can?$AA@ 004ae718     LIBCMT:getqloc.obj
 0002:00004724       ??_C@_0P@DGHK@english?9belize?$AA@ 004ae724     LIBCMT:getqloc.obj
 0002:00004734       ??_C@_0M@FLHK@english?9aus?$AA@ 004ae734     LIBCMT:getqloc.obj
 0002:00004740       ??_C@_0BB@HNCK@english?9american?$AA@ 004ae740     LIBCMT:getqloc.obj
 0002:00004754       ??_C@_0O@PAMI@dutch?9belgian?$AA@ 004ae754     LIBCMT:getqloc.obj
 0002:00004764       ??_C@_0BE@FPEJ@chinese?9traditional?$AA@ 004ae764     LIBCMT:getqloc.obj
 0002:00004778       ??_C@_0BC@CHFL@chinese?9singapore?$AA@ 004ae778     LIBCMT:getqloc.obj
 0002:0000478c       ??_C@_0BD@DCMH@chinese?9simplified?$AA@ 004ae78c     LIBCMT:getqloc.obj
 0002:000047a0       ??_C@_0BB@JMOE@chinese?9hongkong?$AA@ 004ae7a0     LIBCMT:getqloc.obj
 0002:000047b4       ??_C@_07NGFN@chinese?$AA@  004ae7b4     LIBCMT:getqloc.obj
 0002:000047bc       ??_C@_03PCOI@chi?$AA@      004ae7bc     LIBCMT:getqloc.obj
 0002:000047c0       ??_C@_03FIHP@chh?$AA@      004ae7c0     LIBCMT:getqloc.obj
 0002:000047c4       ??_C@_08HFLO@canadian?$AA@ 004ae7c4     LIBCMT:getqloc.obj
 0002:000047d0       ??_C@_07INIJ@belgian?$AA@  004ae7d0     LIBCMT:getqloc.obj
 0002:000047d8       ??_C@_0L@LCCA@australian?$AA@ 004ae7d8     LIBCMT:getqloc.obj
 0002:000047e4       ??_C@_0BB@BJIO@american?9english?$AA@ 004ae7e4     LIBCMT:getqloc.obj
 0002:000047f8       ??_C@_0BB@DAGO@american?5english?$AA@ 004ae7f8     LIBCMT:getqloc.obj
 0002:0000480c       ??_C@_08HENB@american?$AA@ 004ae80c     LIBCMT:getqloc.obj
 0002:00004818       ??_C@_03DGJE@OCP?$AA@      004ae818     LIBCMT:getqloc.obj
 0002:0000481c       ??_C@_03EKFG@ACP?$AA@      004ae81c     LIBCMT:getqloc.obj
 0002:00004820       ??_C@_0BD@NJFP@GetLastActivePopup?$AA@ 004ae820     LIBCMT:crtmbox.obj
 0002:00004834       ??_C@_0BA@GILI@GetActiveWindow?$AA@ 004ae834     LIBCMT:crtmbox.obj
 0002:00004844       ??_C@_0M@PKCK@MessageBoxA?$AA@ 004ae844     LIBCMT:crtmbox.obj
 0002:00004850       ??_C@_0L@HKL@user32?4dll?$AA@ 004ae850     LIBCMT:crtmbox.obj
 0002:00004878       ??_C@_06PAPI@1?$CDQNAN?$AA@ 004ae878     LIBCMT:x10fout.obj
 0002:00004880       ??_C@_05BGNL@1?$CDINF?$AA@ 004ae880     LIBCMT:x10fout.obj
 0002:00004888       ??_C@_05EDPF@1?$CDIND?$AA@ 004ae888     LIBCMT:x10fout.obj
 0002:00004890       ??_C@_06LKFM@1?$CDSNAN?$AA@ 004ae890     LIBCMT:x10fout.obj
 0002:000048b8       ??_R1A@A@3A@ios_base@std@@8 004ae8b8     libcpmt:iostream.obj
 0002:000048d0       ??_R1A@A@3BA@?$basic_ios@DU?$char_traits@D@std@@@std@@8 004ae8d0     libcpmt:iostream.obj
 0002:000048e8       ??_R1A@?0A@A@?$basic_istream@DU?$char_traits@D@std@@@std@@8 004ae8e8     libcpmt:iostream.obj
 0002:00004900       ??_R2?$basic_istream@DU?$char_traits@D@std@@@std@@8 004ae900     libcpmt:iostream.obj
 0002:00004910       ??_R3?$basic_istream@DU?$char_traits@D@std@@@std@@8 004ae910     libcpmt:iostream.obj
 0002:00004920       ??_R4?$basic_istream@DU?$char_traits@D@std@@@std@@6B@ 004ae920     libcpmt:iostream.obj
 0002:00004938       ??_R1A@?0A@A@?$basic_ostream@DU?$char_traits@D@std@@@std@@8 004ae938     libcpmt:iostream.obj
 0002:00004950       ??_R2?$basic_ostream@DU?$char_traits@D@std@@@std@@8 004ae950     libcpmt:iostream.obj
 0002:00004960       ??_R3?$basic_ostream@DU?$char_traits@D@std@@@std@@8 004ae960     libcpmt:iostream.obj
 0002:00004970       ??_R4?$basic_ostream@DU?$char_traits@D@std@@@std@@6B@ 004ae970     libcpmt:iostream.obj
 0002:00004988       ??_R1A@?0A@A@ios_base@std@@8 004ae988     libcpmt:iostream.obj
 0002:000049a0       ??_R1A@?0A@A@?$basic_ios@DU?$char_traits@D@std@@@std@@8 004ae9a0     libcpmt:iostream.obj
 0002:000049b8       ??_R2?$basic_ios@DU?$char_traits@D@std@@@std@@8 004ae9b8     libcpmt:iostream.obj
 0002:000049c8       ??_R3?$basic_ios@DU?$char_traits@D@std@@@std@@8 004ae9c8     libcpmt:iostream.obj
 0002:000049d8       ??_R4?$basic_ios@DU?$char_traits@D@std@@@std@@6B@ 004ae9d8     libcpmt:iostream.obj
 0002:000049ec       ??_R2?$basic_streambuf@DU?$char_traits@D@std@@@std@@8 004ae9ec     libcpmt:iostream.obj
 0002:000049f8       ??_R3?$basic_streambuf@DU?$char_traits@D@std@@@std@@8 004ae9f8     libcpmt:iostream.obj
 0002:00004a08       ??_R4?$basic_streambuf@DU?$char_traits@D@std@@@std@@6B@ 004aea08     libcpmt:iostream.obj
 0002:00004a20       ??_R1A@?0A@A@?$basic_streambuf@DU?$char_traits@D@std@@@std@@8 004aea20     libcpmt:iostream.obj
 0002:00004a38       ??_R1A@?0A@A@?$basic_filebuf@DU?$char_traits@D@std@@@std@@8 004aea38     libcpmt:iostream.obj
 0002:00004a50       ??_R2?$basic_filebuf@DU?$char_traits@D@std@@@std@@8 004aea50     libcpmt:iostream.obj
 0002:00004a60       ??_R3?$basic_filebuf@DU?$char_traits@D@std@@@std@@8 004aea60     libcpmt:iostream.obj
 0002:00004a70       ??_R4?$basic_filebuf@DU?$char_traits@D@std@@@std@@6B@ 004aea70     libcpmt:iostream.obj
 0002:00004a88       ??_R1A@A@3BA@?$basic_ios@GU?$char_traits@G@std@@@std@@8 004aea88     libcpmt:wiostrea.obj
 0002:00004aa0       ??_R1A@?0A@A@?$basic_istream@GU?$char_traits@G@std@@@std@@8 004aeaa0     libcpmt:wiostrea.obj
 0002:00004ab8       ??_R2?$basic_istream@GU?$char_traits@G@std@@@std@@8 004aeab8     libcpmt:wiostrea.obj
 0002:00004ac8       ??_R3?$basic_istream@GU?$char_traits@G@std@@@std@@8 004aeac8     libcpmt:wiostrea.obj
 0002:00004ad8       ??_R4?$basic_istream@GU?$char_traits@G@std@@@std@@6B@ 004aead8     libcpmt:wiostrea.obj
 0002:00004af0       ??_R1A@?0A@A@?$basic_ostream@GU?$char_traits@G@std@@@std@@8 004aeaf0     libcpmt:wiostrea.obj
 0002:00004b08       ??_R2?$basic_ostream@GU?$char_traits@G@std@@@std@@8 004aeb08     libcpmt:wiostrea.obj
 0002:00004b18       ??_R3?$basic_ostream@GU?$char_traits@G@std@@@std@@8 004aeb18     libcpmt:wiostrea.obj
 0002:00004b28       ??_R4?$basic_ostream@GU?$char_traits@G@std@@@std@@6B@ 004aeb28     libcpmt:wiostrea.obj
 0002:00004b40       ??_R1A@?0A@A@?$basic_ios@GU?$char_traits@G@std@@@std@@8 004aeb40     libcpmt:wiostrea.obj
 0002:00004b58       ??_R2?$basic_ios@GU?$char_traits@G@std@@@std@@8 004aeb58     libcpmt:wiostrea.obj
 0002:00004b68       ??_R3?$basic_ios@GU?$char_traits@G@std@@@std@@8 004aeb68     libcpmt:wiostrea.obj
 0002:00004b78       ??_R4?$basic_ios@GU?$char_traits@G@std@@@std@@6B@ 004aeb78     libcpmt:wiostrea.obj
 0002:00004b90       ??_R1A@?0A@A@?$basic_filebuf@GU?$char_traits@G@std@@@std@@8 004aeb90     libcpmt:wiostrea.obj
 0002:00004ba8       ??_R2?$basic_filebuf@GU?$char_traits@G@std@@@std@@8 004aeba8     libcpmt:wiostrea.obj
 0002:00004bb8       ??_R3?$basic_filebuf@GU?$char_traits@G@std@@@std@@8 004aebb8     libcpmt:wiostrea.obj
 0002:00004bc8       ??_R4?$basic_filebuf@GU?$char_traits@G@std@@@std@@6B@ 004aebc8     libcpmt:wiostrea.obj
 0002:00004be0       ??_R1A@?0A@A@?$basic_streambuf@GU?$char_traits@G@std@@@std@@8 004aebe0     libcpmt:wiostrea.obj
 0002:00004bf8       ??_R2?$basic_streambuf@GU?$char_traits@G@std@@@std@@8 004aebf8     libcpmt:wiostrea.obj
 0002:00004c00       ??_R3?$basic_streambuf@GU?$char_traits@G@std@@@std@@8 004aec00     libcpmt:wiostrea.obj
 0002:00004c10       ??_R4?$basic_streambuf@GU?$char_traits@G@std@@@std@@6B@ 004aec10     libcpmt:wiostrea.obj
 0002:00004c28       ??_R1A@?0A@A@exception@@8  004aec28     libcpmt:string.obj
 0002:00004c40       ??_R1A@?0A@A@logic_error@std@@8 004aec40     libcpmt:string.obj
 0002:00004c58       ??_R1A@?0A@A@length_error@std@@8 004aec58     libcpmt:string.obj
 0002:00004c70       ??_R2length_error@std@@8   004aec70     libcpmt:string.obj
 0002:00004c80       ??_R3length_error@std@@8   004aec80     libcpmt:string.obj
 0002:00004c90       ??_R4length_error@std@@6B@ 004aec90     libcpmt:string.obj
 0002:00004ca8       ??_R2logic_error@std@@8    004aeca8     libcpmt:string.obj
 0002:00004cb8       ??_R3logic_error@std@@8    004aecb8     libcpmt:string.obj
 0002:00004cc8       ??_R4logic_error@std@@6B@  004aecc8     libcpmt:string.obj
 0002:00004ce0       ??_R1A@?0A@A@out_of_range@std@@8 004aece0     libcpmt:string.obj
 0002:00004cf8       ??_R2out_of_range@std@@8   004aecf8     libcpmt:string.obj
 0002:00004d08       ??_R3out_of_range@std@@8   004aed08     libcpmt:string.obj
 0002:00004d18       ??_R4out_of_range@std@@6B@ 004aed18     libcpmt:string.obj
 0002:00004d30       ??_R1A@?0A@A@runtime_error@std@@8 004aed30     libcpmt:ios.obj
 0002:00004d48       ??_R1A@?0A@A@failure@ios_base@std@@8 004aed48     libcpmt:ios.obj
 0002:00004d60       ??_R2failure@ios_base@std@@8 004aed60     libcpmt:ios.obj
 0002:00004d70       ??_R3failure@ios_base@std@@8 004aed70     libcpmt:ios.obj
 0002:00004d80       ??_R4failure@ios_base@std@@6B@ 004aed80     libcpmt:ios.obj
 0002:00004d98       ??_R2runtime_error@std@@8  004aed98     libcpmt:ios.obj
 0002:00004da8       ??_R3runtime_error@std@@8  004aeda8     libcpmt:ios.obj
 0002:00004db8       ??_R4runtime_error@std@@6B@ 004aedb8     libcpmt:ios.obj
 0002:00004dcc       ??_R2ios_base@std@@8       004aedcc     libcpmt:ios.obj
 0002:00004dd8       ??_R3ios_base@std@@8       004aedd8     libcpmt:ios.obj
 0002:00004de8       ??_R4ios_base@std@@6B@     004aede8     libcpmt:ios.obj
 0002:00004dfc       ??_R2facet@locale@std@@8   004aedfc     libcpmt:locale0.obj
 0002:00004e08       ??_R3facet@locale@std@@8   004aee08     libcpmt:locale0.obj
 0002:00004e18       ??_R4facet@locale@std@@6B@ 004aee18     libcpmt:locale0.obj
 0002:00004e30       ??_R1A@?0A@A@facet@locale@std@@8 004aee30     libcpmt:locale0.obj
 0002:00004e48       ??_R1A@?0A@A@_Locimp@locale@std@@8 004aee48     libcpmt:locale0.obj
 0002:00004e60       ??_R2_Locimp@locale@std@@8 004aee60     libcpmt:locale0.obj
 0002:00004e70       ??_R3_Locimp@locale@std@@8 004aee70     libcpmt:locale0.obj
 0002:00004e80       ??_R4_Locimp@locale@std@@6B@ 004aee80     libcpmt:locale0.obj
 0002:00004e98       ??_R1A@?0A@A@?$numpunct@D@std@@8 004aee98     libcpmt:locale.obj
 0002:00004eb0       ??_R2?$numpunct@D@std@@8   004aeeb0     libcpmt:locale.obj
 0002:00004ec0       ??_R3?$numpunct@D@std@@8   004aeec0     libcpmt:locale.obj
 0002:00004ed0       ??_R4?$numpunct@D@std@@6B@ 004aeed0     libcpmt:locale.obj
 0002:00004ee8       ??_R1A@?0A@A@codecvt_base@std@@8 004aeee8     libcpmt:locale.obj
 0002:00004f00       ??_R1A@?0A@A@?$codecvt@DDH@std@@8 004aef00     libcpmt:locale.obj
 0002:00004f18       ??_R2?$codecvt@DDH@std@@8  004aef18     libcpmt:locale.obj
 0002:00004f28       ??_R3?$codecvt@DDH@std@@8  004aef28     libcpmt:locale.obj
 0002:00004f38       ??_R4?$codecvt@DDH@std@@6B@ 004aef38     libcpmt:locale.obj
 0002:00004f50       ??_R1A@?0A@A@?$num_get@DV?$istreambuf_iterator@DU?$char_traits@D@std@@@std@@@std@@8 004aef50     libcpmt:locale.obj
 0002:00004f68       ??_R2?$num_get@DV?$istreambuf_iterator@DU?$char_traits@D@std@@@std@@@std@@8 004aef68     libcpmt:locale.obj
 0002:00004f78       ??_R3?$num_get@DV?$istreambuf_iterator@DU?$char_traits@D@std@@@std@@@std@@8 004aef78     libcpmt:locale.obj
 0002:00004f88       ??_R4?$num_get@DV?$istreambuf_iterator@DU?$char_traits@D@std@@@std@@@std@@6B@ 004aef88     libcpmt:locale.obj
 0002:00004fa0       ??_R1A@?0A@A@?$num_put@DV?$ostreambuf_iterator@DU?$char_traits@D@std@@@std@@@std@@8 004aefa0     libcpmt:locale.obj
 0002:00004fb8       ??_R2?$num_put@DV?$ostreambuf_iterator@DU?$char_traits@D@std@@@std@@@std@@8 004aefb8     libcpmt:locale.obj
 0002:00004fc8       ??_R3?$num_put@DV?$ostreambuf_iterator@DU?$char_traits@D@std@@@std@@@std@@8 004aefc8     libcpmt:locale.obj
 0002:00004fd8       ??_R4?$num_put@DV?$ostreambuf_iterator@DU?$char_traits@D@std@@@std@@@std@@6B@ 004aefd8     libcpmt:locale.obj
 0002:00004ff0       ??_R1A@?0A@A@ctype_base@std@@8 004aeff0     libcpmt:locale.obj
 0002:00005008       ??_R1A@?0A@A@?$ctype@D@std@@8 004af008     libcpmt:locale.obj
 0002:00005020       ??_R2?$ctype@D@std@@8      004af020     libcpmt:locale.obj
 0002:00005030       ??_R3?$ctype@D@std@@8      004af030     libcpmt:locale.obj
 0002:00005040       ??_R4?$ctype@D@std@@6B@    004af040     libcpmt:locale.obj
 0002:00005058       ??_R1A@?0A@A@bad_cast@std@@8 004af058     libcpmt:locale.obj
 0002:00005070       ??_R2bad_cast@std@@8       004af070     libcpmt:locale.obj
 0002:00005080       ??_R3bad_cast@std@@8       004af080     libcpmt:locale.obj
 0002:00005090       ??_R4bad_cast@std@@6B@     004af090     libcpmt:locale.obj
 0002:000050a8       ??_R1A@?0A@A@bad_alloc@std@@8 004af0a8     libcpmt:nomemory.obj
 0002:000050c0       ??_R2bad_alloc@std@@8      004af0c0     libcpmt:nomemory.obj
 0002:000050d0       ??_R3bad_alloc@std@@8      004af0d0     libcpmt:nomemory.obj
 0002:000050e0       ??_R4bad_alloc@std@@6B@    004af0e0     libcpmt:nomemory.obj
 0002:000050f8       ??_R1A@?0A@A@?$num_put@GV?$ostreambuf_iterator@GU?$char_traits@G@std@@@std@@@std@@8 004af0f8     libcpmt:wlocale.obj
 0002:00005110       ??_R2?$num_put@GV?$ostreambuf_iterator@GU?$char_traits@G@std@@@std@@@std@@8 004af110     libcpmt:wlocale.obj
 0002:00005120       ??_R3?$num_put@GV?$ostreambuf_iterator@GU?$char_traits@G@std@@@std@@@std@@8 004af120     libcpmt:wlocale.obj
 0002:00005130       ??_R4?$num_put@GV?$ostreambuf_iterator@GU?$char_traits@G@std@@@std@@@std@@6B@ 004af130     libcpmt:wlocale.obj
 0002:00005148       ??_R1A@?0A@A@?$num_get@GV?$istreambuf_iterator@GU?$char_traits@G@std@@@std@@@std@@8 004af148     libcpmt:wlocale.obj
 0002:00005160       ??_R2?$num_get@GV?$istreambuf_iterator@GU?$char_traits@G@std@@@std@@@std@@8 004af160     libcpmt:wlocale.obj
 0002:00005170       ??_R3?$num_get@GV?$istreambuf_iterator@GU?$char_traits@G@std@@@std@@@std@@8 004af170     libcpmt:wlocale.obj
 0002:00005180       ??_R4?$num_get@GV?$istreambuf_iterator@GU?$char_traits@G@std@@@std@@@std@@6B@ 004af180     libcpmt:wlocale.obj
 0002:00005198       ??_R1A@?0A@A@?$numpunct@G@std@@8 004af198     libcpmt:wlocale.obj
 0002:000051b0       ??_R2?$numpunct@G@std@@8   004af1b0     libcpmt:wlocale.obj
 0002:000051c0       ??_R3?$numpunct@G@std@@8   004af1c0     libcpmt:wlocale.obj
 0002:000051d0       ??_R4?$numpunct@G@std@@6B@ 004af1d0     libcpmt:wlocale.obj
 0002:000051e8       ??_R1A@?0A@A@?$ctype@G@std@@8 004af1e8     libcpmt:wlocale.obj
 0002:00005200       ??_R2?$ctype@G@std@@8      004af200     libcpmt:wlocale.obj
 0002:00005210       ??_R3?$ctype@G@std@@8      004af210     libcpmt:wlocale.obj
 0002:00005220       ??_R4?$ctype@G@std@@6B@    004af220     libcpmt:wlocale.obj
 0002:00005238       ??_R1A@?0A@A@?$time_put@GV?$ostreambuf_iterator@GU?$char_traits@G@std@@@std@@@std@@8 004af238     libcpmt:wlocale.obj
 0002:00005250       ??_R2?$time_put@GV?$ostreambuf_iterator@GU?$char_traits@G@std@@@std@@@std@@8 004af250     libcpmt:wlocale.obj
 0002:00005260       ??_R3?$time_put@GV?$ostreambuf_iterator@GU?$char_traits@G@std@@@std@@@std@@8 004af260     libcpmt:wlocale.obj
 0002:00005270       ??_R4?$time_put@GV?$ostreambuf_iterator@GU?$char_traits@G@std@@@std@@@std@@6B@ 004af270     libcpmt:wlocale.obj
 0002:00005288       ??_R1A@?0A@A@time_base@std@@8 004af288     libcpmt:wlocale.obj
 0002:000052a0       ??_R1A@?0A@A@?$time_get@GV?$istreambuf_iterator@GU?$char_traits@G@std@@@std@@@std@@8 004af2a0     libcpmt:wlocale.obj
 0002:000052b8       ??_R2?$time_get@GV?$istreambuf_iterator@GU?$char_traits@G@std@@@std@@@std@@8 004af2b8     libcpmt:wlocale.obj
 0002:000052c8       ??_R3?$time_get@GV?$istreambuf_iterator@GU?$char_traits@G@std@@@std@@@std@@8 004af2c8     libcpmt:wlocale.obj
 0002:000052d8       ??_R4?$time_get@GV?$istreambuf_iterator@GU?$char_traits@G@std@@@std@@@std@@6B@ 004af2d8     libcpmt:wlocale.obj
 0002:000052f0       ??_R1A@?0A@A@?$moneypunct@G$00@std@@8 004af2f0     libcpmt:wlocale.obj
 0002:00005308       ??_R2?$moneypunct@G$00@std@@8 004af308     libcpmt:wlocale.obj
 0002:00005320       ??_R3?$moneypunct@G$00@std@@8 004af320     libcpmt:wlocale.obj
 0002:00005330       ??_R4?$moneypunct@G$00@std@@6B@ 004af330     libcpmt:wlocale.obj
 0002:00005348       ??_R1A@?0A@A@money_base@std@@8 004af348     libcpmt:wlocale.obj
 0002:00005360       ??_R1A@?0A@A@?$_Mpunct@G@std@@8 004af360     libcpmt:wlocale.obj
 0002:00005378       ??_R1A@?0A@A@?$moneypunct@G$0A@@std@@8 004af378     libcpmt:wlocale.obj
 0002:00005390       ??_R2?$moneypunct@G$0A@@std@@8 004af390     libcpmt:wlocale.obj
 0002:000053a8       ??_R3?$moneypunct@G$0A@@std@@8 004af3a8     libcpmt:wlocale.obj
 0002:000053b8       ??_R4?$moneypunct@G$0A@@std@@6B@ 004af3b8     libcpmt:wlocale.obj
 0002:000053d0       ??_R1A@?0A@A@?$money_put@GV?$ostreambuf_iterator@GU?$char_traits@G@std@@@std@@@std@@8 004af3d0     libcpmt:wlocale.obj
 0002:000053e8       ??_R2?$money_put@GV?$ostreambuf_iterator@GU?$char_traits@G@std@@@std@@@std@@8 004af3e8     libcpmt:wlocale.obj
 0002:000053f8       ??_R3?$money_put@GV?$ostreambuf_iterator@GU?$char_traits@G@std@@@std@@@std@@8 004af3f8     libcpmt:wlocale.obj
 0002:00005408       ??_R4?$money_put@GV?$ostreambuf_iterator@GU?$char_traits@G@std@@@std@@@std@@6B@ 004af408     libcpmt:wlocale.obj
 0002:00005420       ??_R1A@?0A@A@?$money_get@GV?$istreambuf_iterator@GU?$char_traits@G@std@@@std@@@std@@8 004af420     libcpmt:wlocale.obj
 0002:00005438       ??_R2?$money_get@GV?$istreambuf_iterator@GU?$char_traits@G@std@@@std@@@std@@8 004af438     libcpmt:wlocale.obj
 0002:00005448       ??_R3?$money_get@GV?$istreambuf_iterator@GU?$char_traits@G@std@@@std@@@std@@8 004af448     libcpmt:wlocale.obj
 0002:00005458       ??_R4?$money_get@GV?$istreambuf_iterator@GU?$char_traits@G@std@@@std@@@std@@6B@ 004af458     libcpmt:wlocale.obj
 0002:00005470       ??_R1A@?0A@A@messages_base@std@@8 004af470     libcpmt:wlocale.obj
 0002:00005488       ??_R1A@?0A@A@?$messages@G@std@@8 004af488     libcpmt:wlocale.obj
 0002:000054a0       ??_R2?$messages@G@std@@8   004af4a0     libcpmt:wlocale.obj
 0002:000054b0       ??_R3?$messages@G@std@@8   004af4b0     libcpmt:wlocale.obj
 0002:000054c0       ??_R4?$messages@G@std@@6B@ 004af4c0     libcpmt:wlocale.obj
 0002:000054d8       ??_R1A@?0A@A@?$collate@G@std@@8 004af4d8     libcpmt:wlocale.obj
 0002:000054f0       ??_R2?$collate@G@std@@8    004af4f0     libcpmt:wlocale.obj
 0002:00005500       ??_R3?$collate@G@std@@8    004af500     libcpmt:wlocale.obj
 0002:00005510       ??_R4?$collate@G@std@@6B@  004af510     libcpmt:wlocale.obj
 0002:00005528       ??_R1A@?0A@A@?$codecvt@GDH@std@@8 004af528     libcpmt:wlocale.obj
 0002:00005540       ??_R2?$codecvt@GDH@std@@8  004af540     libcpmt:wlocale.obj
 0002:00005550       ??_R3?$codecvt@GDH@std@@8  004af550     libcpmt:wlocale.obj
 0002:00005560       ??_R4?$codecvt@GDH@std@@6B@ 004af560     libcpmt:wlocale.obj
 0002:00005578       ??_R2?$_Mpunct@G@std@@8    004af578     libcpmt:wlocale.obj
 0002:00005588       ??_R3?$_Mpunct@G@std@@8    004af588     libcpmt:wlocale.obj
 0002:00005598       ??_R4?$_Mpunct@G@std@@6B@  004af598     libcpmt:wlocale.obj
 0002:000055b0       ??_R1A@?0A@A@?$time_put@DV?$ostreambuf_iterator@DU?$char_traits@D@std@@@std@@@std@@8 004af5b0     libcpmt:xlocale.obj
 0002:000055c8       ??_R2?$time_put@DV?$ostreambuf_iterator@DU?$char_traits@D@std@@@std@@@std@@8 004af5c8     libcpmt:xlocale.obj
 0002:000055d8       ??_R3?$time_put@DV?$ostreambuf_iterator@DU?$char_traits@D@std@@@std@@@std@@8 004af5d8     libcpmt:xlocale.obj
 0002:000055e8       ??_R4?$time_put@DV?$ostreambuf_iterator@DU?$char_traits@D@std@@@std@@@std@@6B@ 004af5e8     libcpmt:xlocale.obj
 0002:00005600       ??_R1A@?0A@A@?$time_get@DV?$istreambuf_iterator@DU?$char_traits@D@std@@@std@@@std@@8 004af600     libcpmt:xlocale.obj
 0002:00005618       ??_R2?$time_get@DV?$istreambuf_iterator@DU?$char_traits@D@std@@@std@@@std@@8 004af618     libcpmt:xlocale.obj
 0002:00005628       ??_R3?$time_get@DV?$istreambuf_iterator@DU?$char_traits@D@std@@@std@@@std@@8 004af628     libcpmt:xlocale.obj
 0002:00005638       ??_R4?$time_get@DV?$istreambuf_iterator@DU?$char_traits@D@std@@@std@@@std@@6B@ 004af638     libcpmt:xlocale.obj
 0002:00005650       ??_R1A@?0A@A@?$moneypunct@D$00@std@@8 004af650     libcpmt:xlocale.obj
 0002:00005668       ??_R2?$moneypunct@D$00@std@@8 004af668     libcpmt:xlocale.obj
 0002:00005680       ??_R3?$moneypunct@D$00@std@@8 004af680     libcpmt:xlocale.obj
 0002:00005690       ??_R4?$moneypunct@D$00@std@@6B@ 004af690     libcpmt:xlocale.obj
 0002:000056a8       ??_R1A@?0A@A@?$_Mpunct@D@std@@8 004af6a8     libcpmt:xlocale.obj
 0002:000056c0       ??_R1A@?0A@A@?$moneypunct@D$0A@@std@@8 004af6c0     libcpmt:xlocale.obj
 0002:000056d8       ??_R2?$moneypunct@D$0A@@std@@8 004af6d8     libcpmt:xlocale.obj
 0002:000056f0       ??_R3?$moneypunct@D$0A@@std@@8 004af6f0     libcpmt:xlocale.obj
 0002:00005700       ??_R4?$moneypunct@D$0A@@std@@6B@ 004af700     libcpmt:xlocale.obj
 0002:00005718       ??_R1A@?0A@A@?$money_put@DV?$ostreambuf_iterator@DU?$char_traits@D@std@@@std@@@std@@8 004af718     libcpmt:xlocale.obj
 0002:00005730       ??_R2?$money_put@DV?$ostreambuf_iterator@DU?$char_traits@D@std@@@std@@@std@@8 004af730     libcpmt:xlocale.obj
 0002:00005740       ??_R3?$money_put@DV?$ostreambuf_iterator@DU?$char_traits@D@std@@@std@@@std@@8 004af740     libcpmt:xlocale.obj
 0002:00005750       ??_R4?$money_put@DV?$ostreambuf_iterator@DU?$char_traits@D@std@@@std@@@std@@6B@ 004af750     libcpmt:xlocale.obj
 0002:00005768       ??_R1A@?0A@A@?$money_get@DV?$istreambuf_iterator@DU?$char_traits@D@std@@@std@@@std@@8 004af768     libcpmt:xlocale.obj
 0002:00005780       ??_R2?$money_get@DV?$istreambuf_iterator@DU?$char_traits@D@std@@@std@@@std@@8 004af780     libcpmt:xlocale.obj
 0002:00005790       ??_R3?$money_get@DV?$istreambuf_iterator@DU?$char_traits@D@std@@@std@@@std@@8 004af790     libcpmt:xlocale.obj
 0002:000057a0       ??_R4?$money_get@DV?$istreambuf_iterator@DU?$char_traits@D@std@@@std@@@std@@6B@ 004af7a0     libcpmt:xlocale.obj
 0002:000057b8       ??_R1A@?0A@A@?$messages@D@std@@8 004af7b8     libcpmt:xlocale.obj
 0002:000057d0       ??_R2?$messages@D@std@@8   004af7d0     libcpmt:xlocale.obj
 0002:000057e0       ??_R3?$messages@D@std@@8   004af7e0     libcpmt:xlocale.obj
 0002:000057f0       ??_R4?$messages@D@std@@6B@ 004af7f0     libcpmt:xlocale.obj
 0002:00005808       ??_R1A@?0A@A@?$collate@D@std@@8 004af808     libcpmt:xlocale.obj
 0002:00005820       ??_R2?$collate@D@std@@8    004af820     libcpmt:xlocale.obj
 0002:00005830       ??_R3?$collate@D@std@@8    004af830     libcpmt:xlocale.obj
 0002:00005840       ??_R4?$collate@D@std@@6B@  004af840     libcpmt:xlocale.obj
 0002:00005858       ??_R2?$_Mpunct@D@std@@8    004af858     libcpmt:xlocale.obj
 0002:00005868       ??_R3?$_Mpunct@D@std@@8    004af868     libcpmt:xlocale.obj
 0002:00005878       ??_R4?$_Mpunct@D@std@@6B@  004af878     libcpmt:xlocale.obj
 0002:0000588c       ??_R2exception@@8          004af88c     LIBCMT:stdexcpt.obj
 0002:00005898       ??_R3exception@@8          004af898     LIBCMT:stdexcpt.obj
 0002:000058a8       ??_R4exception@@6B@        004af8a8     LIBCMT:stdexcpt.obj
 0002:000058c0       ??_R1A@?0A@A@type_info@@8  004af8c0     LIBCMT:typinfo.obj
 0002:000058d8       ??_R2type_info@@8          004af8d8     LIBCMT:typinfo.obj
 0002:000058e0       ??_R3type_info@@8          004af8e0     LIBCMT:typinfo.obj
 0002:000058f0       ??_R4type_info@@6B@        004af8f0     LIBCMT:typinfo.obj
 0002:00006910       __CT??_R0?AVexception@@@8??0exception@@QAE@ABV0@@Z12 004b0910     DBBackup.obj
 0002:00006930       __CT??_R0?AVbad_cast@std@@@8??0bad_cast@std@@QAE@ABV01@@Z12 004b0930     DBBackup.obj
 0002:00006950       __CTA2?AVbad_cast@std@@    004b0950     DBBackup.obj
 0002:00006960       __TI2?AVbad_cast@std@@     004b0960     DBBackup.obj
 0002:00006f80       __CT??_R0?AVCException@Win32@OnlineGameLib@@@8??0CException@Win32@OnlineGameLib@@QAE@ABV012@@Z36 004b0f80     common:Event.obj
 0002:00006fa0       __CT??_R0?AVCWin32Exception@Win32@OnlineGameLib@@@8??0CWin32Exception@Win32@OnlineGameLib@@QAE@ABV012@@Z40 004b0fa0     common:Event.obj
 0002:00006fc0       __CTA2?AVCWin32Exception@Win32@OnlineGameLib@@ 004b0fc0     common:Event.obj
 0002:00006fd0       __TI2?AVCWin32Exception@Win32@OnlineGameLib@@ 004b0fd0     common:Event.obj
 0002:00007128       __CTA1?AVCException@Win32@OnlineGameLib@@ 004b1128     common:Event.obj
 0002:00007130       __TI1?AVCException@Win32@OnlineGameLib@@ 004b1130     common:Event.obj
 0002:00007db8       __CT??_R0?AVlogic_error@std@@@8??0logic_error@std@@QAE@ABV01@@Z28 004b1db8     libcpmt:string.obj
 0002:00007dd8       __CT??_R0?AVlength_error@std@@@8??0length_error@std@@QAE@ABV01@@Z28 004b1dd8     libcpmt:string.obj
 0002:00007df8       __CTA3?AVlength_error@std@@ 004b1df8     libcpmt:string.obj
 0002:00007e08       __TI3?AVlength_error@std@@ 004b1e08     libcpmt:string.obj
 0002:00007e68       __CTA2?AVlogic_error@std@@ 004b1e68     libcpmt:string.obj
 0002:00007e78       __TI2?AVlogic_error@std@@  004b1e78     libcpmt:string.obj
 0002:00007f00       __CT??_R0?AVout_of_range@std@@@8??0out_of_range@std@@QAE@ABV01@@Z28 004b1f00     libcpmt:string.obj
 0002:00007f20       __CTA3?AVout_of_range@std@@ 004b1f20     libcpmt:string.obj
 0002:00007f30       __TI3?AVout_of_range@std@@ 004b1f30     libcpmt:string.obj
 0002:00007f90       __CT??_R0?AVruntime_error@std@@@8??0runtime_error@std@@QAE@ABV01@@Z28 004b1f90     libcpmt:ios.obj
 0002:00007fb0       __CT??_R0?AVfailure@ios_base@std@@@8??0failure@ios_base@std@@QAE@ABV012@@Z28 004b1fb0     libcpmt:ios.obj
 0002:00007fd0       __CTA3?AVfailure@ios_base@std@@ 004b1fd0     libcpmt:ios.obj
 0002:00007fe0       __TI3?AVfailure@ios_base@std@@ 004b1fe0     libcpmt:ios.obj
 0002:00008040       __CTA2?AVruntime_error@std@@ 004b2040     libcpmt:ios.obj
 0002:00008050       __TI2?AVruntime_error@std@@ 004b2050     libcpmt:ios.obj
 0002:00008760       __CT??_R0?AVbad_alloc@std@@@8??0bad_alloc@std@@QAE@ABV01@@Z12 004b2760     libcpmt:nomemory.obj
 0002:00008780       __CTA2?AVbad_alloc@std@@   004b2780     libcpmt:nomemory.obj
 0002:00008790       __TI2?AVbad_alloc@std@@    004b2790     libcpmt:nomemory.obj
 0002:00009cb8       __IMPORT_DESCRIPTOR_KERNEL32 004b3cb8     kernel32:KERNEL32.dll
 0002:00009ccc       __IMPORT_DESCRIPTOR_USER32 004b3ccc     user32:USER32.dll
 0002:00009ce0       __IMPORT_DESCRIPTOR_WS2_32 004b3ce0     ws2_32:WS2_32.dll
 0002:00009cf4       __IMPORT_DESCRIPTOR_VERSION 004b3cf4     Version:VERSION.dll
 0002:00009d08       __IMPORT_DESCRIPTOR_ADVAPI32 004b3d08     advapi32:ADVAPI32.dll
 0002:00009d1c       __NULL_IMPORT_DESCRIPTOR   004b3d1c     kernel32:KERNEL32.dll
 0003:00000000       ___xc_a                    004b5000     LIBCMT:crt0init.obj
 0003:000000f8       ___xc_z                    004b50f8     LIBCMT:crt0init.obj
 0003:000000fc       ___xi_a                    004b50fc     LIBCMT:crt0init.obj
 0003:00000110       ___xi_z                    004b5110     LIBCMT:crt0init.obj
 0003:00000114       ___xp_a                    004b5114     LIBCMT:crt0init.obj
 0003:0000011c       ___xp_z                    004b511c     LIBCMT:crt0init.obj
 0003:00000120       ___xt_a                    004b5120     LIBCMT:crt0init.obj
 0003:00000128       ___xt_z                    004b5128     LIBCMT:crt0init.obj
 0003:00000130       ?GUID_ATLVer30@ATL@@3U_GUID@@A 004b5130     ClientNode.obj
 0003:00000790       ??_R0?AVexception@@@8      004b5790     DBBackup.obj
 0003:000007a8       ??_R0?AVbad_cast@std@@@8   004b57a8     DBBackup.obj
 0003:000007c4       ??_C@_0BF@MMAA@missing?5locale?5facet?$AA@ 004b57c4     DBBackup.obj
 0003:000007dc       ??_C@_01FKHJ@C?$AA@        004b57dc     DBBackup.obj
 0003:000007e0       ??_C@_02MHAC@?$CFp?$AA@    004b57e0     DBBackup.obj
 0003:000007e4       ??_C@_01PHOL@e?$AA@        004b57e4     DBBackup.obj
 0003:000007e8       ??_C@_01KFAL@E?$AA@        004b57e8     DBBackup.obj
 0003:000007ec       ??_C@_01KMAE@?0?$AA@       004b57ec     DBBackup.obj
 0003:000007f0       ??_C@_05NAGO@false?$AA@    004b57f0     DBBackup.obj
 0003:000007f8       ??_C@_04NCCD@true?$AA@     004b57f8     DBBackup.obj
 0003:00000cb8       ??_R0?AVCException@Win32@OnlineGameLib@@@8 004b5cb8     common:Event.obj
 0003:00000ce8       ??_R0?AVCWin32Exception@Win32@OnlineGameLib@@@8 004b5ce8     common:Event.obj
 0003:00000f18       ??_C@_0BD@IKDH@SAFE_DELETE?5error?6?$AA@ 004b5f18     common:Buffer.obj
 0003:00001068       ___db_global_values        004b6068     libdb41s:env_method.obj
 0003:000010c0       ??_C@_09NMDG@set_alloc?$AA@ 004b60c0     libdb41s:env_method.obj
 0003:000010cc       ??_C@_0BB@KBEF@set_app_dispatch?$AA@ 004b60cc     libdb41s:env_method.obj
 0003:000010e0       ??_C@_0BK@JHFC@set_flags?3?5DB_REGION_INIT?$AA@ 004b60e0     libdb41s:env_method.obj
 0003:000010fc       ??_C@_0CA@HCNE@set_flags?3?5DB_PANIC_ENVIRONMENT?$AA@ 004b60fc     libdb41s:env_method.obj
 0003:0000111c       ??_C@_0BI@MOIJ@set_flags?3?5DB_CDB_ALLDB?$AA@ 004b611c     libdb41s:env_method.obj
 0003:00001134       ??_C@_0BC@MODP@DB_ENV?9?$DOset_flags?$AA@ 004b6134     libdb41s:env_method.obj
 0003:00001148       ??_C@_0M@EIIK@set_shm_key?$AA@ 004b6148     libdb41s:env_method.obj
 0003:00001154       ??_C@_0CP@OEBE@?$CFs?3?5method?5not?5permitted?5in?5shar@ 004b6154     libdb41s:env_method.obj
 0003:00001184       ??_C@_0CB@CLKE@?$CFs?3?5method?5not?5permitted?5?$CFs?5open@ 004b6184     libdb41s:env_method.obj
 0003:000011a8       ??_C@_06NNGD@before?$AA@   004b61a8     libdb41s:env_method.obj
 0003:000011b0       ??_C@_05BKDG@after?$AA@    004b61b0     libdb41s:env_method.obj
 0003:000011b8       ??_C@_0EF@GOMK@?$CFs?5interface?5requires?5an?5environ@ 004b61b8     libdb41s:env_method.obj
 0003:00001200       ??_C@_0M@HIHI@transaction?$AA@ 004b6200     libdb41s:env_method.obj
 0003:0000120c       ??_C@_0O@GGPP@?$DMunspecified?$DO?$AA@ 004b620c     libdb41s:env_method.obj
 0003:0000121c       ??_C@_0M@HCON@memory?5pool?$AA@ 004b621c     libdb41s:env_method.obj
 0003:00001228       ??_C@_07GMDO@locking?$AA@  004b6228     libdb41s:env_method.obj
 0003:00001230       ??_C@_07FDHD@logging?$AA@  004b6230     libdb41s:env_method.obj
 0003:00001238       ??_C@_0DL@NEBD@set_rpc_server?5method?5not?5permit@ 004b6238     libdb41s:env_method.obj
 0003:00001274       ??_C@_0DM@CFE@XA?5applications?5may?5not?5specify?5@ 004b6274     libdb41s:db_method.obj
 0003:000012b0       ??_C@_09PDNE@db_create?$AA@ 004b62b0     libdb41s:db_method.obj
 0003:000012bc       ??_C@_0EI@PKIF@call?5implies?5an?5access?5method?5wh@ 004b62bc     libdb41s:db_method.obj
 0003:00001304       ??_C@_0BA@NOPK@get_byteswapped?$AA@ 004b6304     libdb41s:db_method.obj
 0003:00001314       ??_C@_08FHFC@get_type?$AA@ 004b6314     libdb41s:db_method.obj
 0003:00001320       ??_C@_09JMCA@key_range?$AA@ 004b6320     libdb41s:db_method.obj
 0003:0000132c       ??_C@_0BB@MCGJ@set_append_recno?$AA@ 004b632c     libdb41s:db_method.obj
 0003:00001340       ??_C@_0O@JLOK@set_cachesize?$AA@ 004b6340     libdb41s:db_method.obj
 0003:00001350       ??_C@_0M@JDHL@dup_compare?$AA@ 004b6350     libdb41s:db_method.obj
 0003:0000135c       ??_C@_0M@DNMN@set_encrypt?$AA@ 004b635c     libdb41s:db_method.obj
 0003:00001368       ??_C@_0O@IKGO@DB?9?$DOset_flags?$AA@ 004b6368     libdb41s:db_method.obj
 0003:00001378       ??_C@_0DD@PDOD@Database?5environment?5not?5configu@ 004b6378     libdb41s:db_method.obj
 0003:000013ac       ??_C@_0L@DEMA@set_lorder?$AA@ 004b63ac     libdb41s:db_method.obj
 0003:000013b8       ??_C@_0CA@OLD@page?5sizes?5must?5be?5a?5power?9of?92?$AA@ 004b63b8     libdb41s:db_method.obj
 0003:000013d8       ??_C@_0CG@BBDF@page?5sizes?5may?5not?5be?5larger?5tha@ 004b63d8     libdb41s:db_method.obj
 0003:00001400       ??_C@_0CH@GGKK@page?5sizes?5may?5not?5be?5smaller?5th@ 004b6400     libdb41s:db_method.obj
 0003:00001428       ??_C@_0N@EKJH@set_pagesize?$AA@ 004b6428     libdb41s:db_method.obj
 0003:00001438       ??_C@_08DJHN@DB?9?$DOstat?$AA@ 004b6438     libdb41s:db_method.obj
 0003:00001444       ??_C@_0BA@GIIH@malloc?3?5?$CFs?3?5?$CFlu?$AA@ 004b6444     libdb41s:os_alloc.obj
 0003:00001454       ??_C@_0CN@IPLH@User?9specified?5malloc?5function?5r@ 004b6454     libdb41s:os_alloc.obj
 0003:00001484       ??_C@_0BB@GKNG@realloc?3?5?$CFs?3?5?$CFlu?$AA@ 004b6484     libdb41s:os_alloc.obj
 0003:00001498       ??_C@_0CO@OBLO@User?9specified?5realloc?5function?5@ 004b6498     libdb41s:os_alloc.obj
 0003:000014c8       ??_C@_0L@IDL@set_tx_max?$AA@ 004b64c8     libdb41s:txn_method.obj
 0003:000014d4       ??_C@_0BB@HADO@set_tx_timestamp?$AA@ 004b64d4     libdb41s:txn_method.obj
 0003:000014e8       ??_C@_0CJ@HOBJ@DB_ENV?9?$DOrep_start?5called?5with?5op@ 004b64e8     libdb41s:rep_method.obj
 0003:00001514       ??_C@_0EC@BLFP@DB_ENV?9?$DOset_rep_transport?5must?5b@ 004b6514     libdb41s:rep_method.obj
 0003:00001558       ??_C@_0DG@EBGA@DB_ENV?9?$DOrep_start?3?5replication?5m@ 004b6558     libdb41s:rep_method.obj
 0003:00001590       ??_C@_0BC@JIDJ@DB_ENV?9?$DOrep_start?$AA@ 004b6590     libdb41s:rep_method.obj
 0003:000015a4       ??_C@_08OEAM@rep_stat?$AA@ 004b65a4     libdb41s:rep_method.obj
 0003:000015b0       ??_C@_09HMBH@rep_start?$AA@ 004b65b0     libdb41s:rep_method.obj
 0003:000015bc       ??_C@_0M@IIPF@__db?4rep?4db?$AA@ 004b65bc     libdb41s:rep_method.obj
 0003:000015c8       ??_C@_0BL@KMAC@Final?5log?5record?5not?5found?$AA@ 004b65c8     libdb41s:rep_method.obj
 0003:000015e4       ??_C@_0CH@HKNC@Attempt?5to?5get?5first?5log?5record?5@ 004b65e4     libdb41s:rep_method.obj
 0003:0000160c       ??_C@_0CL@NHCN@Checkpoint?5LSN?5record?5?$FL?$CFlu?$FN?$FL?$CFlu?$FN@ 004b660c     libdb41s:rep_method.obj
 0003:00001638       ??_C@_0CI@DEEM@Invalid?5checkpoint?5record?5at?5?$FL?$CFl@ 004b6638     libdb41s:rep_method.obj
 0003:00001660       ??_C@_0CO@EKBK@Checkpoint?5record?5at?5LSN?5?$FL?$CFlu?$FN?$FL?$CF@ 004b6660     libdb41s:rep_method.obj
 0003:00001690       ??_C@_0EF@NHPG@DB_ENV?9?$DOset_rep_limit?3?5database?5@ 004b6690     libdb41s:rep_method.obj
 0003:000016d8       ??_C@_0EH@BOOO@DB_ENV?9?$DOset_rep_request?3?5databas@ 004b66d8     libdb41s:rep_method.obj
 0003:00001720       ??_C@_0EC@FKHE@DB_ENV?9?$DOset_rep_transport?3?5eid?5m@ 004b6720     libdb41s:rep_method.obj
 0003:00001764       ??_C@_0DG@LEAM@DB_ENV?9?$DOset_rep_transport?3?5no?5se@ 004b6764     libdb41s:rep_method.obj
 0003:0000179c       ??_C@_0EJ@EDDG@DB_ENV?9?$DOset_rep_transport?3?5datab@ 004b679c     libdb41s:rep_method.obj
 0003:000017e8       ??_C@_0DA@KEHK@DB_ENV?9?$DOrep_elect?3?5priority?5may?5@ 004b67e8     libdb41s:rep_method.obj
 0003:00001818       ??_C@_0DB@EKBN@DB_ENV?9?$DOrep_elect?3?5nsites?5must?5b@ 004b6818     libdb41s:rep_method.obj
 0003:0000184c       ??_C@_09PFHF@rep_elect?$AA@ 004b684c     libdb41s:rep_method.obj
 0003:00001858       ??_C@_0BB@MKGI@DB_ENV?9?$DOrep_stat?$AA@ 004b6858     libdb41s:rep_method.obj
 0003:0000186c       ??_C@_0CA@NFCF@individual?5cache?5size?5too?5large?$AA@ 004b686c     libdb41s:mp_method.obj
 0003:0000188c       ??_C@_0BB@HOIA@set_lk_conflicts?$AA@ 004b688c     libdb41s:lock_method.obj
 0003:000018a0       ??_C@_0EB@KNEN@DB_ENV?9?$DOset_lk_detect?3?5unknown?5d@ 004b68a0     libdb41s:lock_method.obj
 0003:000018e4       ??_C@_0O@PBAP@set_lk_detect?$AA@ 004b68e4     libdb41s:lock_method.obj
 0003:000018f4       ??_C@_0L@BNAC@set_lk_max?$AA@ 004b68f4     libdb41s:lock_method.obj
 0003:00001900       ??_C@_0BB@KJCG@set_lk_max_locks?$AA@ 004b6900     libdb41s:lock_method.obj
 0003:00001914       ??_C@_0BD@NELH@set_lk_max_lockers?$AA@ 004b6914     libdb41s:lock_method.obj
 0003:00001928       ??_C@_0BD@GND@set_lk_max_objects?$AA@ 004b6928     libdb41s:lock_method.obj
 0003:0000193c       ??_C@_0BE@BHJP@DB_ENV?9?$DOset_timeout?$AA@ 004b693c     libdb41s:lock_method.obj
 0003:00001950       ??_C@_0M@PNBF@set_timeout?$AA@ 004b6950     libdb41s:lock_method.obj
 0003:0000195c       ??_C@_0CN@NFDF@log?5buffer?5size?5must?5be?5?$DM?$DN?5log?5f@ 004b695c     libdb41s:log_method.obj
 0003:0000198c       ??_C@_0N@GNDA@set_lg_bsize?$AA@ 004b698c     libdb41s:log_method.obj
 0003:0000199c       ??_C@_0CN@HMFA@log?5file?5size?5must?5be?5?$DO?$DN?5log?5buf@ 004b699c     libdb41s:log_method.obj
 0003:000019cc       ??_C@_0L@JMLN@set_lg_max?$AA@ 004b69cc     libdb41s:log_method.obj
 0003:000019d8       ??_C@_0BM@OEOA@log?5file?5size?5must?5be?5?$DO?$DN?5?$CFd?$AA@ 004b69d8     libdb41s:log_method.obj
 0003:000019f4       ??_C@_0BB@EDMA@set_lg_regionmax?$AA@ 004b69f4     libdb41s:log_method.obj
 0003:00001a08       ??_C@_0DM@DFKO@Sleepycat?5Software?3?5Berkeley?5DB?5@ 004b6a08     libdb41s:env_open.obj
 0003:00001a44       ??_C@_06FBLN@rwrw?9?9?$AA@ 004b6a44     libdb41s:env_open.obj
 0003:00001a4c       ??_C@_0N@NENJ@DB_ENV?9?$DOopen?$AA@ 004b6a4c     libdb41s:env_open.obj
 0003:00001a5c       ??_C@_0P@MMKA@DB_ENV?9?$DOremove?$AA@ 004b6a5c     libdb41s:env_open.obj
 0003:00001a6c       ??_C@_0BJ@NALJ@DB_CONFIG?3?5line?5too?5long?$AA@ 004b6a6c     libdb41s:env_open.obj
 0003:00001a88       ??_C@_01LHO@r?$AA@         004b6a88     libdb41s:env_open.obj
 0003:00001a8c       ??_C@_09HOJD@DB_CONFIG?$AA@ 004b6a8c     libdb41s:env_open.obj
 0003:00001a98       ??_C@_0CP@GJNE@Database?5handles?5open?5during?5env@ 004b6a98     libdb41s:env_open.obj
 0003:00001ac8       ??_C@_03IHHK@?2?1?3?$AA@   004b6ac8     libdb41s:env_open.obj
 0003:00001acc       ??_C@_0CF@PMNK@illegal?5DB_HOME?5environment?5vari@ 004b6acc     libdb41s:env_open.obj
 0003:00001af4       ??_C@_07BFDH@DB_HOME?$AA@  004b6af4     libdb41s:env_open.obj
 0003:00001afc       ??_C@_0CC@PEOC@mis?9formatted?5name?9value?5pair?3?5?$CF@ 004b6afc     libdb41s:env_open.obj
 0003:00001b20       ??_C@_0CB@HICC@unrecognized?5name?9value?5pair?3?5?$CFs@ 004b6b20     libdb41s:env_open.obj
 0003:00001b44       ??_C@_0CM@MEPL@incorrect?5arguments?5for?5name?9val@ 004b6b44     libdb41s:env_open.obj
 0003:00001b70       ??_C@_0BB@CEIH@db_verb_waitsfor?$AA@ 004b6b70     libdb41s:env_open.obj
 0003:00001b84       ??_C@_0BB@ONMJ@db_verb_recovery?$AA@ 004b6b84     libdb41s:env_open.obj
 0003:00001b98       ??_C@_0BB@JEBC@db_verb_deadlock?$AA@ 004b6b98     libdb41s:env_open.obj
 0003:00001bac       ??_C@_0BB@FKMM@db_verb_chkpoint?$AA@ 004b6bac     libdb41s:env_open.obj
 0003:00001bc0       ??_C@_0M@LGJM@set_verbose?$AA@ 004b6bc0     libdb41s:env_open.obj
 0003:00001bcc       ??_C@_0CG@EKBE@?$CFs?3?5?$CFlu?5larger?5than?5maximum?5valu@ 004b6bcc     libdb41s:env_open.obj
 0003:00001bf4       ??_C@_0BA@KJOJ@set_txn_timeout?$AA@ 004b6bf4     libdb41s:env_open.obj
 0003:00001c04       ??_C@_0L@EIDC@db_tmp_dir?$AA@ 004b6c04     libdb41s:env_open.obj
 0003:00001c10       ??_C@_0M@LKG@set_tmp_dir?$AA@ 004b6c10     libdb41s:env_open.obj
 0003:00001c1c       ??_C@_0O@NENB@set_tas_spins?$AA@ 004b6c1c     libdb41s:env_open.obj
 0003:00001c2c       ??_C@_0BA@CLOE@set_region_init?$AA@ 004b6c2c     libdb41s:env_open.obj
 0003:00001c3c       ??_C@_0BA@PFKP@set_mp_mmapsize?$AA@ 004b6c3c     libdb41s:env_open.obj
 0003:00001c4c       ??_C@_0BB@FFD@set_lock_timeout?$AA@ 004b6c4c     libdb41s:env_open.obj
 0003:00001c60       ??_C@_0BB@NAEN@db_lock_youngest?$AA@ 004b6c60     libdb41s:env_open.obj
 0003:00001c74       ??_C@_0P@CDFE@db_lock_random?$AA@ 004b6c74     libdb41s:env_open.obj
 0003:00001c84       ??_C@_0P@NGMH@db_lock_oldest?$AA@ 004b6c84     libdb41s:env_open.obj
 0003:00001c94       ??_C@_0BB@CALM@db_lock_minwrite?$AA@ 004b6c94     libdb41s:env_open.obj
 0003:00001ca8       ??_C@_0BB@NADF@db_lock_minlocks?$AA@ 004b6ca8     libdb41s:env_open.obj
 0003:00001cbc       ??_C@_0BB@IDFK@db_lock_maxlocks?$AA@ 004b6cbc     libdb41s:env_open.obj
 0003:00001cd0       ??_C@_0P@NPIN@db_lock_expire?$AA@ 004b6cd0     libdb41s:env_open.obj
 0003:00001ce0       ??_C@_0BA@IPOA@db_lock_default?$AA@ 004b6ce0     libdb41s:env_open.obj
 0003:00001cf0       ??_C@_0L@JMCK@db_log_dir?$AA@ 004b6cf0     libdb41s:env_open.obj
 0003:00001cfc       ??_C@_0L@OKNM@set_lg_dir?$AA@ 004b6cfc     libdb41s:env_open.obj
 0003:00001d08       ??_C@_06DDIH@?$CFlu?5?$CFc?$AA@ 004b6d08     libdb41s:env_open.obj
 0003:00001d10       ??_C@_0M@IOBK@db_yieldcpu?$AA@ 004b6d10     libdb41s:env_open.obj
 0003:00001d1c       ??_C@_0BE@PHPE@db_txn_write_nosync?$AA@ 004b6d1c     libdb41s:env_open.obj
 0003:00001d30       ??_C@_0O@PIKD@db_txn_nosync?$AA@ 004b6d30     libdb41s:env_open.obj
 0003:00001d40       ??_C@_0P@OLPM@db_region_init?$AA@ 004b6d40     libdb41s:env_open.obj
 0003:00001d50       ??_C@_0L@JOMO@db_nopanic?$AA@ 004b6d50     libdb41s:env_open.obj
 0003:00001d5c       ??_C@_0N@ENOK@db_overwrite?$AA@ 004b6d5c     libdb41s:env_open.obj
 0003:00001d6c       ??_C@_09MDFH@db_nommap?$AA@ 004b6d6c     libdb41s:env_open.obj
 0003:00001d78       ??_C@_0N@BFKP@db_nolocking?$AA@ 004b6d78     libdb41s:env_open.obj
 0003:00001d88       ??_C@_0O@MHJ@db_direct_log?$AA@ 004b6d88     libdb41s:env_open.obj
 0003:00001d98       ??_C@_0N@FNFP@db_direct_db?$AA@ 004b6d98     libdb41s:env_open.obj
 0003:00001da8       ??_C@_0N@BACF@db_cdb_alldb?$AA@ 004b6da8     libdb41s:env_open.obj
 0003:00001db8       ??_C@_07OPAA@?$CF40s?5?$CFc?$AA@ 004b6db8     libdb41s:env_open.obj
 0003:00001dc0       ??_C@_09CKBB@set_flags?$AA@ 004b6dc0     libdb41s:env_open.obj
 0003:00001dcc       ??_C@_0M@CHFA@db_data_dir?$AA@ 004b6dcc     libdb41s:env_open.obj
 0003:00001dd8       ??_C@_0N@LOBD@set_data_dir?$AA@ 004b6dd8     libdb41s:env_open.obj
 0003:00001de8       ??_C@_0P@IMBA@?$CFlu?5?$CFlu?5?$CFlu?5?$CFc?$AA@ 004b6de8     libdb41s:env_open.obj
 0003:00001df8       ??_C@_0BB@GPBM@tmp_open?3?5?$CFs?3?5?$CFs?$AA@ 004b6df8     libdb41s:env_open.obj
 0003:00001e0c       ??_C@_06BAGP@rw?9?9?9?9?$AA@ 004b6e0c     libdb41s:env_open.obj
 0003:00001e14       ??_C@_09GCPH@BDBXXXXXX?$AA@ 004b6e14     libdb41s:env_open.obj
 0003:00001e20       ??_C@_06HNNJ@?$CFs?3?5?$CFs?$AA@ 004b6e20     libdb41s:env_open.obj
 0003:00001e28       ??_C@_0L@DCJH@DB?9?$DOrename?$AA@ 004b6e28     libdb41s:db_rename.obj
 0003:00001e34       ??_C@_0BB@EFMF@DB_ENV?9?$DOdbrename?$AA@ 004b6e34     libdb41s:db_rename.obj
 0003:00001e48       ??_C@_0L@MFKB@DB?9?$DOremove?$AA@ 004b6e48     libdb41s:db_remove.obj
 0003:00001e54       ??_C@_0BB@LCPD@DB_ENV?9?$DOdbremove?$AA@ 004b6e54     libdb41s:db_remove.obj
 0003:00001e68       ??_C@_0BC@PPHM@__db_subdb_remove?$AA@ 004b6e68     libdb41s:db_remove.obj
 0003:00001e7c       ??_C@_0BP@JOHJ@illegal?5flag?5?$CFsspecified?5to?5?$CFs?$AA@ 004b6e7c     libdb41s:db_err.obj
 0003:00001e9c       ??_C@_0N@JCI@combination?5?$AA@ 004b6e9c     libdb41s:db_err.obj
 0003:00001eac       ??_C@_0CD@FMMB@unable?5to?5create?1retrieve?5page?5?$CF@ 004b6eac     libdb41s:db_err.obj
 0003:00001ed0       ??_C@_0CG@HOL@page?5?$CFlu?3?5illegal?5page?5type?5or?5f@ 004b6ed0     libdb41s:db_err.obj
 0003:00001ef8       ??_C@_0BI@EBFM@operation?5not?5supported?$AA@ 004b6ef8     libdb41s:db_err.obj
 0003:00001f10       ??_C@_0CK@BHCB@fatal?5region?5error?5detected?$DL?5run@ 004b6f10     libdb41s:db_err.obj
 0003:00001f3c       ??_C@_09JPBA@PANIC?3?5?$CFs?$AA@ 004b6f3c     libdb41s:db_err.obj
 0003:00001f48       ??_C@_0BC@ONBK@Unknown?5error?3?5?$CFd?$AA@ 004b6f48     libdb41s:db_err.obj
 0003:00001f5c       ??_C@_0CM@POJO@DB_VERIFY_BAD?3?5Database?5verifica@ 004b6f5c     libdb41s:db_err.obj
 0003:00001f88       ??_C@_0DM@LNBO@DB_SECONDARY_BAD?3?5Secondary?5inde@ 004b6f88     libdb41s:db_err.obj
 0003:00001fc4       ??_C@_0DD@EDNB@DB_RUNRECOVERY?3?5Fatal?5error?0?5run@ 004b6fc4     libdb41s:db_err.obj
 0003:00001ff8       ??_C@_0CJ@GIJL@DB_REP_UNAVAIL?3?5Unable?5to?5elect?5@ 004b6ff8     libdb41s:db_err.obj
 0003:00002024       ??_C@_0DI@KGFJ@DB_REP_OUTDATED?3?5Insufficient?5lo@ 004b7024     libdb41s:db_err.obj
 0003:0000205c       ??_C@_0DC@POCA@DB_REP_NEWSITE?3?5A?5new?5site?5has?5e@ 004b705c     libdb41s:db_err.obj
 0003:00002090       ??_C@_0DD@HCBD@DB_REP_NEWMASTER?3?5A?5new?5master?5h@ 004b7090     libdb41s:db_err.obj
 0003:000020c4       ??_C@_0CO@ODMF@DB_REP_HOLDELECTION?3?5Need?5to?5hol@ 004b70c4     libdb41s:db_err.obj
 0003:000020f4       ??_C@_0DA@NHPI@DB_REP_DUPMASTER?3?5A?5second?5maste@ 004b70f4     libdb41s:db_err.obj
 0003:00002124       ??_C@_0CL@IHEA@DB_PAGE_NOTFOUND?3?5Requested?5page@ 004b7124     libdb41s:db_err.obj
 0003:00002150       ??_C@_0DD@PEDG@DB_OLDVERSION?3?5Database?5requires@ 004b7150     libdb41s:db_err.obj
 0003:00002184       ??_C@_0CN@FKIA@DB_NOTFOUND?3?5No?5matching?5key?1dat@ 004b7184     libdb41s:db_err.obj
 0003:000021b4       ??_C@_0DC@GMHJ@DB_NOSERVER_ID?3?5Identifier?5unrec@ 004b71b4     libdb41s:db_err.obj
 0003:000021e8       ??_C@_0CO@IIFE@DB_NOSERVER_HOME?3?5Home?5unrecogni@ 004b71e8     libdb41s:db_err.obj
 0003:00002218       ??_C@_0CE@PE@DB_NOSERVER?3?5Fatal?5error?0?5no?5ser@ 004b7218     libdb41s:db_err.obj
 0003:0000223c       ??_C@_0CF@LGLG@DB_LOCK_NOTGRANTED?3?5Lock?5not?5gra@ 004b723c     libdb41s:db_err.obj
 0003:00002264       ??_C@_0DG@NJCF@DB_LOCK_DEADLOCK?3?5Locker?5killed?5@ 004b7264     libdb41s:db_err.obj
 0003:0000229c       ??_C@_0CK@KGBE@DB_KEYEXIST?3?5Key?1data?5pair?5alrea@ 004b729c     libdb41s:db_err.obj
 0003:000022c8       ??_C@_0CI@KDIJ@DB_KEYEMPTY?3?5Non?9existent?5key?1da@ 004b72c8     libdb41s:db_err.obj
 0003:000022f0       ??_C@_0DF@IAHI@DB_DONOTINDEX?3?5Secondary?5index?5c@ 004b72f0     libdb41s:db_err.obj
 0003:00002328       ??_C@_0BF@KKFA@Successful?5return?3?50?$AA@ 004b7328     libdb41s:db_err.obj
 0003:00002340       ??_C@_0DH@IGJM@Berkeley?5DB?3?5error?5callback?5inte@ 004b7340     libdb41s:db_err.obj
 0003:00002378       ??_C@_04OFDJ@?3?5?$CFs?$AA@ 004b7378     libdb41s:db_err.obj
 0003:00002380       ??_C@_01BJG@?6?$AA@        004b7380     libdb41s:db_err.obj
 0003:00002384       ??_C@_02DILL@?$CFs?$AA@    004b7384     libdb41s:db_err.obj
 0003:00002388       ??_C@_02HFBK@?3?5?$AA@     004b7388     libdb41s:db_err.obj
 0003:0000238c       ??_C@_04HPGM@?$CFs?3?5?$AA@ 004b738c     libdb41s:db_err.obj
 0003:00002394       ??_C@_0BH@DLBO@?$CFs?3?5Unknown?5flag?3?50x?$CFx?$AA@ 004b7394     libdb41s:db_err.obj
 0003:000023ac       ??_C@_0BK@IOPK@?$CFs?3?5Unknown?5db?5type?3?50x?$CFx?$AA@ 004b73ac     libdb41s:db_err.obj
 0003:000023c8       ??_C@_0ED@HDLP@Transaction?5specified?5for?5a?5DB?5h@ 004b73c8     libdb41s:db_err.obj
 0003:0000240c       ??_C@_0DG@CGAL@Transaction?5that?5opened?5the?5DB?5h@ 004b740c     libdb41s:db_err.obj
 0003:00002444       ??_C@_0DL@IHOP@Operation?5forbidden?5while?5second@ 004b7444     libdb41s:db_err.obj
 0003:00002480       ??_C@_0EF@PIHE@DB?5handle?5previously?5used?5in?5tra@ 004b7480     libdb41s:db_err.obj
 0003:000024c8       ??_C@_0CP@GIIG@DB?5environment?5not?5configured?5fo@ 004b74c8     libdb41s:db_err.obj
 0003:000024f8       ??_C@_0BP@FOLC@Extent?5size?5must?5be?5at?5least?51?$AA@ 004b74f8     libdb41s:qam_method.obj
 0003:00002518       ??_C@_0P@NPMP@set_extentsize?$AA@ 004b7518     libdb41s:qam_method.obj
 0003:00002528       ??_C@_0BA@LKMF@?$CFs?$CFc__dbq?4?$CFs?4?$CFd?$AA@ 004b7528     libdb41s:qam_method.obj
 0003:00002538       ??_C@_0DD@IIH@Queue?5does?5not?5support?5multiple?5@ 004b7538     libdb41s:qam_method.obj
 0003:0000256c       ??_C@_0O@FJMC@set_h_ffactor?$AA@ 004b756c     libdb41s:hash_method.obj
 0003:0000257c       ??_C@_0L@POFG@set_h_hash?$AA@ 004b757c     libdb41s:hash_method.obj
 0003:00002588       ??_C@_0M@GCNA@set_h_nelem?$AA@ 004b7588     libdb41s:hash_method.obj
 0003:00002594       ??_C@_0P@GMKE@set_bt_compare?$AA@ 004b7594     libdb41s:bt_method.obj
 0003:000025a4       ??_C@_0BN@FOGA@minimum?5bt_maxkey?5value?5is?51?$AA@ 004b75a4     libdb41s:bt_method.obj
 0003:000025c4       ??_C@_0O@NAI@set_bt_maxkey?$AA@ 004b75c4     libdb41s:bt_method.obj
 0003:000025d4       ??_C@_0BN@KAI@minimum?5bt_minkey?5value?5is?52?$AA@ 004b75d4     libdb41s:bt_method.obj
 0003:000025f4       ??_C@_0O@IGOP@set_bt_minkey?$AA@ 004b75f4     libdb41s:bt_method.obj
 0003:00002604       ??_C@_0O@NLCK@set_bt_prefix?$AA@ 004b7604     libdb41s:bt_method.obj
 0003:00002614       ??_C@_0N@BGNB@set_re_delim?$AA@ 004b7614     libdb41s:bt_method.obj
 0003:00002624       ??_C@_0L@IIK@set_re_len?$AA@ 004b7624     libdb41s:bt_method.obj
 0003:00002630       ??_C@_0L@KKDD@set_re_pad?$AA@ 004b7630     libdb41s:bt_method.obj
 0003:0000263c       ??_C@_0O@PBFD@set_re_source?$AA@ 004b763c     libdb41s:bt_method.obj
 0003:0000264c       ??_C@_0DO@HFHC@verify?5may?5not?5be?5used?5with?5tran@ 004b764c     libdb41s:db_vrfy.obj
 0003:0000268c       ??_C@_0CJ@HCCC@DB_ORDERCHKONLY?5requires?5a?5datab@ 004b768c     libdb41s:db_vrfy.obj
 0003:000026b8       ??_C@_0M@DACN@__db_verify?$AA@ 004b76b8     libdb41s:db_vrfy.obj
 0003:000026c4       ??_C@_0L@MHGE@DB?9?$DOverify?$AA@ 004b76c4     libdb41s:db_vrfy.obj
 0003:000026d0       ??_C@_06JKGI@verify?$AA@   004b76d0     libdb41s:db_vrfy.obj
 0003:000026d8       ??_C@_0CF@EOKK@Metadata?5page?5?$CFlu?5cannot?5be?5read@ 004b76d8     libdb41s:db_vrfy.obj
 0003:00002700       ??_C@_0BP@PBCB@Page?5?$CFlu?3?5bad?5magic?5number?5?$CFlu?$AA@ 004b7700     libdb41s:db_vrfy.obj
 0003:00002720       ??_C@_0BM@GFKP@Page?5?$CFlu?3?5bad?5page?5type?5?$CFlu?$AA@ 004b7720     libdb41s:db_vrfy.obj
 0003:0000273c       ??_C@_0BM@PCHN@Page?5?$CFlu?3?5bad?5page?5size?5?$CFlu?$AA@ 004b773c     libdb41s:db_vrfy.obj
 0003:00002758       ??_C@_0ED@JJGK@Page?5?$CFlu?3?5unsupported?5DB?5version@ 004b7758     libdb41s:db_vrfy.obj
 0003:0000279c       ??_C@_0CG@PNMK@Page?5?$CFlu?3?5pgno?5incorrectly?5set?5t@ 004b779c     libdb41s:db_vrfy.obj
 0003:000027c4       ??_C@_0CI@EGOL@Page?5?$CFlu?3?5could?5not?5check?5metada@ 004b77c4     libdb41s:db_vrfy.obj
 0003:000027ec       ??_C@_0DI@DDIJ@Page?5?$CFlu?3?5metadata?5page?5corrupte@ 004b77ec     libdb41s:db_vrfy.obj
 0003:00002824       ??_C@_0CD@NOJG@Page?5?$CFlu?3?5Incomplete?5metadata?5pa@ 004b7824     libdb41s:db_vrfy.obj
 0003:00002848       ??_C@_0CA@EKJP@Page?5?$CFlu?3?5unknown?5page?5type?5?$CFlu?$AA@ 004b7848     libdb41s:db_vrfy.obj
 0003:00002868       ??_C@_0CD@MMOA@Page?5?$CFlu?3?5old?9style?5duplicate?5pa@ 004b7868     libdb41s:db_vrfy.obj
 0003:0000288c       ??_C@_0BE@DCPJ@__db_vrfy_walkpages?$AA@ 004b788c     libdb41s:db_vrfy.obj
 0003:000028a0       ??_C@_0BO@ICPH@Page?5?$CFlu?3?5totally?5zeroed?5page?$AA@ 004b78a0     libdb41s:db_vrfy.obj
 0003:000028c0       ??_C@_0BM@KAED@Page?5?$CFlu?3?5unreferenced?5page?$AA@ 004b78c0     libdb41s:db_vrfy.obj
 0003:000028dc       ??_C@_0CL@MAJH@__db_vrfy_structure?5called?5with?5@ 004b78dc     libdb41s:db_vrfy.obj
 0003:00002908       ??_C@_0BO@CMAM@Page?5?$CFlu?3?5bad?5page?5number?5?$CFlu?$AA@ 004b7908     libdb41s:db_vrfy.obj
 0003:00002928       ??_C@_0CA@DIEF@Page?5?$CFlu?3?5partially?5zeroed?5page?$AA@ 004b7928     libdb41s:db_vrfy.obj
 0003:00002948       ??_C@_0CA@OCOF@Page?5?$CFlu?3?5invalid?5next_pgno?5?$CFlu?$AA@ 004b7948     libdb41s:db_vrfy.obj
 0003:00002968       ??_C@_0DC@LHNH@Page?5?$CFlu?3?5nonzero?5level?5?$CFlu?5in?5n@ 004b7968     libdb41s:db_vrfy.obj
 0003:0000299c       ??_C@_0DC@LLAM@Page?5?$CFlu?3?5btree?5leaf?5page?5has?5in@ 004b799c     libdb41s:db_vrfy.obj
 0003:000029d0       ??_C@_0BO@MNFB@Page?5?$CFlu?3?5bad?5btree?5level?5?$CFlu?$AA@ 004b79d0     libdb41s:db_vrfy.obj
 0003:000029f0       ??_C@_0CA@BBAM@Page?5?$CFlu?3?5too?5many?5entries?3?5?$CFlu?$AA@ 004b79f0     libdb41s:db_vrfy.obj
 0003:00002a10       ??_C@_0CA@OELD@Page?5?$CFlu?3?5invalid?5prev_pgno?5?$CFlu?$AA@ 004b7a10     libdb41s:db_vrfy.obj
 0003:00002a30       ??_C@_0CJ@NGDE@Page?5?$CFlu?3?5nonsensical?5free?5list?5@ 004b7a30     libdb41s:db_vrfy.obj
 0003:00002a5c       ??_C@_0DK@KAMF@Page?5?$CFlu?3?5nonempty?5free?5list?5on?5@ 004b7a5c     libdb41s:db_vrfy.obj
 0003:00002a98       ??_C@_0BP@LK@Page?5?$CFlu?3?5invalid?5pagesize?5?$CFlu?$AA@ 004b7a98     libdb41s:db_vrfy.obj
 0003:00002ab8       ??_C@_0EJ@DHKD@Page?5?$CFlu?3?5unsupported?5database?5v@ 004b7ab8     libdb41s:db_vrfy.obj
 0003:00002b04       ??_C@_0DE@FJBH@Page?5?$CFlu?3?5magic?5number?5does?5not?5@ 004b7b04     libdb41s:db_vrfy.obj
 0003:00002b38       ??_C@_0BP@NG@Page?5?$CFlu?3?5invalid?5magic?5number?$AA@ 004b7b38     libdb41s:db_vrfy.obj
 0003:00002b58       ??_C@_0DC@MGND@Page?5?$CFlu?3?5invalid?5next_pgno?5?$CFlu?5@ 004b7b58     libdb41s:db_vrfy.obj
 0003:00002b8c       ??_C@_0DK@JBIB@Page?5?$CFlu?3?5page?5?$CFlu?5encountered?5a@ 004b7b8c     libdb41s:db_vrfy.obj
 0003:00002bc8       ??_C@_0CM@HOFK@Page?5?$CFlu?3?5non?9invalid?5page?5?$CFlu?5o@ 004b7bc8     libdb41s:db_vrfy.obj
 0003:00002bf4       ??_C@_0CO@BDNL@Subdatabase?5entry?5references?5inv@ 004b7bf4     libdb41s:db_vrfy.obj
 0003:00002c24       ??_C@_0CH@EBGG@Subdatabase?5entry?5not?5page?9numbe@ 004b7c24     libdb41s:db_vrfy.obj
 0003:00002c4c       ??_C@_0DK@KCNE@Subdatabase?5entry?5references?5pag@ 004b7c4c     libdb41s:db_vrfy.obj
 0003:00002c88       ??_C@_0CP@NGNO@Page?5?$CFlu?3?5incorrect?5hash?5functio@ 004b7c88     libdb41s:db_vrfy.obj
 0003:00002cb8       ??_C@_0M@EKNH@?$CF$sniglet?$FO?$CG?$AA@ 004b7cb8     libdb41s:db_vrfy.obj
 0003:00002cc4       ??_C@_0CH@NABD@Page?5?$CFlu?3?5DB?9?$DOh_internal?5field?5i@ 004b7cc4     libdb41s:db_vrfy.obj
 0003:00002cec       ??_C@_0CM@IMLC@Page?5?$CFlu?3?5database?5metapage?5of?5b@ 004b7cec     libdb41s:db_vrfy.obj
 0003:00002d18       ??_C@_0CC@CGCB@Subdatabase?5entry?5of?5invalid?5siz@ 004b7d18     libdb41s:db_vrfy.obj
 0003:00002d3c       ??_C@_01FCOA@?5?$AA@       004b7d3c     libdb41s:db_vrfy.obj
 0003:00002d40       ??_C@_07CNPM@UNKNOWN?$AA@  004b7d40     libdb41s:db_vrfy.obj
 0003:00002d48       ??_C@_0CL@HFEB@Page?5?$CFlu?3?5bad?5offset?5?$CFlu?5at?5page@ 004b7d48     libdb41s:db_vrfy.obj
 0003:00002d74       ??_C@_0CO@MIII@Page?5?$CFlu?3?5item?5?$CFlu?5extends?5past?5@ 004b7d74     libdb41s:db_vrfy.obj
 0003:00002da4       ??_C@_0CK@DOJM@Page?5?$CFlu?3?5item?5?$CFlu?5of?5unrecogniz@ 004b7da4     libdb41s:db_vrfy.obj
 0003:00002dd0       ??_C@_0CM@KLEE@Page?5?$CFlu?3?5entries?5listing?5?$CFlu?5ov@ 004b7dd0     libdb41s:db_vrfy.obj
 0003:00002dfc       ??_C@_0DD@EPGH@Page?5?$CFlu?3?5duplicate?5page?5of?5inap@ 004b7dfc     libdb41s:db_vrfy.obj
 0003:00002e30       ??_C@_0CK@HFCE@Page?5?$CFlu?3?5?$CFs?5is?5of?5inappropriate@ 004b7e30     libdb41s:db_vrfy.obj
 0003:00002e5c       ??_C@_0P@DEPG@duplicate?5page?$AA@ 004b7e5c     libdb41s:db_vrfy.obj
 0003:00002e6c       ??_C@_0DI@IBMP@Page?5?$CFlu?3?5unsorted?5duplicate?5set@ 004b7e6c     libdb41s:db_vrfy.obj
 0003:00002ea4       ??_C@_0DI@DALB@Page?5?$CFlu?3?5sorted?5duplicate?5set?5i@ 004b7ea4     libdb41s:db_vrfy.obj
 0003:00002edc       ??_C@_0CD@FEKH@?$CFs?3?5unsupported?5queue?5version?3?5?$CF@ 004b7edc     libdb41s:db_upg.obj
 0003:00002f00       ??_C@_0CD@BCLK@?$CFs?3?5unsupported?5btree?5version?3?5?$CF@ 004b7f00     libdb41s:db_upg.obj
 0003:00002f24       ??_C@_0CC@GJBD@?$CFs?3?5unsupported?5hash?5version?3?5?$CFl@ 004b7f24     libdb41s:db_upg.obj
 0003:00002f48       ??_C@_0DM@FPGL@?$CFs?3?5DB?9?$DOupgrade?5only?5supported?5o@ 004b7f48     libdb41s:db_upg.obj
 0003:00002f84       ??_C@_0BL@NNEL@?$CFs?3?5unrecognized?5file?5type?$AA@ 004b7f84     libdb41s:db_upg.obj
 0003:00002fa0       ??_C@_0M@EHIO@DB?9?$DOupgrade?$AA@ 004b7fa0     libdb41s:db_upg.obj
 0003:00002fac       ??_C@_0CN@IBH@?$CFs?3?5file?5size?5not?5a?5multiple?5of?5@ 004b7fac     libdb41s:db_upg.obj
 0003:00002fdc       ??_C@_0L@EBBO@DB?9?$DOcursor?$AA@ 004b7fdc     libdb41s:db_am.obj
 0003:00002fe8       ??_C@_0N@GJFM@__db_icursor?$AA@ 004b7fe8     libdb41s:db_am.obj
 0003:00002ff8       ??_C@_0CF@NCMC@DB?5does?5not?5have?5a?5valid?5file?5ha@ 004b7ff8     libdb41s:db_am.obj
 0003:00003020       ??_C@_06NFG@DB?9?$DOfd?$AA@ 004b8020     libdb41s:db_am.obj
 0003:00003028       ??_C@_07MNLN@DB?9?$DOget?$AA@ 004b8028     libdb41s:db_am.obj
 0003:00003030       ??_C@_08JMHC@__db_put?$AA@ 004b8030     libdb41s:db_am.obj
 0003:0000303c       ??_C@_07DIBP@DB?9?$DOput?$AA@ 004b803c     libdb41s:db_am.obj
 0003:00003044       ??_C@_07MGEO@DB?9?$DOdel?$AA@ 004b8044     libdb41s:db_am.obj
 0003:0000304c       ??_C@_08JLBA@DB?9?$DOsync?$AA@ 004b804c     libdb41s:db_am.obj
 0003:00003058       ??_C@_0EC@OOAE@Databases?5may?5not?5become?5seconda@ 004b8058     libdb41s:db_am.obj
 0003:0000309c       ??_C@_08NLHA@DB?9?$DOpget?$AA@ 004b809c     libdb41s:db_am.obj
 0003:000030a8       ??_C@_04DCMN@?$CFs?$CFs?$AA@ 004b80a8     libdb41s:db_am.obj
 0003:000030b0       ??_C@_0DA@CEDJ@Append?5results?5in?5a?5non?9unique?5s@ 004b80b0     libdb41s:db_am.obj
 0003:000030e0       ??_C@_0CP@BEJJ@?5an?5index?5not?5configured?5to?5supp@ 004b80e0     libdb41s:db_am.obj
 0003:00003110       ??_C@_0O@EELC@__db_truncate?$AA@ 004b8110     libdb41s:db_truncate.obj
 0003:00003120       ??_C@_0N@CFOK@DB?9?$DOtruncate?$AA@ 004b8120     libdb41s:db_truncate.obj
 0003:00003130       ??_C@_0CO@CIHJ@Different?5pagesize?5specified?5on?5@ 004b8130     libdb41s:db.obj
 0003:00003160       ??_C@_0BL@LEON@rename?3?5database?5?$CFs?5exists?$AA@ 004b8160     libdb41s:db.obj
 0003:0000317c       ??_C@_0CM@HMEC@Different?5lorder?5specified?5on?5ex@ 004b817c     libdb41s:db.obj
 0003:000031a8       ??_C@_0BB@HKGO@__db_dbenv_setup?$AA@ 004b81a8     libdb41s:db.obj
 0003:000031bc       ??_C@_09JAKB@DB?9?$DOclose?$AA@ 004b81bc     libdb41s:db.obj
 0003:000031c8       ??_C@_0L@IAJH@?$CF?4?$CKs?$CFx?4?$CFx?4?$AA@ 004b81c8     libdb41s:db.obj
 0003:000031d4       ??_C@_09NKOJ@?$CF?4?$CKs?$CFs?$CFs?4?$AA@ 004b81d4     libdb41s:db.obj
 0003:000031e0       ??_C@_07HGFJ@?$CFs?$CFx?4?$CFx?$AA@ 004b81e0     libdb41s:db.obj
 0003:000031e8       ??_C@_05GPBI@?$CFs?$CFs?4?$AA@ 004b81e8     libdb41s:db.obj
 0003:000031f0       ??_C@_05JPPG@__db?4?$AA@   004b81f0     libdb41s:db.obj
 0003:000031f8       ??_C@_0EH@CGGL@Closing?5a?5primary?5DB?5while?5a?5sec@ 004b81f8     libdb41s:db.obj
 0003:00003240       ??_C@_0EB@JFPK@files?5containing?5multiple?5databa@ 004b8240     libdb41s:db_open.obj
 0003:00003284       ??_C@_0M@MKJN@__db_dbopen?$AA@ 004b8284     libdb41s:db_open.obj
 0003:00003290       ??_C@_0CI@IJGD@DBTYPE?5of?5unknown?5without?5existi@ 004b8290     libdb41s:db_open.obj
 0003:000032b8       ??_C@_0BO@DICH@?$CFs?3?5Invalid?5type?5?$CFd?5specified?$AA@ 004b82b8     libdb41s:db_open.obj
 0003:000032d8       ??_C@_0CG@LEA@Invalid?5subdatabase?5type?5?$CFd?5spec@ 004b82d8     libdb41s:db_open.obj
 0003:00003300       ??_C@_0CD@KNDD@?$CFs?3?5unexpected?5file?5type?5or?5form@ 004b8300     libdb41s:db_open.obj
 0003:00003324       ??_C@_0CB@PDNC@?$CFs?3?5metadata?5page?5checksum?5error@ 004b8324     libdb41s:db_open.obj
 0003:00003348       ??_C@_0BC@OABO@unknown?5type?3?5?$CFlu?$AA@ 004b8348     libdb41s:db_open.obj
 0003:0000335c       ??_C@_0CF@CNNE@Queue?5databases?5must?5be?5one?9per?9@ 004b835c     libdb41s:db_open.obj
 0003:00003384       ??_C@_0CM@KHLL@DB_TRUNCATE?5illegal?5with?5multipl@ 004b8384     libdb41s:db_open.obj
 0003:000033b0       ??_C@_0DI@PAMM@multiple?5databases?5cannot?5be?5cre@ 004b83b0     libdb41s:db_open.obj
 0003:000033e8       ??_C@_0CP@EKNH@DB_TRUNCATE?5illegal?5with?5transac@ 004b83e8     libdb41s:db_open.obj
 0003:00003418       ??_C@_0CI@IPGM@environment?5not?5created?5using?5DB@ 004b8418     libdb41s:db_open.obj
 0003:00003440       ??_C@_0CK@IHGO@environment?5did?5not?5include?5a?5me@ 004b8440     libdb41s:db_open.obj
 0003:0000346c       ??_C@_0BL@BOAI@environment?5not?5yet?5opened?$AA@ 004b846c     libdb41s:db_open.obj
 0003:00003488       ??_C@_0DM@HEP@?$CFs?3?5DB_UNKNOWN?5type?5specified?5wi@ 004b8488     libdb41s:db_open.obj
 0003:000034c4       ??_C@_08GJJC@DB?9?$DOopen?$AA@ 004b84c4     libdb41s:db_open.obj
 0003:000034d0       ??_C@_0CK@LLCK@Allocation?5failed?5for?5join?5key?0?5@ 004b84d0     libdb41s:db_join.obj
 0003:000034fc       ??_C@_0DN@NBCG@unsupported?5byte?5order?0?5only?5big@ 004b84fc     libdb41s:db_byteorder.obj
 0003:0000353c       ??_C@_09FCLE@txn_begin?$AA@ 004b853c     libdb41s:txn.obj
 0003:00003548       ??_C@_0DB@MBP@Unable?5to?5allocate?5memory?5for?5tr@ 004b8548     libdb41s:txn.obj
 0003:0000357c       ??_C@_0EG@JMGF@recovery?5of?5prepared?5but?5not?5yet@ 004b857c     libdb41s:txn.obj
 0003:000035c4       ??_C@_0CI@BEPD@operation?5not?5permitted?5during?5r@ 004b85c4     libdb41s:txn.obj
 0003:000035ec       ??_C@_0P@PDBJ@DB_TXN?9?$DOcommit?$AA@ 004b85ec     libdb41s:txn.obj
 0003:000035fc       ??_C@_0CF@JLOJ@DB_TXN?9?$DOprepare?3?5log_write?5faile@ 004b85fc     libdb41s:txn.obj
 0003:00003624       ??_C@_0BE@IICO@DB_TXN?9?$DOset_timeout?$AA@ 004b8624     libdb41s:txn.obj
 0003:00003638       ??_C@_0BL@KAEO@not?5a?5restored?5transaction?$AA@ 004b8638     libdb41s:txn.obj
 0003:00003654       ??_C@_0BN@LFJE@transaction?5already?5prepared?$AA@ 004b8654     libdb41s:txn.obj
 0003:00003674       ??_C@_0BH@JFFE@transaction?5already?5?$CFs?$AA@ 004b8674     libdb41s:txn.obj
 0003:0000368c       ??_C@_07ODKM@aborted?$AA@  004b868c     libdb41s:txn.obj
 0003:00003694       ??_C@_09FNBJ@committed?$AA@ 004b8694     libdb41s:txn.obj
 0003:000036a0       ??_C@_0CJ@KHAM@Prepare?5disallowed?5on?5child?5tran@ 004b86a0     libdb41s:txn.obj
 0003:000036cc       ??_C@_0BP@JKJO@transaction?5has?5active?5cursors?$AA@ 004b86cc     libdb41s:txn.obj
 0003:000036ec       ??_C@_0DE@NLHE@DB_TXN?9?$DOabort?3?5Log?5undo?5failed?5f@ 004b86ec     libdb41s:txn.obj
 0003:00003720       ??_C@_0CP@JFGG@txn_checkpoint?3?5log?5failed?5at?5LS@ 004b8720     libdb41s:txn.obj
 0003:00003750       ??_C@_0DE@EIJJ@txn_checkpoint?3?5failed?5to?5flush?5@ 004b8750     libdb41s:txn.obj
 0003:00003784       ??_C@_0P@OOCG@txn_checkpoint?$AA@ 004b8784     libdb41s:txn.obj
 0003:00003794       ??_C@_0BM@PPDC@Child?5transaction?5is?5active?$AA@ 004b8794     libdb41s:txn.obj
 0003:000037b0       ??_C@_0BB@PJHI@DB_ENV?9?$DOtxn_stat?$AA@ 004b87b0     libdb41s:txn_stat.obj
 0003:000037c4       ??_C@_08NHBM@txn_stat?$AA@ 004b87c4     libdb41s:txn_stat.obj
 0003:000037d0       ??_C@_0CK@OBHL@operation?5not?5permitted?5while?5in@ 004b87d0     libdb41s:txn_recover.obj
 0003:000037fc       ??_C@_0M@CDDL@txn_recover?$AA@ 004b87fc     libdb41s:txn_recover.obj
 0003:00003808       ??_C@_0P@LMFA@No?5log?5records?$AA@ 004b8808     libdb41s:txn_recover.obj
 0003:00003818       ??_C@_0EA@FJDG@DB_ENV?9?$DOrep_process_message?3?5con@ 004b8818     libdb41s:rep_record.obj
 0003:00003858       ??_C@_0ED@HFKD@DB_ENV?9?$DOrep_process_message?3?5unk@ 004b8858     libdb41s:rep_record.obj
 0003:0000389c       ??_C@_0CO@GDLP@unexpected?5log?5record?5version?5?$CFd@ 004b889c     libdb41s:rep_record.obj
 0003:000038cc       ??_C@_0DH@KHKM@unexpected?5replication?5message?5v@ 004b88cc     libdb41s:rep_record.obj
 0003:00003904       ??_C@_08DFDL@db?4m?$CF08x?$AA@ 004b8904     libdb41s:mut_win32.obj
 0003:00003910       ??_C@_0O@LIHP@__db_dispatch?$AA@ 004b8910     libdb41s:db_dispatch.obj
 0003:00003920       ??_C@_0BP@MMKK@Illegal?5record?5type?5?$CFlu?5in?5log?$AA@ 004b8920     libdb41s:db_dispatch.obj
 0003:00003940       ??_C@_0CG@LHPJ@Fatal?5error?5in?5abort?5of?5an?5alloc@ 004b8940     libdb41s:db_dispatch.obj
 0003:00003968       ??_C@_0BL@HPKE@Flushing?5free?5list?5to?5disk?$AA@ 004b8968     libdb41s:db_dispatch.obj
 0003:00003984       ??_C@_0BB@PIAK@?7timestamp?3?5?$CFld?6?$AA@ 004b8984     libdb41s:txn_auto.obj
 0003:00003998       ??_C@_0O@MLNA@?7opcode?3?5?$CFlu?6?$AA@ 004b8998     libdb41s:txn_auto.obj
 0003:000039a8       ??_C@_0DO@JLNL@?$FL?$CFlu?$FN?$FL?$CFlu?$FN__txn_regop?3?5rec?3?5?$CFlu?5@ 004b89a8     libdb41s:txn_auto.obj
 0003:000039e8       ??_C@_0BH@EOIA@?7last_ckp?3?5?$FL?$CFlu?$FN?$FL?$CFlu?$FN?6?$AA@ 004b89e8     libdb41s:txn_auto.obj
 0003:00003a00       ??_C@_0BG@FKKH@?7ckp_lsn?3?5?$FL?$CFlu?$FN?$FL?$CFlu?$FN?6?$AA@ 004b8a00     libdb41s:txn_auto.obj
 0003:00003a18       ??_C@_0DM@KFOC@?$FL?$CFlu?$FN?$FL?$CFlu?$FN__txn_ckp?3?5rec?3?5?$CFlu?5tx@ 004b8a18     libdb41s:txn_auto.obj
 0003:00003a54       ??_C@_0BE@NGAI@?7c_lsn?3?5?$FL?$CFlu?$FN?$FL?$CFlu?$FN?6?$AA@ 004b8a54     libdb41s:txn_auto.obj
 0003:00003a68       ??_C@_0P@JIGP@?7child?3?50x?$CFlx?6?$AA@ 004b8a68     libdb41s:txn_auto.obj
 0003:00003a78       ??_C@_0DO@GDPJ@?$FL?$CFlu?$FN?$FL?$CFlu?$FN__txn_child?3?5rec?3?5?$CFlu?5@ 004b8a78     libdb41s:txn_auto.obj
 0003:00003ab8       ??_C@_0BI@EAAJ@?7begin_lsn?3?5?$FL?$CFlu?$FN?$FL?$CFlu?$FN?6?$AA@ 004b8ab8     libdb41s:txn_auto.obj
 0003:00003ad0       ??_C@_0M@ODCJ@?7bqual?3?5?$CFu?6?$AA@ 004b8ad0     libdb41s:txn_auto.obj
 0003:00003adc       ??_C@_0M@LJOP@?7gtrid?3?5?$CFu?6?$AA@ 004b8adc     libdb41s:txn_auto.obj
 0003:00003ae8       ??_C@_0BA@EGEJ@?7formatID?3?5?$CFld?6?$AA@ 004b8ae8     libdb41s:txn_auto.obj
 0003:00003af8       ??_C@_02JBML@?$CFc?$AA@    004b8af8     libdb41s:txn_auto.obj
 0003:00003afc       ??_C@_04FMFM@?$CF?$CDx?5?$AA@ 004b8afc     libdb41s:txn_auto.obj
 0003:00003b04       ??_C@_06DNBK@?7xid?3?5?$AA@ 004b8b04     libdb41s:txn_auto.obj
 0003:00003b0c       ??_C@_0EB@FLFJ@?$FL?$CFlu?$FN?$FL?$CFlu?$FN__txn_xa_regop?3?5rec?3?5?$CF@ 004b8b0c     libdb41s:txn_auto.obj
 0003:00003b50       ??_C@_09GIFF@?7max?3?5?$CFu?6?$AA@ 004b8b50     libdb41s:txn_auto.obj
 0003:00003b5c       ??_C@_09DLDK@?7min?3?5?$CFu?6?$AA@ 004b8b5c     libdb41s:txn_auto.obj
 0003:00003b68       ??_C@_0EA@PDBN@?$FL?$CFlu?$FN?$FL?$CFlu?$FN__txn_recycle?3?5rec?3?5?$CFl@ 004b8b68     libdb41s:txn_auto.obj
 0003:00003ba8       ??_C@_0DG@CBHH@txnid?5?$CFlx?5commit?5record?5found?0?5a@ 004b8ba8     libdb41s:txn_rec.obj
 0003:00003be0       ??_C@_0BL@JIKP@Transaction?5not?5in?5list?5?$CFx?$AA@ 004b8be0     libdb41s:txn_rec.obj
 0003:00003bfc       ??_C@_0N@LLGN@memp_trickle?$AA@ 004b8bfc     libdb41s:mp_trickle.obj
 0003:00003c0c       ??_C@_09EKML@memp_sync?$AA@ 004b8c0c     libdb41s:mp_sync.obj
 0003:00003c18       ??_C@_0BO@IJPC@?$CFs?3?5unable?5to?5flush?5page?3?5?$CFlu?$AA@ 004b8c18     libdb41s:mp_sync.obj
 0003:00003c38       ??_C@_0BE@CPMK@?$CFs?3?5cannot?5sync?3?5?$CFs?$AA@ 004b8c38     libdb41s:mp_sync.obj
 0003:00003c4c       ??_C@_05HGCM@trash?$AA@    004b8c4c     libdb41s:mp_stat.obj
 0003:00003c54       ??_C@_06BFOJ@locked?$AA@   004b8c54     libdb41s:mp_stat.obj
 0003:00003c5c       ??_C@_07KHMN@discard?$AA@  004b8c5c     libdb41s:mp_stat.obj
 0003:00003c64       ??_C@_07JPDC@created?$AA@  004b8c64     libdb41s:mp_stat.obj
 0003:00003c6c       ??_C@_05NBNN@dirty?$AA@    004b8c6c     libdb41s:mp_stat.obj
 0003:00003c74       ??_C@_08HGJL@callpgin?$AA@ 004b8c74     libdb41s:mp_stat.obj
 0003:00003c80       ??_C@_06CMJK@unlink?$AA@   004b8c80     libdb41s:mp_stat.obj
 0003:00003c88       ??_C@_09BID@temporary?$AA@ 004b8c88     libdb41s:mp_stat.obj
 0003:00003c94       ??_C@_06LLGB@extent?$AA@   004b8c94     libdb41s:mp_stat.obj
 0003:00003c9c       ??_C@_09MLHN@no?5buffer?$AA@ 004b8c9c     libdb41s:mp_stat.obj
 0003:00003ca8       ??_C@_04ICJN@dead?$AA@     004b8ca8     libdb41s:mp_stat.obj
 0003:00003cb0       ??_C@_07KLDN@mmapped?$AA@  004b8cb0     libdb41s:mp_stat.obj
 0003:00003cb8       ??_C@_0BC@MII@DB_ENV?9?$DOmemp_stat?$AA@ 004b8cb8     libdb41s:mp_stat.obj
 0003:00003ccc       ??_C@_09OIKG@memp_stat?$AA@ 004b8ccc     libdb41s:mp_stat.obj
 0003:00003cd8       ??_C@_0P@MFHE@?$CFs?6Cache?5?$CD?$CFd?3?6?$AA@ 004b8cd8     libdb41s:mp_stat.obj
 0003:00003ce8       ??_C@_0BP@KBPH@File?5?$CD?$CFd?3?5?$CFs?3?5per?9process?0?5?$CFs?6?$AA@ 004b8ce8     libdb41s:mp_stat.obj
 0003:00003d08       ??_C@_0L@LCHL@read?1write?$AA@ 004b8d08     libdb41s:mp_stat.obj
 0003:00003d14       ??_C@_08JODI@readonly?$AA@ 004b8d14     libdb41s:mp_stat.obj
 0003:00003d20       ??_C@_02JDLK@?$CFx?$AA@    004b8d20     libdb41s:mp_stat.obj
 0003:00003d24       ??_C@_08PHAJ@?6?7?5UID?3?5?$AA@ 004b8d24     libdb41s:mp_stat.obj
 0003:00003d30       ??_C@_0CL@CDDH@?7?5type?5?$CFld?$DL?5ref?5?$CFlu?$DL?5blocks?5?$CFlu?$DL@ 004b8d30     libdb41s:mp_stat.obj
 0003:00003d5c       ??_C@_0BM@GHHN@File?5?$CD?$CFd?3?5?$CFs?3?5pagesize?5?$CFlu?6?$AA@ 004b8d5c     libdb41s:mp_stat.obj
 0003:00003d78       ??_C@_0BN@FNOI@?$CFs?6Pool?5?$CIregion?5addr?50x?$CFlx?$CJ?6?$AA@ 004b8d78     libdb41s:mp_stat.obj
 0003:00003d98       ??_C@_0DC@MFOD@?$DN?9?$DN?9?$DN?9?$DN?9?$DN?9?$DN?9?$DN?9?$DN?9?$DN?9?$DN?9?$DN?9?$DN?9?$DN?9?$DN?9?$DN?9?$DN?9@ 004b8d98     libdb41s:mp_stat.obj
 0003:00003dcc       ??_C@_0BB@FGFB@memp_dump_region?$AA@ 004b8dcc     libdb41s:mp_stat.obj
 0003:00003de0       ??_C@_0L@DOKK@?$CFlu?5?$CI?$CFu?$CJ?3?6?$AA@ 004b8de0     libdb41s:mp_stat.obj
 0003:00003dec       ??_C@_0CM@DEAN@?7pageno?0?5file?0?5ref?0?5address?5?$FLLSN@ 004b8dec     libdb41s:mp_stat.obj
 0003:00003e18       ??_C@_0DG@LDCA@?$CFs?6BH?5hash?5table?5?$CI?$CFlu?5hash?5slots@ 004b8e18     libdb41s:mp_stat.obj
 0003:00003e50       ??_C@_0CI@BFBD@?7?$CF5lu?0?5?5?5?$CD?$CFd?0?5?5?$CF2lu?0?5?$CF8lu?5?$FL?$CFlu?0?$CF@ 004b8e50     libdb41s:mp_stat.obj
 0003:00003e78       ??_C@_0CF@PANC@?7?$CF5lu?0?5?$CFlu?0?5?$CF2lu?0?5?$CF8lu?5?$FL?$CFlu?0?$CFlu?$FN@ 004b8e78     libdb41s:mp_stat.obj
 0003:00003ea0       ??_C@_0BG@DMNH@DB_ENV?9?$DOmemp_register?$AA@ 004b8ea0     libdb41s:mp_register.obj
 0003:00003eb8       ??_C@_0CL@FFJG@Unable?5to?5allocate?5memory?5for?5mp@ 004b8eb8     libdb41s:mp_region.obj
 0003:00003ee4       ??_C@_0N@BHCH@memp_fcreate?$AA@ 004b8ee4     libdb41s:mp_fopen.obj
 0003:00003ef4       ??_C@_0O@BFAG@set_clear_len?$AA@ 004b8ef4     libdb41s:mp_fopen.obj
 0003:00003f04       ??_C@_0L@DJOJ@set_fileid?$AA@ 004b8f04     libdb41s:mp_fopen.obj
 0003:00003f10       ??_C@_09LJIB@set_ftype?$AA@ 004b8f10     libdb41s:mp_fopen.obj
 0003:00003f1c       ??_C@_0P@KBBH@set_lsn_offset?$AA@ 004b8f1c     libdb41s:mp_fopen.obj
 0003:00003f2c       ??_C@_0N@KFII@set_pgcookie?$AA@ 004b8f2c     libdb41s:mp_fopen.obj
 0003:00003f3c       ??_C@_0BL@EPJH@Unknown?5priority?5value?3?5?$CFd?$AA@ 004b8f3c     libdb41s:mp_fopen.obj
 0003:00003f58       ??_C@_0CM@ONJK@memp_fopen?3?5page?5sizes?5must?5be?5a@ 004b8f58     libdb41s:mp_fopen.obj
 0003:00003f84       ??_C@_0CO@KHMA@memp_fopen?3?5temporary?5files?5can?8@ 004b8f84     libdb41s:mp_fopen.obj
 0003:00003fb4       ??_C@_0CP@PBHL@memp_fopen?3?5clear?5length?5larger?5@ 004b8fb4     libdb41s:mp_fopen.obj
 0003:00003fe4       ??_C@_0L@HCNP@memp_fopen?$AA@ 004b8fe4     libdb41s:mp_fopen.obj
 0003:00003ff0       ??_C@_0DE@EMDE@?$CFs?3?5clear?5length?0?5page?5size?5or?5L@ 004b8ff0     libdb41s:mp_fopen.obj
 0003:00004024       ??_C@_0BE@ECLN@DB_MPOOLFILE?9?$DOclose?$AA@ 004b9024     libdb41s:mp_fopen.obj
 0003:00004038       ??_C@_0CC@PPJA@?$CFs?3?5close?3?5?$CFlu?5blocks?5left?5pinne@ 004b9038     libdb41s:mp_fopen.obj
 0003:0000405c       ??_C@_0BA@BJEO@DB_ENV?9?$DOlock_id?$AA@ 004b905c     libdb41s:lock.obj
 0003:0000406c       ??_C@_0BH@EGBP@Locker?5still?5has?5locks?$AA@ 004b906c     libdb41s:lock.obj
 0003:00004084       ??_C@_0BF@OJHD@DB_ENV?9?$DOlock_id_free?$AA@ 004b9084     libdb41s:lock.obj
 0003:0000409c       ??_C@_0BL@LII@Invalid?5lock?5operation?3?5?$CFd?$AA@ 004b909c     libdb41s:lock.obj
 0003:000040b8       ??_C@_0BL@HGBJ@Parent?5locker?5is?5not?5valid?$AA@ 004b90b8     libdb41s:lock.obj
 0003:000040d4       ??_C@_0BI@DEHK@Not?5a?5child?5transaction?$AA@ 004b90d4     libdb41s:lock.obj
 0003:000040ec       ??_C@_0BB@OFJE@DB_ENV?9?$DOlock_vec?$AA@ 004b90ec     libdb41s:lock.obj
 0003:00004100       ??_C@_0BB@GKHN@DB_ENV?9?$DOlock_get?$AA@ 004b9100     libdb41s:lock.obj
 0003:00004114       ??_C@_0BG@DPHE@Locker?5does?5not?5exist?$AA@ 004b9114     libdb41s:lock.obj
 0003:0000412c       ??_C@_05MDFJ@locks?$AA@    004b912c     libdb41s:lock.obj
 0003:00004134       ??_C@_0CI@DBHB@DB_ENV?9?$DOlock_get?3?5invalid?5lock?5m@ 004b9134     libdb41s:lock.obj
 0003:0000415c       ??_C@_0BC@LBPG@DB_LOCK?9?$DOlock_put?$AA@ 004b915c     libdb41s:lock.obj
 0003:00004170       ??_C@_0P@BGAO@lock_downgrade?$AA@ 004b9170     libdb41s:lock.obj
 0003:00004180       ??_C@_0BK@FFCP@Freeing?5locker?5with?5locks?$AA@ 004b9180     libdb41s:lock.obj
 0003:0000419c       ??_C@_0P@OOIJ@locker?5entries?$AA@ 004b919c     libdb41s:lock.obj
 0003:000041ac       ??_C@_0CB@MDEC@No?5space?5for?5lock?5object?5storage@ 004b91ac     libdb41s:lock.obj
 0003:000041d0       ??_C@_0P@BFBC@object?5entries?$AA@ 004b91d0     libdb41s:lock.obj
 0003:000041e0       ??_C@_0BC@MFNK@DB_ENV?9?$DOlock_stat?$AA@ 004b91e0     libdb41s:lock_stat.obj
 0003:000041f4       ??_C@_0BM@LKCJ@?$CFs?6Locks?5grouped?5by?5object?6?$AA@ 004b91f4     libdb41s:lock_stat.obj
 0003:00004210       ??_C@_0BN@GPFO@?$CFs?6Locks?5grouped?5by?5lockers?6?$AA@ 004b9210     libdb41s:lock_stat.obj
 0003:00004230       ??_C@_04KCLJ@?$CFlu?7?$AA@ 004b9230     libdb41s:lock_stat.obj
 0003:00004238       ??_C@_0BF@GBHJ@?6?$CFs?6Conflict?5matrix?6?$AA@ 004b9238     libdb41s:lock_stat.obj
 0003:00004250       ??_C@_0DP@MANA@?$CFs?3?5?$CFlu?0?5?$CFs?3?5?$CFlu?0?5?$CFs?3?5?$CFlu?0?6?$CFs?3?5?$CF@ 004b9250     libdb41s:lock_stat.obj
 0003:00004290       ??_C@_0BC@LNLN@locker?5table?5size?$AA@ 004b9290     libdb41s:lock_stat.obj
 0003:000042a4       ??_C@_0BC@JGNP@object?5table?5size?$AA@ 004b92a4     libdb41s:lock_stat.obj
 0003:000042b8       ??_C@_07EJDB@obj_off?$AA@  004b92b8     libdb41s:lock_stat.obj
 0003:000042c0       ??_C@_0L@FHFI@osynch_off?$AA@ 004b92c0     libdb41s:lock_stat.obj
 0003:000042cc       ??_C@_0L@BAL@locker_off?$AA@ 004b92cc     libdb41s:lock_stat.obj
 0003:000042d8       ??_C@_0L@MHBO@lsynch_off?$AA@ 004b92d8     libdb41s:lock_stat.obj
 0003:000042e4       ??_C@_07EPNF@need_dd?$AA@  004b92e4     libdb41s:lock_stat.obj
 0003:000042ec       ??_C@_0BL@NLKM@?$CFs?6Lock?5region?5parameters?6?$AA@ 004b92ec     libdb41s:lock_stat.obj
 0003:00004308       ??_C@_0BB@EKLK@lock_dump_region?$AA@ 004b9308     libdb41s:lock_stat.obj
 0003:0000431c       ??_C@_0BD@JOMH@?5lk?5expires?5?$CFs?4?$CFlu?$AA@ 004b931c     libdb41s:lock_stat.obj
 0003:00004330       ??_C@_0P@PEOP@?5lk?5timeout?5?$CFu?$AA@ 004b9330     libdb41s:lock_stat.obj
 0003:00004340       ??_C@_0BA@PJCM@?5expires?5?$CFs?4?$CFlu?$AA@ 004b9340     libdb41s:lock_stat.obj
 0003:00004350       ??_C@_0P@HPBF@?$CFm?9?$CFd?9?$CFH?3?$CFM?3?$CFS?$AA@ 004b9350     libdb41s:lock_stat.obj
 0003:00004360       ??_C@_04IOJK@?5?$CFs?5?$AA@ 004b9360     libdb41s:lock_stat.obj
 0003:00004368       ??_C@_03MFGH@?5?5?5?$AA@   004b9368     libdb41s:lock_stat.obj
 0003:0000436c       ??_C@_03IOKA@?$CID?$CJ?$AA@ 004b936c     libdb41s:lock_stat.obj
 0003:00004370       ??_C@_0CO@BLMH@?$CF8lx?5dd?$DN?$CF2ld?5locks?5held?5?$CF?94d?5wri@ 004b9370     libdb41s:lock_stat.obj
 0003:000043a0       ??_C@_0BN@KFJC@?$CF?98s?5?5?$CF?96s?5?5?$CF?96s?5?5?$CF?910s?5?5?$CFs?6?$AA@ 004b93a0     libdb41s:lock_stat.obj
 0003:000043c0       ??_C@_06PHOP@Locker?$AA@   004b93c0     libdb41s:lock_stat.obj
 0003:000043c8       ??_C@_04PFBC@Mode?$AA@     004b93c8     libdb41s:lock_stat.obj
 0003:000043d0       ??_C@_05HCNL@Count?$AA@    004b93d0     libdb41s:lock_stat.obj
 0003:000043d8       ??_C@_06IOLI@Status?$AA@   004b93d8     libdb41s:lock_stat.obj
 0003:000043e0       ??_C@_0BO@COGJ@?9?9?9?9?9?9?9?9?9?9?9?5Object?5?9?9?9?9?9?9?9?9?9?9?$AA@ 004b93e0     libdb41s:lock_stat.obj
 0003:00004400       ??_C@_06BHKF@0x?$CFlx?5?$AA@ 004b9400     libdb41s:lock_stat.obj
 0003:00004408       ??_C@_0L@KHMK@?$CF?97s?5?5?$CFlu?6?$AA@ 004b9408     libdb41s:lock_stat.obj
 0003:00004414       ??_C@_06DPKL@handle?$AA@   004b9414     libdb41s:lock_stat.obj
 0003:0000441c       ??_C@_06JNOM@record?$AA@   004b941c     libdb41s:lock_stat.obj
 0003:00004424       ??_C@_04NHMG@page?$AA@     004b9424     libdb41s:lock_stat.obj
 0003:0000442c       ??_C@_05MNFC@?$CF?920s?$AA@ 004b942c     libdb41s:lock_stat.obj
 0003:00004434       ??_C@_0BG@FCOH@?$CI?$CFlx?5?$CFlx?5?$CFlx?5?$CFlx?5?$CFlx?$CJ?$AA@ 004b9434     libdb41s:lock_stat.obj
 0003:0000444c       ??_C@_0BK@JCCB@?$CF8lx?5?5?$CF?96s?5?5?$CF6lu?5?5?$CF?910s?5?5?$AA@ 004b944c     libdb41s:lock_stat.obj
 0003:00004468       ??_C@_07BHDD@EXPIRED?$AA@  004b9468     libdb41s:lock_stat.obj
 0003:00004470       ??_C@_07DBFF@PENDING?$AA@  004b9470     libdb41s:lock_stat.obj
 0003:00004478       ??_C@_04KLDE@HELD?$AA@     004b9478     libdb41s:lock_stat.obj
 0003:00004480       ??_C@_04MICK@FREE?$AA@     004b9480     libdb41s:lock_stat.obj
 0003:00004488       ??_C@_05EFDD@ERROR?$AA@    004b9488     libdb41s:lock_stat.obj
 0003:00004490       ??_C@_05FHJL@ABORT?$AA@    004b9490     libdb41s:lock_stat.obj
 0003:00004498       ??_C@_04IDBB@WAIT?$AA@     004b9498     libdb41s:lock_stat.obj
 0003:000044a0       ??_C@_09KKED@WAS_WRITE?$AA@ 004b94a0     libdb41s:lock_stat.obj
 0003:000044ac       ??_C@_05FIFP@WRITE?$AA@    004b94ac     libdb41s:lock_stat.obj
 0003:000044b4       ??_C@_04GHHF@READ?$AA@     004b94b4     libdb41s:lock_stat.obj
 0003:000044bc       ??_C@_02JICL@NG?$AA@       004b94bc     libdb41s:lock_stat.obj
 0003:000044c0       ??_C@_06IPH@IWRITE?$AA@    004b94c0     libdb41s:lock_stat.obj
 0003:000044c8       ??_C@_03LPMO@IWR?$AA@      004b94c8     libdb41s:lock_stat.obj
 0003:000044cc       ??_C@_05MPCO@IREAD?$AA@    004b94cc     libdb41s:lock_stat.obj
 0003:000044d4       ??_C@_0L@GFOC@DIRTY_READ?$AA@ 004b94d4     libdb41s:lock_stat.obj
 0003:000044e0       ??_C@_0DP@OPDL@DB_ENV?9?$DOlock_detect?3?5unknown?5dea@ 004b94e0     libdb41s:lock_deadlock.obj
 0003:00004520       ??_C@_0BE@NJNL@Aborting?5locker?5?$CFlx?$AA@ 004b9520     libdb41s:lock_deadlock.obj
 0003:00004534       ??_C@_0CE@PPEF@warning?3?5unable?5to?5abort?5locker?5@ 004b9534     libdb41s:lock_deadlock.obj
 0003:00004558       ??_C@_0BE@DAMO@DB_ENV?9?$DOlock_detect?$AA@ 004b9558     libdb41s:lock_deadlock.obj
 0003:0000456c       ??_C@_0BI@POKI@No?5locks?5for?5locker?5?$CFlu?$AA@ 004b956c     libdb41s:lock_deadlock.obj
 0003:00004584       ??_C@_0M@FLBE@?$CFlu?5lockers?$AA@ 004b9584     libdb41s:lock_deadlock.obj
 0003:00004590       ??_C@_0CN@EOH@Unable?5to?5allocate?5memory?5for?5th@ 004b9590     libdb41s:log.obj
 0003:000045c0       ??_C@_0DB@KAKH@Finding?5last?5valid?5log?5LSN?3?5file@ 004b95c0     libdb41s:log.obj
 0003:000045f4       ??_C@_0BJ@NHFE@Invalid?5log?5file?3?5?$CFs?3?5?$CFs?$AA@ 004b95f4     libdb41s:log.obj
 0003:00004610       ??_C@_04EPDM@log?4?$AA@    004b9610     libdb41s:log.obj
 0003:00004618       ??_C@_01PJCK@?4?$AA@       004b9618     libdb41s:log.obj
 0003:0000461c       ??_C@_0BK@OHFK@Ignoring?5log?5file?3?5?$CFs?3?5?$CFs?$AA@ 004b961c     libdb41s:log.obj
 0003:00004638       ??_C@_0DD@LNGP@Ignoring?5log?5file?3?5?$CFs?3?5unsupport@ 004b9638     libdb41s:log.obj
 0003:0000466c       ??_C@_0DB@LGNC@Ignoring?5log?5file?3?5?$CFs?3?5magic?5num@ 004b966c     libdb41s:log.obj
 0003:000046a0       ??_C@_0BN@GNAE@log?5record?5checksum?5mismatch?$AA@ 004b96a0     libdb41s:log.obj
 0003:000046c0       ??_C@_0BJ@IFHF@log?5record?5size?5mismatch?$AA@ 004b96c0     libdb41s:log.obj
 0003:000046dc       ??_C@_0BB@CCPG@DB_ENV?9?$DOlog_stat?$AA@ 004b96dc     libdb41s:log.obj
 0003:000046f0       ??_C@_0DC@MBDK@DB_ENV?9?$DOlog_put?5is?5illegal?5on?5re@ 004b96f0     libdb41s:log_put.obj
 0003:00004724       ??_C@_0BA@LDNG@DB_ENV?9?$DOlog_put?$AA@ 004b9724     libdb41s:log_put.obj
 0003:00004734       ??_C@_0DG@CDMJ@DB_ENV?9?$DOlog_put?3?5record?5larger?5t@ 004b9734     libdb41s:log_put.obj
 0003:0000476c       ??_C@_0BP@JMFB@Short?5read?5while?5restoring?5log?$AA@ 004b976c     libdb41s:log_put.obj
 0003:0000478c       ??_C@_0BC@KHIL@DB_ENV?9?$DOlog_flush?$AA@ 004b978c     libdb41s:log_put.obj
 0003:000047a0       ??_C@_0CP@HMCH@DB_ENV?9?$DOlog_flush?3?5LSN?5past?5curr@ 004b97a0     libdb41s:log_put.obj
 0003:000047d0       ??_C@_0CL@PAGF@DB_ENV?9?$DOlog_file?3?5name?5buffer?5is@ 004b97d0     libdb41s:log_put.obj
 0003:000047fc       ??_C@_0BB@JGON@DB_ENV?9?$DOlog_file?$AA@ 004b97fc     libdb41s:log_put.obj
 0003:00004810       ??_C@_0BI@PJAI@DB_ENV?9?$DOlog_put?3?5?$CFs?3?5?$CFs?$AA@ 004b9810     libdb41s:log_put.obj
 0003:00004828       ??_C@_08IDHC@log?4?$CF05d?$AA@ 004b9828     libdb41s:log_put.obj
 0003:00004834       ??_C@_0BN@ONAL@?$CFs?3?5log?5file?5open?5failed?3?5?$CFs?$AA@ 004b9834     libdb41s:log_put.obj
 0003:00004854       ??_C@_09KFAD@log?4?$CF010d?$AA@ 004b9854     libdb41s:log_put.obj
 0003:00004860       ??_C@_0BD@FOEI@DB_ENV?9?$DOlog_cursor?$AA@ 004b9860     libdb41s:log_get.obj
 0003:00004874       ??_C@_0P@EEFM@DB_LOGC?9?$DOclose?$AA@ 004b9874     libdb41s:log_get.obj
 0003:00004884       ??_C@_0N@HGNM@DB_LOGC?9?$DOget?$AA@ 004b9884     libdb41s:log_get.obj
 0003:00004894       ??_C@_0BK@KLNO@DB_LOGC?9?$DOget?3?5invalid?5LSN?$AA@ 004b9894     libdb41s:log_get.obj
 0003:000048b0       ??_C@_0DL@OIOE@Encountered?5zero?5length?5records?5@ 004b98b0     libdb41s:log_get.obj
 0003:000048ec       ??_C@_0DE@LLAJ@DB_LOGC?9?$DOget?3?5catastrophic?5recov@ 004b98ec     libdb41s:log_get.obj
 0003:00004920       ??_C@_0CL@GIDC@DB_LOGC?9?$DOget?3?5log?5record?5checksu@ 004b9920     libdb41s:log_get.obj
 0003:0000494c       ??_C@_0CI@JOGJ@DB_LOGC?9?$DOget?3?5invalid?5log?5record@ 004b994c     libdb41s:log_get.obj
 0003:00004974       ??_C@_0BB@FCFH@DB_LOGC?9?$DOget?3?5?$CFs?$AA@ 004b9974     libdb41s:log_get.obj
 0003:00004988       ??_C@_0BH@JAMB@DB_LOGC?9?$DOget?3?5read?3?5?$CFs?$AA@ 004b9988     libdb41s:log_get.obj
 0003:000049a0       ??_C@_0BH@OPLP@DB_LOGC?9?$DOget?3?5seek?3?5?$CFs?$AA@ 004b99a0     libdb41s:log_get.obj
 0003:000049b8       ??_C@_0BF@JMGG@DB_LOGC?9?$DOget?3?5?$CFs?3?5?$CFs?$AA@ 004b99b8     libdb41s:log_get.obj
 0003:000049d0       ??_C@_0BJ@BNMM@DB_LOGC?9?$DOget?3?5short?5read?$AA@ 004b99d0     libdb41s:log_get.obj
 0003:000049ec       ??_C@_0BE@MGBE@DB_ENV?9?$DOlog_archive?$AA@ 004b99ec     libdb41s:log_archive.obj
 0003:00004a00       ??_C@_0CP@JOBK@DB_ENV?9?$DOlog_archive?3?5unable?5to?5r@ 004b9a00     libdb41s:log_archive.obj
 0003:00004a30       ??_C@_0CE@DPGL@DB_ENV?9?$DOlog_archive?3?5bad?5log?5rec@ 004b9a30     libdb41s:log_archive.obj
 0003:00004a54       ??_C@_0CE@IJDN@Unable?5to?5allocate?5memory?5for?5mu@ 004b9a54     libdb41s:mutex.obj
 0003:00004a78       ??_C@_0DE@CCOK@Recovery?5function?5for?5LSN?5?$CFlu?5?$CFl@ 004b9a78     libdb41s:env_recover.obj
 0003:00004aac       ??_C@_0BF@PBBJ@?$CFs?5?$CFlx?5?$CFs?5?$FL?$CFlu?$FN?$FL?$CFlu?$FN?$AA@ 004b9aac     libdb41s:env_recover.obj
 0003:00004ac4       ??_C@_0BH@LCNG@Maximum?5transaction?5ID?$AA@ 004b9ac4     libdb41s:env_recover.obj
 0003:00004adc       ??_C@_0BE@FFDI@Recovery?5checkpoint?$AA@ 004b9adc     libdb41s:env_recover.obj
 0003:00004af0       ??_C@_0BL@CFCJ@Recovery?5complete?5at?5?$CF?424s?$AA@ 004b9af0     libdb41s:env_recover.obj
 0003:00004b0c       ??_C@_0BL@NJDE@First?5log?5record?5not?5found?$AA@ 004b9b0c     libdb41s:env_recover.obj
 0003:00004b28       ??_C@_07OHGK@forward?$AA@  004b9b28     libdb41s:env_recover.obj
 0003:00004b30       ??_C@_08OIHD@backward?$AA@ 004b9b30     libdb41s:env_recover.obj
 0003:00004b3c       ??_C@_0CC@MLJN@Recovery?5starting?5from?5?$FL?$CFlu?$FN?$FL?$CFlu@ 004b9b3c     libdb41s:env_recover.obj
 0003:00004b60       ??_C@_0CL@NCFC@Checkpoint?5LSN?5record?5?$FL?$CFld?$FN?$FL?$CFld?$FN@ 004b9b60     libdb41s:env_recover.obj
 0003:00004b8c       ??_C@_0CI@IPIA@Invalid?5checkpoint?5record?5at?5?$FL?$CFl@ 004b9b8c     libdb41s:env_recover.obj
 0003:00004bb4       ??_C@_0BK@GOML@Last?5log?5record?5not?5found?$AA@ 004b9bb4     libdb41s:env_recover.obj
 0003:00004bd0       ??_C@_0DD@INBM@Invalid?5recovery?5timestamp?5?$CFs?$DL?5e@ 004b9bd0     libdb41s:env_recover.obj
 0003:00004c04       ??_C@_0CJ@FKIA@Recovery?5function?5for?5LSN?5?$CFlu?5?$CFl@ 004b9c04     libdb41s:env_recover.obj
 0003:00004c30       ??_C@_0BB@BAHK@?7meta_pgno?3?5?$CFlu?6?$AA@ 004b9c30     libdb41s:qam_auto.obj
 0003:00004c44       ??_C@_0N@KMAD@?7recno?3?5?$CFlu?6?$AA@ 004b9c44     libdb41s:qam_auto.obj
 0003:00004c54       ??_C@_0O@ODJJ@?7fileid?3?5?$CFld?6?$AA@ 004b9c54     libdb41s:qam_auto.obj
 0003:00004c64       ??_C@_0EB@OEL@?$FL?$CFlu?$FN?$FL?$CFlu?$FN__qam_incfirst?3?5rec?3?5?$CF@ 004b9c64     libdb41s:qam_auto.obj
 0003:00004ca8       ??_C@_0BG@DBLO@?7metalsn?3?5?$FL?$CFlu?$FN?$FL?$CFlu?$FN?6?$AA@ 004b9ca8     libdb41s:qam_auto.obj
 0003:00004cc0       ??_C@_0P@DMIA@?7new_cur?3?5?$CFlu?6?$AA@ 004b9cc0     libdb41s:qam_auto.obj
 0003:00004cd0       ??_C@_0P@PIDP@?7old_cur?3?5?$CFlu?6?$AA@ 004b9cd0     libdb41s:qam_auto.obj
 0003:00004ce0       ??_C@_0BB@CEFF@?7new_first?3?5?$CFlu?6?$AA@ 004b9ce0     libdb41s:qam_auto.obj
 0003:00004cf4       ??_C@_0BB@KBEH@?7old_first?3?5?$CFlu?6?$AA@ 004b9cf4     libdb41s:qam_auto.obj
 0003:00004d08       ??_C@_0DO@FMLD@?$FL?$CFlu?$FN?$FL?$CFlu?$FN__qam_mvptr?3?5rec?3?5?$CFlu?5@ 004b9d08     libdb41s:qam_auto.obj
 0003:00004d48       ??_C@_0M@PGAO@?7indx?3?5?$CFlu?6?$AA@ 004b9d48     libdb41s:qam_auto.obj
 0003:00004d54       ??_C@_0M@NKGI@?7pgno?3?5?$CFlu?6?$AA@ 004b9d54     libdb41s:qam_auto.obj
 0003:00004d60       ??_C@_0BC@FHIK@?7lsn?3?5?$FL?$CFlu?$FN?$FL?$CFlu?$FN?6?$AA@ 004b9d60     libdb41s:qam_auto.obj
 0003:00004d74       ??_C@_0DM@CHCE@?$FL?$CFlu?$FN?$FL?$CFlu?$FN__qam_del?3?5rec?3?5?$CFlu?5tx@ 004b9d74     libdb41s:qam_auto.obj
 0003:00004db0       ??_C@_0L@CMNP@?7olddata?3?5?$AA@ 004b9db0     libdb41s:qam_auto.obj
 0003:00004dbc       ??_C@_0N@GND@?7vflag?3?5?$CFlu?6?$AA@ 004b9dbc     libdb41s:qam_auto.obj
 0003:00004dcc       ??_C@_07KDLD@?7data?3?5?$AA@ 004b9dcc     libdb41s:qam_auto.obj
 0003:00004dd4       ??_C@_0DM@EPFH@?$FL?$CFlu?$FN?$FL?$CFlu?$FN__qam_add?3?5rec?3?5?$CFlu?5tx@ 004b9dd4     libdb41s:qam_auto.obj
 0003:00004e10       ??_C@_0DP@KJJP@?$FL?$CFlu?$FN?$FL?$CFlu?$FN__qam_delext?3?5rec?3?5?$CFlu@ 004b9e10     libdb41s:qam_auto.obj
 0003:00004e50       ??_C@_06MLGL@?7key?3?5?$AA@ 004b9e50     libdb41s:hash_auto.obj
 0003:00004e58       ??_C@_0BG@BECH@?7pagelsn?3?5?$FL?$CFlu?$FN?$FL?$CFlu?$FN?6?$AA@ 004b9e58     libdb41s:hash_auto.obj
 0003:00004e70       ??_C@_0L@EACE@?7ndx?3?5?$CFlu?6?$AA@ 004b9e70     libdb41s:hash_auto.obj
 0003:00004e7c       ??_C@_0DP@IDEA@?$FL?$CFlu?$FN?$FL?$CFlu?$FN__ham_insdel?3?5rec?3?5?$CFlu@ 004b9e7c     libdb41s:hash_auto.obj
 0003:00004ebc       ??_C@_0BG@GLHH@?7nextlsn?3?5?$FL?$CFlu?$FN?$FL?$CFlu?$FN?6?$AA@ 004b9ebc     libdb41s:hash_auto.obj
 0003:00004ed4       ??_C@_0BB@JNKK@?7next_pgno?3?5?$CFlu?6?$AA@ 004b9ed4     libdb41s:hash_auto.obj
 0003:00004ee8       ??_C@_0BA@NOCO@?7new_pgno?3?5?$CFlu?6?$AA@ 004b9ee8     libdb41s:hash_auto.obj
 0003:00004ef8       ??_C@_0BG@ICNA@?7prevlsn?3?5?$FL?$CFlu?$FN?$FL?$CFlu?$FN?6?$AA@ 004b9ef8     libdb41s:hash_auto.obj
 0003:00004f10       ??_C@_0BB@BLHC@?7prev_pgno?3?5?$CFlu?6?$AA@ 004b9f10     libdb41s:hash_auto.obj
 0003:00004f24       ??_C@_0EA@CBNP@?$FL?$CFlu?$FN?$FL?$CFlu?$FN__ham_newpage?3?5rec?3?5?$CFl@ 004b9f24     libdb41s:hash_auto.obj
 0003:00004f64       ??_C@_0N@LDAF@?7pageimage?3?5?$AA@ 004b9f64     libdb41s:hash_auto.obj
 0003:00004f74       ??_C@_0EC@PEDJ@?$FL?$CFlu?$FN?$FL?$CFlu?$FN__ham_splitdata?3?5rec?3?5@ 004b9f74     libdb41s:hash_auto.obj
 0003:00004fb8       ??_C@_0P@FJAJ@?7makedup?3?5?$CFlu?6?$AA@ 004b9fb8     libdb41s:hash_auto.obj
 0003:00004fc8       ??_C@_0L@JJHB@?7newitem?3?5?$AA@ 004b9fc8     libdb41s:hash_auto.obj
 0003:00004fd4       ??_C@_0L@MIIH@?7olditem?3?5?$AA@ 004b9fd4     libdb41s:hash_auto.obj
 0003:00004fe0       ??_C@_0L@BELI@?7off?3?5?$CFld?6?$AA@ 004b9fe0     libdb41s:hash_auto.obj
 0003:00004fec       ??_C@_0EA@JGBO@?$FL?$CFlu?$FN?$FL?$CFlu?$FN__ham_replace?3?5rec?3?5?$CFl@ 004b9fec     libdb41s:hash_auto.obj
 0003:0000502c       ??_C@_07NNLM@?7page?3?5?$AA@ 004ba02c     libdb41s:hash_auto.obj
 0003:00005034       ??_C@_0BH@IMCO@?7nnextlsn?3?5?$FL?$CFlu?$FN?$FL?$CFlu?$FN?6?$AA@ 004ba034     libdb41s:hash_auto.obj
 0003:0000504c       ??_C@_0BC@GFDE@?7nnext_pgno?3?5?$CFlu?6?$AA@ 004ba04c     libdb41s:hash_auto.obj
 0003:00005060       ??_C@_0EB@GEDP@?$FL?$CFlu?$FN?$FL?$CFlu?$FN__ham_copypage?3?5rec?3?5?$CF@ 004ba060     libdb41s:hash_auto.obj
 0003:000050a4       ??_C@_0BA@GDAH@?7newalloc?3?5?$CFlu?6?$AA@ 004ba0a4     libdb41s:hash_auto.obj
 0003:000050b4       ??_C@_0N@IAOB@?7mpgno?3?5?$CFlu?6?$AA@ 004ba0b4     libdb41s:hash_auto.obj
 0003:000050c4       ??_C@_0BH@GGCD@?7mmetalsn?3?5?$FL?$CFlu?$FN?$FL?$CFlu?$FN?6?$AA@ 004ba0c4     libdb41s:hash_auto.obj
 0003:000050dc       ??_C@_0O@CKLL@?7mmpgno?3?5?$CFlu?6?$AA@ 004ba0dc     libdb41s:hash_auto.obj
 0003:000050ec       ??_C@_0O@LILF@?7bucket?3?5?$CFlu?6?$AA@ 004ba0ec     libdb41s:hash_auto.obj
 0003:000050fc       ??_C@_0EC@MAFO@?$FL?$CFlu?$FN?$FL?$CFlu?$FN__ham_metagroup?3?5rec?3?5@ 004ba0fc     libdb41s:hash_auto.obj
 0003:00005140       ??_C@_0M@FJKK@?7free?3?5?$CFlu?6?$AA@ 004ba140     libdb41s:hash_auto.obj
 0003:0000514c       ??_C@_0L@PHHK@?7num?3?5?$CFlu?6?$AA@ 004ba14c     libdb41s:hash_auto.obj
 0003:00005158       ??_C@_0BC@MDHF@?7start_pgno?3?5?$CFlu?6?$AA@ 004ba158     libdb41s:hash_auto.obj
 0003:0000516c       ??_C@_0BH@CEBB@?7meta_lsn?3?5?$FL?$CFlu?$FN?$FL?$CFlu?$FN?6?$AA@ 004ba16c     libdb41s:hash_auto.obj
 0003:00005184       ??_C@_0ED@HNHN@?$FL?$CFlu?$FN?$FL?$CFlu?$FN__ham_groupalloc?3?5rec?3@ 004ba184     libdb41s:hash_auto.obj
 0003:000051c8       ??_C@_0N@JMJB@?7order?3?5?$CFlu?6?$AA@ 004ba1c8     libdb41s:hash_auto.obj
 0003:000051d8       ??_C@_0O@ECIN@?7is_dup?3?5?$CFld?6?$AA@ 004ba1d8     libdb41s:hash_auto.obj
 0003:000051e8       ??_C@_0L@EGDP@?7add?3?5?$CFld?6?$AA@ 004ba1e8     libdb41s:hash_auto.obj
 0003:000051f4       ??_C@_0P@EMME@?7dup_off?3?5?$CFlu?6?$AA@ 004ba1f4     libdb41s:hash_auto.obj
 0003:00005204       ??_C@_0L@ICLN@?7len?3?5?$CFlu?6?$AA@ 004ba204     libdb41s:hash_auto.obj
 0003:00005210       ??_C@_0DP@ECBF@?$FL?$CFlu?$FN?$FL?$CFlu?$FN__ham_curadj?3?5rec?3?5?$CFlu@ 004ba210     libdb41s:hash_auto.obj
 0003:00005250       ??_C@_0BA@PCEI@?7new_indx?3?5?$CFlu?6?$AA@ 004ba250     libdb41s:hash_auto.obj
 0003:00005260       ??_C@_0BA@OAIM@?7old_indx?3?5?$CFlu?6?$AA@ 004ba260     libdb41s:hash_auto.obj
 0003:00005270       ??_C@_0BA@MMOK@?7old_pgno?3?5?$CFlu?6?$AA@ 004ba270     libdb41s:hash_auto.obj
 0003:00005280       ??_C@_0M@HOHI@?7mode?3?5?$CFld?6?$AA@ 004ba280     libdb41s:hash_auto.obj
 0003:0000528c       ??_C@_0DO@OPBP@?$FL?$CFlu?$FN?$FL?$CFlu?$FN__ham_chgpg?3?5rec?3?5?$CFlu?5@ 004ba28c     libdb41s:hash_auto.obj
 0003:000052cc       ??_C@_0L@IJLO@?7mode?3?5?$CFo?6?$AA@ 004ba2cc     libdb41s:fileops_auto.obj
 0003:000052d8       ??_C@_0P@HMLJ@?7appname?3?5?$CFlu?6?$AA@ 004ba2d8     libdb41s:fileops_auto.obj
 0003:000052e8       ??_C@_07DHEL@?7name?3?5?$AA@ 004ba2e8     libdb41s:fileops_auto.obj
 0003:000052f0       ??_C@_0DP@OEMF@?$FL?$CFlu?$FN?$FL?$CFlu?$FN__fop_create?3?5rec?3?5?$CFlu@ 004ba2f0     libdb41s:fileops_auto.obj
 0003:00005330       ??_C@_06POLK@?7fid?3?5?$AA@ 004ba330     libdb41s:fileops_auto.obj
 0003:00005338       ??_C@_0DP@HAPB@?$FL?$CFlu?$FN?$FL?$CFlu?$FN__fop_remove?3?5rec?3?5?$CFlu@ 004ba338     libdb41s:fileops_auto.obj
 0003:00005378       ??_C@_0M@JPEI@?7flag?3?5?$CFlu?6?$AA@ 004ba378     libdb41s:fileops_auto.obj
 0003:00005384       ??_C@_0O@BMMF@?7offset?3?5?$CFlu?6?$AA@ 004ba384     libdb41s:fileops_auto.obj
 0003:00005394       ??_C@_0DO@MLPC@?$FL?$CFlu?$FN?$FL?$CFlu?$FN__fop_write?3?5rec?3?5?$CFlu?5@ 004ba394     libdb41s:fileops_auto.obj
 0003:000053d4       ??_C@_09ECIF@?7fileid?3?5?$AA@ 004ba3d4     libdb41s:fileops_auto.obj
 0003:000053e0       ??_C@_0L@OJNB@?7newname?3?5?$AA@ 004ba3e0     libdb41s:fileops_auto.obj
 0003:000053ec       ??_C@_0L@LICH@?7oldname?3?5?$AA@ 004ba3ec     libdb41s:fileops_auto.obj
 0003:000053f8       ??_C@_0DP@DJCO@?$FL?$CFlu?$FN?$FL?$CFlu?$FN__fop_rename?3?5rec?3?5?$CFlu@ 004ba3f8     libdb41s:fileops_auto.obj
 0003:00005438       ??_C@_0L@PBM@?7tmp_fid?3?5?$AA@ 004ba438     libdb41s:fileops_auto.obj
 0003:00005444       ??_C@_0M@LOD@?7real_fid?3?5?$AA@ 004ba444     libdb41s:fileops_auto.obj
 0003:00005450       ??_C@_0EE@BBG@?$FL?$CFlu?$FN?$FL?$CFlu?$FN__fop_file_remove?3?5rec@ 004ba450     libdb41s:fileops_auto.obj
 0003:00005494       ??_C@_0M@FFKB@?7id?3?50x?$CFlx?6?$AA@ 004ba494     libdb41s:dbreg_auto.obj
 0003:000054a0       ??_C@_0P@FNGI@?7ftype?3?50x?$CFlx?6?$AA@ 004ba4a0     libdb41s:dbreg_auto.obj
 0003:000054b0       ??_C@_06BMIA@?7uid?3?5?$AA@ 004ba4b0     libdb41s:dbreg_auto.obj
 0003:000054b8       ??_C@_0ED@BCOF@?$FL?$CFlu?$FN?$FL?$CFlu?$FN__dbreg_register?3?5rec?3@ 004ba4b8     libdb41s:dbreg_auto.obj
 0003:000054fc       ??_C@_06NKPM@?7dbt?3?5?$AA@ 004ba4fc     libdb41s:db_auto.obj
 0003:00005504       ??_C@_06GINI@?7hdr?3?5?$AA@ 004ba504     libdb41s:db_auto.obj
 0003:0000550c       ??_C@_0O@HAHJ@?7nbytes?3?5?$CFlu?6?$AA@ 004ba50c     libdb41s:db_auto.obj
 0003:0000551c       ??_C@_0DO@LPMO@?$FL?$CFlu?$FN?$FL?$CFlu?$FN__db_addrem?3?5rec?3?5?$CFlu?5@ 004ba51c     libdb41s:db_auto.obj
 0003:0000555c       ??_C@_0DL@JEGO@?$FL?$CFlu?$FN?$FL?$CFlu?$FN__db_big?3?5rec?3?5?$CFlu?5txn@ 004ba55c     libdb41s:db_auto.obj
 0003:00005598       ??_C@_0O@EIFH@?7adjust?3?5?$CFld?6?$AA@ 004ba598     libdb41s:db_auto.obj
 0003:000055a8       ??_C@_0DN@DJPH@?$FL?$CFlu?$FN?$FL?$CFlu?$FN__db_ovref?3?5rec?3?5?$CFlu?5t@ 004ba5a8     libdb41s:db_auto.obj
 0003:000055e8       ??_C@_0BH@NEDM@?7lsn_next?3?5?$FL?$CFlu?$FN?$FL?$CFlu?$FN?6?$AA@ 004ba5e8     libdb41s:db_auto.obj
 0003:00005600       ??_C@_0M@CAAE@?7next?3?5?$CFlu?6?$AA@ 004ba600     libdb41s:db_auto.obj
 0003:0000560c       ??_C@_0BH@EBAJ@?7lsn_prev?3?5?$FL?$CFlu?$FN?$FL?$CFlu?$FN?6?$AA@ 004ba60c     libdb41s:db_auto.obj
 0003:00005624       ??_C@_0M@BPOH@?7prev?3?5?$CFlu?6?$AA@ 004ba624     libdb41s:db_auto.obj
 0003:00005630       ??_C@_0DO@EMPI@?$FL?$CFlu?$FN?$FL?$CFlu?$FN__db_relink?3?5rec?3?5?$CFlu?5@ 004ba630     libdb41s:db_auto.obj
 0003:00005670       ??_C@_0BB@LHGC@?7arg_flags?3?5?$CFlu?6?$AA@ 004ba670     libdb41s:db_auto.obj
 0003:00005684       ??_C@_05BMOJ@?7op?3?5?$AA@ 004ba684     libdb41s:db_auto.obj
 0003:0000568c       ??_C@_0DN@GAIK@?$FL?$CFlu?$FN?$FL?$CFlu?$FN__db_debug?3?5rec?3?5?$CFlu?5t@ 004ba68c     libdb41s:db_auto.obj
 0003:000056cc       ??_C@_0DM@MPPL@?$FL?$CFlu?$FN?$FL?$CFlu?$FN__db_noop?3?5rec?3?5?$CFlu?5tx@ 004ba6cc     libdb41s:db_auto.obj
 0003:00005708       ??_C@_0N@OCFF@?7ptype?3?5?$CFlu?6?$AA@ 004ba708     libdb41s:db_auto.obj
 0003:00005718       ??_C@_0BH@MIDE@?7page_lsn?3?5?$FL?$CFlu?$FN?$FL?$CFlu?$FN?6?$AA@ 004ba718     libdb41s:db_auto.obj
 0003:00005730       ??_C@_0EA@EGPP@?$FL?$CFlu?$FN?$FL?$CFlu?$FN__db_pg_alloc?3?5rec?3?5?$CFl@ 004ba730     libdb41s:db_auto.obj
 0003:00005770       ??_C@_09MBCM@?7header?3?5?$AA@ 004ba770     libdb41s:db_auto.obj
 0003:0000577c       ??_C@_0DP@GJAF@?$FL?$CFlu?$FN?$FL?$CFlu?$FN__db_pg_free?3?5rec?3?5?$CFlu@ 004ba77c     libdb41s:db_auto.obj
 0003:000057bc       ??_C@_0DN@NIJB@?$FL?$CFlu?$FN?$FL?$CFlu?$FN__db_cksum?3?5rec?3?5?$CFlu?5t@ 004ba7bc     libdb41s:db_auto.obj
 0003:000057fc       ??_C@_0EC@LEKF@?$FL?$CFlu?$FN?$FL?$CFlu?$FN__crdel_metasub?3?5rec?3?5@ 004ba7fc     libdb41s:crdel_auto.obj
 0003:00005840       ??_C@_0P@HOM@?7opflags?3?5?$CFlu?6?$AA@ 004ba840     libdb41s:btree_auto.obj
 0003:00005850       ??_C@_05GON@?7pg?3?5?$AA@  004ba850     libdb41s:btree_auto.obj
 0003:00005858       ??_C@_0BB@EKNK@?7root_pgno?3?5?$CFlu?6?$AA@ 004ba858     libdb41s:btree_auto.obj
 0003:0000586c       ??_C@_0BD@KNHC@?7nlsn?3?5?$FL?$CFlu?$FN?$FL?$CFlu?$FN?6?$AA@ 004ba86c     libdb41s:btree_auto.obj
 0003:00005880       ??_C@_0N@LPHB@?7npgno?3?5?$CFlu?6?$AA@ 004ba880     libdb41s:btree_auto.obj
 0003:00005890       ??_C@_0BD@JOOH@?7rlsn?3?5?$FL?$CFlu?$FN?$FL?$CFlu?$FN?6?$AA@ 004ba890     libdb41s:btree_auto.obj
 0003:000058a4       ??_C@_0N@LKJG@?7right?3?5?$CFlu?6?$AA@ 004ba8a4     libdb41s:btree_auto.obj
 0003:000058b4       ??_C@_0BD@EFDB@?7llsn?3?5?$FL?$CFlu?$FN?$FL?$CFlu?$FN?6?$AA@ 004ba8b4     libdb41s:btree_auto.obj
 0003:000058c8       ??_C@_0M@EMPK@?7left?3?5?$CFlu?6?$AA@ 004ba8c8     libdb41s:btree_auto.obj
 0003:000058d4       ??_C@_0DO@HKMO@?$FL?$CFlu?$FN?$FL?$CFlu?$FN__bam_split?3?5rec?3?5?$CFlu?5@ 004ba8d4     libdb41s:btree_auto.obj
 0003:00005914       ??_C@_0BG@HOJE@?7rootlsn?3?5?$FL?$CFlu?$FN?$FL?$CFlu?$FN?6?$AA@ 004ba914     libdb41s:btree_auto.obj
 0003:0000592c       ??_C@_0L@NKLA@?7rootent?3?5?$AA@ 004ba92c     libdb41s:btree_auto.obj
 0003:00005938       ??_C@_0M@MAMF@?7nrec?3?5?$CFlu?6?$AA@ 004ba938     libdb41s:btree_auto.obj
 0003:00005944       ??_C@_08EBOM@?7pgdbt?3?5?$AA@ 004ba944     libdb41s:btree_auto.obj
 0003:00005950       ??_C@_0DP@DBJB@?$FL?$CFlu?$FN?$FL?$CFlu?$FN__bam_rsplit?3?5rec?3?5?$CFlu@ 004ba950     libdb41s:btree_auto.obj
 0003:00005990       ??_C@_0BB@OOAJ@?7is_insert?3?5?$CFlu?6?$AA@ 004ba990     libdb41s:btree_auto.obj
 0003:000059a4       ??_C@_0BB@DBDF@?7indx_copy?3?5?$CFlu?6?$AA@ 004ba9a4     libdb41s:btree_auto.obj
 0003:000059b8       ??_C@_0DM@EAB@?$FL?$CFlu?$FN?$FL?$CFlu?$FN__bam_adj?3?5rec?3?5?$CFlu?5tx@ 004ba9b8     libdb41s:btree_auto.obj
 0003:000059f4       ??_C@_0EA@HOPE@?$FL?$CFlu?$FN?$FL?$CFlu?$FN__bam_cadjust?3?5rec?3?5?$CFl@ 004ba9f4     libdb41s:btree_auto.obj
 0003:00005a34       ??_C@_0DN@NHGI@?$FL?$CFlu?$FN?$FL?$CFlu?$FN__bam_cdel?3?5rec?3?5?$CFlu?5t@ 004baa34     libdb41s:btree_auto.obj
 0003:00005a74       ??_C@_0O@MNCA@?7suffix?3?5?$CFlu?6?$AA@ 004baa74     libdb41s:btree_auto.obj
 0003:00005a84       ??_C@_0O@HOPG@?7prefix?3?5?$CFlu?6?$AA@ 004baa84     libdb41s:btree_auto.obj
 0003:00005a94       ??_C@_07BLFF@?7repl?3?5?$AA@ 004baa94     libdb41s:btree_auto.obj
 0003:00005a9c       ??_C@_07HBLE@?7orig?3?5?$AA@ 004baa9c     libdb41s:btree_auto.obj
 0003:00005aa4       ??_C@_0BB@JEL@?7isdeleted?3?5?$CFlu?6?$AA@ 004baaa4     libdb41s:btree_auto.obj
 0003:00005ab8       ??_C@_0DN@MHIM@?$FL?$CFlu?$FN?$FL?$CFlu?$FN__bam_repl?3?5rec?3?5?$CFlu?5t@ 004baab8     libdb41s:btree_auto.obj
 0003:00005af8       ??_C@_0DN@HEDJ@?$FL?$CFlu?$FN?$FL?$CFlu?$FN__bam_root?3?5rec?3?5?$CFlu?5t@ 004baaf8     libdb41s:btree_auto.obj
 0003:00005b38       ??_C@_0P@KMGF@?7to_indx?3?5?$CFlu?6?$AA@ 004bab38     libdb41s:btree_auto.obj
 0003:00005b48       ??_C@_0BB@LMKH@?7from_indx?3?5?$CFlu?6?$AA@ 004bab48     libdb41s:btree_auto.obj
 0003:00005b5c       ??_C@_0BC@BGFP@?7first_indx?3?5?$CFlu?6?$AA@ 004bab5c     libdb41s:btree_auto.obj
 0003:00005b70       ??_C@_0BB@GCDH@?7left_pgno?3?5?$CFlu?6?$AA@ 004bab70     libdb41s:btree_auto.obj
 0003:00005b84       ??_C@_0P@IAAD@?7to_pgno?3?5?$CFlu?6?$AA@ 004bab84     libdb41s:btree_auto.obj
 0003:00005b94       ??_C@_0BB@JAMB@?7from_pgno?3?5?$CFlu?6?$AA@ 004bab94     libdb41s:btree_auto.obj
 0003:00005ba8       ??_C@_0DP@NBBF@?$FL?$CFlu?$FN?$FL?$CFlu?$FN__bam_curadj?3?5rec?3?5?$CFlu@ 004baba8     libdb41s:btree_auto.obj
 0003:00005be8       ??_C@_0N@OAJC@?7order?3?5?$CFld?6?$AA@ 004babe8     libdb41s:btree_auto.obj
 0003:00005bf8       ??_C@_0N@NAAA@?7recno?3?5?$CFld?6?$AA@ 004babf8     libdb41s:btree_auto.obj
 0003:00005c08       ??_C@_0M@NMJ@?7root?3?5?$CFld?6?$AA@ 004bac08     libdb41s:btree_auto.obj
 0003:00005c14       ??_C@_0EA@FMFO@?$FL?$CFlu?$FN?$FL?$CFlu?$FN__bam_rcuradj?3?5rec?3?5?$CFl@ 004bac14     libdb41s:btree_auto.obj
 0003:00005c54       ??_C@_0DF@FOAF@Unable?5to?5allocate?5memory?5for?5th@ 004bac54     libdb41s:txn_region.obj
 0003:00005c8c       ??_C@_0CF@MDIO@Unable?5to?5abort?5transaction?50x?$CFx@ 004bac8c     libdb41s:txn_region.obj
 0003:00005cb4       ??_C@_0DP@GMJD@Error?3?5closing?5the?5transaction?5r@ 004bacb4     libdb41s:txn_region.obj
 0003:00005cf4       ??_C@_0CP@PDI@lock_open?3?5incompatible?5deadlock@ 004bacf4     libdb41s:lock_region.obj
 0003:00005d24       ??_C@_0CN@IIMF@Unable?5to?5allocate?5memory?5for?5th@ 004bad24     libdb41s:lock_region.obj
 0003:00005d68       ??_C@_0P@FCIL@__db_txn?4share?$AA@ 004bad68     libdb41s:env_region.obj
 0003:00005d78       ??_C@_0BB@EDPB@__db_mpool?4share?$AA@ 004bad78     libdb41s:env_region.obj
 0003:00005d8c       ??_C@_0P@EEFA@__db_log?4share?$AA@ 004bad8c     libdb41s:env_region.obj
 0003:00005d9c       ??_C@_0BA@CBOL@__db_lock?4share?$AA@ 004bad9c     libdb41s:env_region.obj
 0003:00005dac       ??_C@_0BP@EMMM@unable?5to?5join?5the?5environment?$AA@ 004badac     libdb41s:env_region.obj
 0003:00005dcc       ??_C@_0EE@PEKI@Program?5version?5?$CFd?4?$CFd?4?$CFd?5doesn?8t@ 004badcc     libdb41s:env_region.obj
 0003:00005e10       ??_C@_0BP@MOHM@?$CFs?3?5unable?5to?5find?5environment?$AA@ 004bae10     libdb41s:env_region.obj
 0003:00005e30       ??_C@_0DK@KJEG@?$CFs?3?5existing?5environment?5not?5cre@ 004bae30     libdb41s:env_region.obj
 0003:00005e6c       ??_C@_0DG@FGAC@?$CFs?3?5unable?5to?5read?5system?9memory@ 004bae6c     libdb41s:env_region.obj
 0003:00005ea4       ??_C@_0DC@COHO@?$CFs?3?5unable?5to?5write?5out?5public?5e@ 004baea4     libdb41s:env_region.obj
 0003:00005ed8       ??_C@_0CL@ELKE@?$CFs?3?5unable?5to?5acquire?5environmen@ 004baed8     libdb41s:env_region.obj
 0003:00005f04       ??_C@_0CO@CLG@?$CFs?3?5unable?5to?5initialize?5environ@ 004baf04     libdb41s:env_region.obj
 0003:00005f34       ??_C@_08NEMC@__db?4001?$AA@ 004baf34     libdb41s:env_region.obj
 0003:00005f40       ??_C@_0BA@DCJO@process?9private?$AA@ 004baf40     libdb41s:env_region.obj
 0003:00005f50       ??_C@_0DI@BIFI@region?5?$CFlu?5?$CIenvironment?$CJ?3?5refere@ 004baf50     libdb41s:env_region.obj
 0003:00005f88       ??_C@_0BC@ECKB@region?5detach?3?5?$CFs?$AA@ 004baf88     libdb41s:env_region.obj
 0003:00005f9c       ??_C@_0BF@NIK@region?5?$CFs?5attach?3?5?$CFs?$AA@ 004baf9c     libdb41s:env_region.obj
 0003:00005fb4       ??_C@_09IEMG@__db?4?$CF03d?$AA@ 004bafb4     libdb41s:env_region.obj
 0003:00005fc0       ??_C@_0N@IEDG@DB_ENV?9?$DOstat?$AA@ 004bafc0     libdb41s:env_region.obj
 0003:00005fec       ??_C@_06JNKG@C?3?1tmp?$AA@ 004bafec     libdb41s:os_tmpdir.obj
 0003:00005ff4       ??_C@_07OAIF@C?3?1temp?$AA@ 004baff4     libdb41s:os_tmpdir.obj
 0003:00005ffc       ??_C@_04MNA@?1tmp?$AA@     004baffc     libdb41s:os_tmpdir.obj
 0003:00006004       ??_C@_05FOBE@?1temp?$AA@   004bb004     libdb41s:os_tmpdir.obj
 0003:0000600c       ??_C@_08MNPE@?1usr?1tmp?$AA@ 004bb00c     libdb41s:os_tmpdir.obj
 0003:00006018       ??_C@_08MPAI@?1var?1tmp?$AA@ 004bb018     libdb41s:os_tmpdir.obj
 0003:00006024       ??_C@_0CI@HNBA@illegal?5TempFolder?5environment?5v@ 004bb024     libdb41s:os_tmpdir.obj
 0003:0000604c       ??_C@_0L@BFJM@TempFolder?$AA@ 004bb04c     libdb41s:os_tmpdir.obj
 0003:00006058       ??_C@_0CB@BCII@illegal?5TMP?5environment?5variable@ 004bb058     libdb41s:os_tmpdir.obj
 0003:0000607c       ??_C@_03LDNL@TMP?$AA@      004bb07c     libdb41s:os_tmpdir.obj
 0003:00006080       ??_C@_0CC@GLKE@illegal?5TEMP?5environment?5variabl@ 004bb080     libdb41s:os_tmpdir.obj
 0003:000060a4       ??_C@_04FEEL@TEMP?$AA@     004bb0a4     libdb41s:os_tmpdir.obj
 0003:000060ac       ??_C@_0CE@BIOA@illegal?5TMPDIR?5environment?5varia@ 004bb0ac     libdb41s:os_tmpdir.obj
 0003:000060d0       ??_C@_06NANE@TMPDIR?$AA@   004bb0d0     libdb41s:os_tmpdir.obj
 0003:000060d8       ??_C@_0BP@OLJG@GetFileInformationByHandle?3?5?$CFs?$AA@ 004bb0d8     libdb41s:os_stat.obj
 0003:000060f8       ??_C@_04POLC@?$CFc?3?2?$AA@ 004bb0f8     libdb41s:os_open.obj
 0003:00006100       ??_C@_0BC@DMKI@DBcursor?9?$DOc_count?$AA@ 004bb100     libdb41s:db_iface.obj
 0003:00006114       ??_C@_05IJAN@c_del?$AA@    004bb114     libdb41s:db_iface.obj
 0003:0000611c       ??_C@_0BA@EEDB@DBcursor?9?$DOc_del?$AA@ 004bb11c     libdb41s:db_iface.obj
 0003:0000612c       ??_C@_0DA@FNIL@DB_DBT_PARTIAL?5forbidden?5with?5DB@ 004bb12c     libdb41s:db_iface.obj
 0003:0000615c       ??_C@_0DG@NOHM@DB_MULTIPLE?$CI_KEY?$CJ?5requires?5that?5@ 004bb15c     libdb41s:db_iface.obj
 0003:00006194       ??_C@_04OMKF@data?$AA@     004bb194     libdb41s:db_iface.obj
 0003:0000619c       ??_C@_03DCHJ@key?$AA@      004bb19c     libdb41s:db_iface.obj
 0003:000061a0       ??_C@_0EC@IHIH@DB_DIRTY_READ?5is?5not?5supported?5w@ 004bb1a0     libdb41s:db_iface.obj
 0003:000061e4       ??_C@_0BA@EPMC@DBcursor?9?$DOc_get?$AA@ 004bb1e4     libdb41s:db_iface.obj
 0003:000061f4       ??_C@_05HHFM@c_put?$AA@    004bb1f4     libdb41s:db_iface.obj
 0003:000061fc       ??_C@_0BA@LKGA@DBcursor?9?$DOc_put?$AA@ 004bb1fc     libdb41s:db_iface.obj
 0003:0000620c       ??_C@_0CP@NCFE@DBcursor?9?$DOc_put?5forbidden?5on?5sec@ 004bb20c     libdb41s:db_iface.obj
 0003:0000623c       ??_C@_0DI@GGFI@DB_GET_BOTH?5on?5a?5secondary?5index@ 004bb23c     libdb41s:db_iface.obj
 0003:00006274       ??_C@_0M@FPIG@primary?5key?$AA@ 004bb274     libdb41s:db_iface.obj
 0003:00006280       ??_C@_0EF@HBIC@DB_MULTIPLE?5and?5DB_MULTIPLE_KEY?5@ 004bb280     libdb41s:db_iface.obj
 0003:000062c8       ??_C@_0CP@MCKD@DB?9?$DOpget?5may?5only?5be?5used?5on?5sec@ 004bb2c8     libdb41s:db_iface.obj
 0003:000062f8       ??_C@_0BB@MMPC@DBcursor?9?$DOc_pget?$AA@ 004bb2f8     libdb41s:db_iface.obj
 0003:0000630c       ??_C@_0DI@NKBK@DB_GET_BOTH?5requires?5both?5a?5seco@ 004bb30c     libdb41s:db_iface.obj
 0003:00006344       ??_C@_0DH@KGEK@DBcursor?9?$DOc_pget?5may?5only?5be?5use@ 004bb344     libdb41s:db_iface.obj
 0003:0000637c       ??_C@_06IDPA@delete?$AA@   004bb37c     libdb41s:db_iface.obj
 0003:00006384       ??_C@_0DA@NJBO@DB_MULTIPLE?5requires?5that?5DB_DBT@ 004bb384     libdb41s:db_iface.obj
 0003:000063b4       ??_C@_08DJMI@DB?9?$DOjoin?$AA@ 004bb3b4     libdb41s:db_iface.obj
 0003:000063c0       ??_C@_0DM@EBLI@At?5least?5one?5secondary?5cursor?5mu@ 004bb3c0     libdb41s:db_iface.obj
 0003:000063fc       ??_C@_0DG@FLNM@All?5secondary?5cursors?5must?5share@ 004bb3fc     libdb41s:db_iface.obj
 0003:00006434       ??_C@_0DF@BCLL@DB_DBT_PARTIAL?5may?5not?5be?5set?5on@ 004bb434     libdb41s:db_iface.obj
 0003:0000646c       ??_C@_03ELEH@put?$AA@      004bb46c     libdb41s:db_iface.obj
 0003:00006470       ??_C@_0EI@JFPM@a?5partial?5put?5in?5the?5presence?5of@ 004bb470     libdb41s:db_iface.obj
 0003:000064b8       ??_C@_0CH@NMOM@DB?9?$DOput?5forbidden?5on?5secondary?5i@ 004bb4b8     libdb41s:db_iface.obj
 0003:000064e0       ??_C@_0DE@GPAE@DB_THREAD?5mandates?5memory?5alloca@ 004bb4e0     libdb41s:db_iface.obj
 0003:00006514       ??_C@_0CH@EMOG@?$CFs?3?5attempt?5to?5modify?5a?5read?9onl@ 004bb514     libdb41s:db_iface.obj
 0003:0000653c       ??_C@_0DH@KABI@?$CFs?3?5the?5DB_DIRTY_READ?5and?5DB_RMW@ 004bb53c     libdb41s:db_iface.obj
 0003:00006574       ??_C@_0DN@PPFJ@Cursor?5position?5must?5be?5set?5befo@ 004bb574     libdb41s:db_iface.obj
 0003:000065b4       ??_C@_0EA@HBOL@Secondary?5index?5corrupt?3?5item?5in@ 004bb5b4     libdb41s:db_iface.obj
 0003:000065f4       ??_C@_0O@KIGC@DB?9?$DOassociate?$AA@ 004bb5f4     libdb41s:db_iface.obj
 0003:00006604       ??_C@_0EH@GPIN@Callback?5function?5may?5be?5NULL?5on@ 004bb604     libdb41s:db_iface.obj
 0003:0000664c       ??_C@_0EB@NPEO@Renumbering?5recno?5databases?5may?5@ 004bb64c     libdb41s:db_iface.obj
 0003:00006690       ??_C@_0DI@HDBN@Primary?5databases?5may?5not?5be?5con@ 004bb690     libdb41s:db_iface.obj
 0003:000066c8       ??_C@_0DH@HMEI@Secondary?5indices?5may?5not?5be?5use@ 004bb6c8     libdb41s:db_iface.obj
 0003:00006700       ??_C@_0DB@FABM@Secondary?5index?5handles?5may?5not?5@ 004bb700     libdb41s:db_iface.obj
 0003:00006734       ??_C@_0EF@NOAL@DB_AUTO_COMMIT?5may?5not?5be?5specif@ 004bb734     libdb41s:db_iface.obj
 0003:0000677c       ??_C@_0EE@FOAM@DB_AUTO_COMMIT?5may?5not?5be?5specif@ 004bb77c     libdb41s:db_iface.obj
 0003:000067c0       ??_C@_0BH@KJB@rename?3?5file?5?$CFs?5exists?$AA@ 004bb7c0     libdb41s:fop_util.obj
 0003:000067d8       ??_C@_0BD@HDAI@multiple?9databases?$AA@ 004bb7d8     libdb41s:db_pr.obj
 0003:000067ec       ??_C@_0P@FAAJ@recno?3renumber?$AA@ 004bb7ec     libdb41s:db_pr.obj
 0003:000067fc       ??_C@_0BD@MJNB@recno?3fixed?9length?$AA@ 004bb7fc     libdb41s:db_pr.obj
 0003:00006810       ??_C@_0N@DDPK@btree?3recnum?$AA@ 004bb810     libdb41s:db_pr.obj
 0003:00006820       ??_C@_05HLFJ@recno?$AA@    004bb820     libdb41s:db_pr.obj
 0003:00006828       ??_C@_08MCKG@verifier?$AA@ 004bb828     libdb41s:db_pr.obj
 0003:00006834       ??_C@_0O@NLDO@transactional?$AA@ 004bb834     libdb41s:db_pr.obj
 0003:00006844       ??_C@_08CFNE@needswap?$AA@ 004bb844     libdb41s:db_pr.obj
 0003:00006850       ??_C@_0N@EPGF@subdatabases?$AA@ 004bb850     libdb41s:db_pr.obj
 0003:00006860       ??_C@_0N@BJCO@load?5on?5open?$AA@ 004bb860     libdb41s:db_pr.obj
 0003:00006870       ??_C@_09OICA@secondary?$AA@ 004bb870     libdb41s:db_pr.obj
 0003:0000687c       ??_C@_0BC@GHIM@no?5reverse?5splits?$AA@ 004bb87c     libdb41s:db_pr.obj
 0003:00006890       ??_C@_08ODJN@renumber?$AA@ 004bb890     libdb41s:db_pr.obj
 0003:0000689c       ??_C@_0BE@IHIK@opened?5for?5recovery?$AA@ 004bb89c     libdb41s:db_pr.obj
 0003:000068b0       ??_C@_0BF@LJPN@Btree?5record?5numbers?$AA@ 004bb8b0     libdb41s:db_pr.obj
 0003:000068c8       ??_C@_09EOCJ@read?9only?$AA@ 004bb8c8     libdb41s:db_pr.obj
 0003:000068d4       ??_C@_0BC@LLFA@default?5page?5size?$AA@ 004bb8d4     libdb41s:db_pr.obj
 0003:000068e8       ??_C@_09GFJP@pad?5value?$AA@ 004bb8e8     libdb41s:db_pr.obj
 0003:000068f4       ??_C@_0BA@CBJE@DB?9?$DOopen?5called?$AA@ 004bb8f4     libdb41s:db_pr.obj
 0003:00006904       ??_C@_0BG@LJDD@file?5is?5being?5renamed?$AA@ 004bb904     libdb41s:db_pr.obj
 0003:0000691c       ??_C@_09EMMJ@in?9memory?$AA@ 004bb91c     libdb41s:db_pr.obj
 0003:00006928       ??_C@_0BF@BOKA@fixed?9length?5records?$AA@ 004bb928     libdb41s:db_pr.obj
 0003:00006940       ??_C@_09IDCJ@encrypted?$AA@ 004bb940     libdb41s:db_pr.obj
 0003:0000694c       ??_C@_0BC@CDCH@sorted?5duplicates?$AA@ 004bb94c     libdb41s:db_pr.obj
 0003:00006960       ??_C@_0L@NIHG@duplicates?$AA@ 004bb960     libdb41s:db_pr.obj
 0003:0000696c       ??_C@_0BF@GEBO@discard?5cached?5pages?$AA@ 004bb96c     libdb41s:db_pr.obj
 0003:00006984       ??_C@_0M@BGFP@dirty?5reads?$AA@ 004bb984     libdb41s:db_pr.obj
 0003:00006990       ??_C@_0BA@PJI@variable?5length?$AA@ 004bb990     libdb41s:db_pr.obj
 0003:000069a0       ??_C@_0P@LOKK@dbm?1ndbm?5error?$AA@ 004bb9a0     libdb41s:db_pr.obj
 0003:000069b0       ??_C@_0BK@ILOK@encompassing?5file?5created?$AA@ 004bb9b0     libdb41s:db_pr.obj
 0003:000069cc       ??_C@_0BB@KGFI@database?5created?$AA@ 004bb9cc     libdb41s:db_pr.obj
 0003:000069e0       ??_C@_0CE@OPCH@created?5by?5compensating?5transact@ 004bb9e0     libdb41s:db_pr.obj
 0003:00006a04       ??_C@_0BG@PIDP@client?5replica?5writer?$AA@ 004bba04     libdb41s:db_pr.obj
 0003:00006a1c       ??_C@_0N@JPHG@checksumming?$AA@ 004bba1c     libdb41s:db_pr.obj
 0003:00006a2c       ??_C@_03HHKO@?$CFs?6?$AA@  004bba2c     libdb41s:db_pr.obj
 0003:00006a30       ??_C@_01LLF@w?$AA@         004bba30     libdb41s:db_pr.obj
 0003:00006a34       ??_C@_0P@FNEP@page_ext?3?5?$CFlu?6?$AA@ 004bba34     libdb41s:db_pr.obj
 0003:00006a44       ??_C@_0P@ELDK@rec_page?3?5?$CFlu?6?$AA@ 004bba44     libdb41s:db_pr.obj
 0003:00006a54       ??_C@_0BK@FLKE@re_pad?3?5?$CF?$CDlx?5re_len?3?5?$CFlu?6?$AA@ 004bba54     libdb41s:db_pr.obj
 0003:00006a70       ??_C@_0N@HBFG@q_root?3?5?$CFlu?6?$AA@ 004bba70     libdb41s:db_pr.obj
 0003:00006a80       ??_C@_0N@KMIJ@q_meta?3?5?$CFlu?6?$AA@ 004bba80     libdb41s:db_pr.obj
 0003:00006a90       ??_C@_0O@BJJE@h_hash?3?5?$CF?$CDlx?6?$AA@ 004bba90     libdb41s:db_pr.obj
 0003:00006aa0       ??_C@_0O@FGPH@h_nelem?3?5?$CFlu?6?$AA@ 004bbaa0     libdb41s:db_pr.obj
 0003:00006ab0       ??_C@_0BA@JCHG@h_ffactor?3?5?$CFlu?6?$AA@ 004bbab0     libdb41s:db_pr.obj
 0003:00006ac0       ??_C@_0BA@DPKN@meta_pgno?3?5?$CFlu?6?$AA@ 004bbac0     libdb41s:db_pr.obj
 0003:00006ad0       ??_C@_0CJ@JHDH@re_modified?3?5?$CFd?5re_eof?3?5?$CFd?5re_la@ 004bbad0     libdb41s:db_pr.obj
 0003:00006afc       ??_C@_0DH@BEAM@re_pad?3?5?$CF?$CDlx?5re_delim?3?5?$CF?$CDlx?5re_l@ 004bbafc     libdb41s:db_pr.obj
 0003:00006b34       ??_C@_0P@NJGA@bt_lpgno?3?5?$CFlu?6?$AA@ 004bbb34     libdb41s:db_pr.obj
 0003:00006b44       ??_C@_0CC@ODME@bt_compare?3?5?$CF?$CDlx?5bt_prefix?3?5?$CF?$CDlx@ 004bbb44     libdb41s:db_pr.obj
 0003:00006b68       ??_C@_0BP@DJME@bt_maxkey?3?5?$CFlu?5bt_minkey?3?5?$CFlu?6?$AA@ 004bbb68     libdb41s:db_pr.obj
 0003:00006b88       ??_C@_0BL@CCOH@bt_meta?3?5?$CFlu?5bt_root?3?5?$CFlu?6?$AA@ 004bbb88     libdb41s:db_pr.obj
 0003:00006ba4       ??_C@_0CB@CMLH@In?9memory?5DB?5structure?3?6?$CFs?3?5?$CF?$CDlx@ 004bbba4     libdb41s:db_pr.obj
 0003:00006bc8       ??_C@_0CH@HPPE@ILLEGAL?5PAGE?5OFFSET?3?5indx?3?5?$CFlu?5o@ 004bbbc8     libdb41s:db_pr.obj
 0003:00006bf0       ??_C@_0BI@KEBK@ILLEGAL?5PAGE?5ITEM?3?5?$CFlu?6?$AA@ 004bbbf0     libdb41s:db_pr.obj
 0003:00006c08       ??_C@_0CL@PMHB@ILLEGAL?5DUPLICATE?1LBTREE?1LRECNO?5@ 004bbc08     libdb41s:db_pr.obj
 0003:00006c34       ??_C@_0BI@ILFF@entries?5?$CF4lu?5pgno?5?$CF4lu?6?$AA@ 004bbc34     libdb41s:db_pr.obj
 0003:00006c4c       ??_C@_0BN@ILHB@ILLEGAL?5BINTERNAL?5TYPE?3?5?$CFlu?6?$AA@ 004bbc4c     libdb41s:db_pr.obj
 0003:00006c6c       ??_C@_0CC@NFDK@count?3?5?$CF4lu?5pgno?3?5?$CF4lu?5type?3?5?$CF4l@ 004bbc6c     libdb41s:db_pr.obj
 0003:00006c90       ??_C@_0CG@MGAJ@overflow?3?5total?5len?3?5?$CF4lu?5page?3?5@ 004bbc90     libdb41s:db_pr.obj
 0003:00006cb8       ??_C@_02FNNB@?7?7?$AA@     004bbcb8     libdb41s:db_pr.obj
 0003:00006cbc       ??_C@_0N@FOJO@Duplicates?3?6?$AA@ 004bbcbc     libdb41s:db_pr.obj
 0003:00006ccc       ??_C@_0BF@ENGL@?$CF4lu?5?$FLoffpage?5dups?$FN?6?$AA@ 004bbccc     libdb41s:db_pr.obj
 0003:00006ce4       ??_C@_0P@BANP@?5offset?3?5?$CF4lu?6?$AA@ 004bbce4     libdb41s:db_pr.obj
 0003:00006cf4       ??_C@_0BA@MJNC@?$CFsentries?3?5?$CF4lu?$AA@ 004bbcf4     libdb41s:db_pr.obj
 0003:00006d04       ??_C@_0BB@EAPI@?$CFsref?5cnt?3?5?$CF4lu?5?$AA@ 004bbd04     libdb41s:db_pr.obj
 0003:00006d18       ??_C@_0BI@BBJD@?$CFsprev?3?5?$CF4lu?5next?3?5?$CF4lu?$AA@ 004bbd18     libdb41s:db_pr.obj
 0003:00006d30       ??_C@_0O@FJGB@?$FL?$CF03lu?$FN?5?$CF4lu?5?$AA@ 004bbd30     libdb41s:db_pr.obj
 0003:00006d40       ??_C@_08FFJB@?5?5?5?5?5?5?5D?$AA@ 004bbd40     libdb41s:db_pr.obj
 0003:00006d4c       ??_C@_01POCP@?7?$AA@       004bbd4c     libdb41s:db_pr.obj
 0003:00006d50       ??_C@_0CC@PCMM@?5?$CIlsn?4file?3?5?$CFlu?5lsn?4offset?3?5?$CFlu?$CJ@ 004bbd50     libdb41s:db_pr.obj
 0003:00006d74       ??_C@_0O@NBNA@?5records?3?5?$CFlu?$AA@ 004bbd74     libdb41s:db_pr.obj
 0003:00006d84       ??_C@_0BI@HBBM@page?5?$CFlu?3?5?$CFs?5level?3?5?$CFlu?$AA@ 004bbd84     libdb41s:db_pr.obj
 0003:00006d9c       ??_C@_0CI@BPCI@ILLEGAL?5PAGE?5TYPE?3?5page?3?5?$CFlu?5typ@ 004bbd9c     libdb41s:db_pr.obj
 0003:00006dc4       ??_C@_0M@HBMK@?7root?3?5?$CFlu?6?$AA@ 004bbdc4     libdb41s:db_pr.obj
 0003:00006dd0       ??_C@_0BL@PEBF@?7re_len?3?5?$CF?$CDlx?5re_pad?3?5?$CFlu?6?$AA@ 004bbdd0     libdb41s:db_pr.obj
 0003:00006dec       ??_C@_0BK@FEHH@?7maxkey?3?5?$CFlu?5minkey?3?5?$CFlu?6?$AA@ 004bbdec     libdb41s:db_pr.obj
 0003:00006e08       ??_C@_0N@JMCM@?7flags?3?5?$CF?$CDlx?$AA@ 004bbe08     libdb41s:db_pr.obj
 0003:00006e18       ??_C@_0BB@OBHG@?7last_pgno?3?5?$CFlu?6?$AA@ 004bbe18     libdb41s:db_pr.obj
 0003:00006e2c       ??_C@_0CM@GBIH@Unable?5to?5retrieve?5free?9list?5pag@ 004bbe2c     libdb41s:db_pr.obj
 0003:00006e58       ??_C@_05HGAB@?$CFs?$CFlu?$AA@ 004bbe58     libdb41s:db_pr.obj
 0003:00006e60       ??_C@_02GIEM@?0?5?$AA@     004bbe60     libdb41s:db_pr.obj
 0003:00006e64       ??_C@_0BA@BMJB@?7free?5list?3?5?$CFlu?$AA@ 004bbe64     libdb41s:db_pr.obj
 0003:00006e74       ??_C@_0BJ@IPCI@?7keys?3?5?$CFlu?7records?3?5?$CFlu?6?$AA@ 004bbe74     libdb41s:db_pr.obj
 0003:00006e90       ??_C@_0M@EOO@?7type?3?5?$CFlu?6?$AA@ 004bbe90     libdb41s:db_pr.obj
 0003:00006e9c       ??_C@_0BA@HPEM@?7pagesize?3?5?$CFlu?6?$AA@ 004bbe9c     libdb41s:db_pr.obj
 0003:00006eac       ??_C@_0P@LKGD@?7version?3?5?$CFlu?6?$AA@ 004bbeac     libdb41s:db_pr.obj
 0003:00006ebc       ??_C@_0O@DDDK@?7magic?3?5?$CF?$CDlx?6?$AA@ 004bbebc     libdb41s:db_pr.obj
 0003:00006ecc       ??_C@_04OHG@?$CFlu?5?$AA@  004bbecc     libdb41s:db_pr.obj
 0003:00006ed4       ??_C@_0BA@KNPE@?7spare?5points?3?5?$AA@ 004bbed4     libdb41s:db_pr.obj
 0003:00006ee4       ??_C@_0BC@GFIJ@?7h_charkey?3?5?$CF?$CDlx?6?$AA@ 004bbee4     libdb41s:db_pr.obj
 0003:00006ef8       ??_C@_0N@GDCL@?7nelem?3?5?$CFlu?6?$AA@ 004bbef8     libdb41s:db_pr.obj
 0003:00006f08       ??_C@_0P@KLMA@?7ffactor?3?5?$CFlu?6?$AA@ 004bbf08     libdb41s:db_pr.obj
 0003:00006f18       ??_C@_0BC@NEOC@?7low_mask?3?5?5?$CF?$CDlx?6?$AA@ 004bbf18     libdb41s:db_pr.obj
 0003:00006f2c       ??_C@_0BC@MGON@?7high_mask?3?5?$CF?$CDlx?6?$AA@ 004bbf2c     libdb41s:db_pr.obj
 0003:00006f40       ??_C@_0BC@IACG@?7max_bucket?3?5?$CFlu?6?$AA@ 004bbf40     libdb41s:db_pr.obj
 0003:00006f54       ??_C@_0BA@IKON@?7page_ext?3?5?$CFlu?6?$AA@ 004bbf54     libdb41s:db_pr.obj
 0003:00006f64       ??_C@_0BA@JMJI@?7rec_page?3?5?$CFlu?6?$AA@ 004bbf64     libdb41s:db_pr.obj
 0003:00006f74       ??_C@_0BB@IOI@?7cur_recno?3?5?$CFlu?6?$AA@ 004bbf74     libdb41s:db_pr.obj
 0003:00006f88       ??_C@_0BD@IAOD@?7first_recno?3?5?$CFlu?6?$AA@ 004bbf88     libdb41s:db_pr.obj
 0003:00006f9c       ??_C@_03NAME@?4?4?4?$AA@   004bbf9c     libdb41s:db_pr.obj
 0003:00006fa0       ??_C@_06FMIO@0x?$CF?42x?$AA@ 004bbfa0     libdb41s:db_pr.obj
 0003:00006fa8       ??_C@_07CLDP@?5data?3?5?$AA@ 004bbfa8     libdb41s:db_pr.obj
 0003:00006fb0       ??_C@_09GPCD@len?3?5?$CF3lu?$AA@ 004bbfb0     libdb41s:db_pr.obj
 0003:00006fbc       ??_C@_04LKNH@?$CFc?$CFc?$AA@ 004bbfbc     libdb41s:db_pr.obj
 0003:00006fc4       ??_C@_05DAGJ@?2?$CFc?$CFc?$AA@ 004bbfc4     libdb41s:db_pr.obj
 0003:00006fcc       ??_C@_01PCFE@?2?$AA@       004bbfcc     libdb41s:db_pr.obj
 0003:00006fd0       ??_C@_03JGAL@?$CFlu?$AA@   004bbfd0     libdb41s:db_pr.obj
 0003:00006fd4       ??_C@_09FCIL@__OTHER__?$AA@ 004bbfd4     libdb41s:db_pr.obj
 0003:00006fe0       ??_C@_0BH@ONHJ@duplicate?3?5page?3?5?$CF4lu?6?$AA@ 004bbfe0     libdb41s:db_pr.obj
 0003:00006ff8       ??_C@_01KMMP@?$CJ?$AA@     004bbff8     libdb41s:db_pr.obj
 0003:00006ffc       ??_C@_02NDAK@?5?$CI?$AA@   004bbffc     libdb41s:db_pr.obj
 0003:00007000       ??_C@_0N@PJPB@UNKNOWN?5TYPE?$AA@ 004bc000     libdb41s:db_pr.obj
 0003:00007010       ??_C@_05MHPE@queue?$AA@    004bc010     libdb41s:db_pr.obj
 0003:00007018       ??_C@_04MMAH@hash?$AA@     004bc018     libdb41s:db_pr.obj
 0003:00007020       ??_C@_05PFDO@btree?$AA@    004bc020     libdb41s:db_pr.obj
 0003:00007028       ??_C@_0P@GMGI@queue?5metadata?$AA@ 004bc028     libdb41s:db_pr.obj
 0003:00007038       ??_C@_084overflow?$AA@     004bc038     libdb41s:db_pr.obj
 0003:00007044       ??_C@_0L@KJPA@recno?5leaf?$AA@ 004bc044     libdb41s:db_pr.obj
 0003:00007050       ??_C@_0L@PIIL@btree?5leaf?$AA@ 004bc050     libdb41s:db_pr.obj
 0003:0000705c       ??_C@_0P@CFEB@recno?5internal?$AA@ 004bc05c     libdb41s:db_pr.obj
 0003:0000706c       ??_C@_07KLCM@invalid?$AA@  004bc06c     libdb41s:db_pr.obj
 0003:00007074       ??_C@_0P@NONO@btree?5internal?$AA@ 004bc074     libdb41s:db_pr.obj
 0003:00007084       ??_C@_0O@FIGB@hash?5metadata?$AA@ 004bc084     libdb41s:db_pr.obj
 0003:00007094       ??_C@_09JPJI@duplicate?$AA@ 004bc094     libdb41s:db_pr.obj
 0003:000070a0       ??_C@_0P@KPCB@btree?5metadata?$AA@ 004bc0a0     libdb41s:db_pr.obj
 0003:000070b0       ??_C@_0M@CPGA@HEADER?$DNEND?6?$AA@ 004bc0b0     libdb41s:db_pr.obj
 0003:000070bc       ??_C@_07EENH@keys?$DN1?6?$AA@ 004bc0bc     libdb41s:db_pr.obj
 0003:000070c4       ??_C@_0BB@LNFP@db_pagesize?$DN?$CFlu?6?$AA@ 004bc0c4     libdb41s:db_pr.obj
 0003:000070d8       ??_C@_09JACC@chksum?$DN1?6?$AA@ 004bc0d8     libdb41s:db_pr.obj
 0003:000070e4       ??_C@_0CE@GNKI@Impossible?5DB?5type?5in?5__db_prhea@ 004bc0e4     libdb41s:db_pr.obj
 0003:00007108       ??_C@_0L@MLDC@dupsort?$DN1?6?$AA@ 004bc108     libdb41s:db_pr.obj
 0003:00007114       ??_C@_0O@BPEE@duplicates?$DN1?6?$AA@ 004bc114     libdb41s:db_pr.obj
 0003:00007124       ??_C@_0M@HKHM@renumber?$DN1?6?$AA@ 004bc124     libdb41s:db_pr.obj
 0003:00007130       ??_C@_0M@LHOG@type?$DNrecno?6?$AA@ 004bc130     libdb41s:db_pr.obj
 0003:0000713c       ??_C@_0BA@GLFJ@extentsize?$DN?$CFlu?6?$AA@ 004bc13c     libdb41s:db_pr.obj
 0003:0000714c       ??_C@_0M@KLNO@re_pad?$DN?$CF?$CDx?6?$AA@ 004bc14c     libdb41s:db_pr.obj
 0003:00007158       ??_C@_0M@CGME@re_len?$DN?$CFlu?6?$AA@ 004bc158     libdb41s:db_pr.obj
 0003:00007164       ??_C@_0M@LFK@type?$DNqueue?6?$AA@ 004bc164     libdb41s:db_pr.obj
 0003:00007170       ??_C@_0N@GALG@h_nelem?$DN?$CFlu?6?$AA@ 004bc170     libdb41s:db_pr.obj
 0003:00007180       ??_C@_0P@OBMK@h_ffactor?$DN?$CFlu?6?$AA@ 004bc180     libdb41s:db_pr.obj
 0003:00007190       ??_C@_0L@HIP@type?$DNhash?6?$AA@ 004bc190     libdb41s:db_pr.obj
 0003:0000719c       ??_C@_0P@FKCG@bt_minkey?$DN?$CFlu?6?$AA@ 004bc19c     libdb41s:db_pr.obj
 0003:000071ac       ??_C@_0P@INAG@bt_maxkey?$DN?$CFlu?6?$AA@ 004bc1ac     libdb41s:db_pr.obj
 0003:000071bc       ??_C@_09BPIG@recnum?$DN1?6?$AA@ 004bc1bc     libdb41s:db_pr.obj
 0003:000071c8       ??_C@_0M@MBGI@type?$DNbtree?6?$AA@ 004bc1c8     libdb41s:db_pr.obj
 0003:000071d4       ??_C@_09ODBB@database?$DN?$AA@ 004bc1d4     libdb41s:db_pr.obj
 0003:000071e0       ??_C@_0BC@LDNI@format?$DNbytevalue?6?$AA@ 004bc1e0     libdb41s:db_pr.obj
 0003:000071f4       ??_C@_0O@NCKH@format?$DNprint?6?$AA@ 004bc1f4     libdb41s:db_pr.obj
 0003:00007204       ??_C@_0L@KGME@VERSION?$DN3?6?$AA@ 004bc204     libdb41s:db_pr.obj
 0003:00007210       ??_C@_09BIGG@DATA?$DNEND?6?$AA@ 004bc210     libdb41s:db_pr.obj
 0003:0000721c       ??_C@_0BF@DHBP@read?3?50x?$CFlx?0?5?$CFlu?3?5?$CFs?$AA@ 004bc21c     libdb41s:os_rw.obj
 0003:00007234       ??_C@_0BF@GJBC@write?3?50x?$CFx?0?5?$CFlu?3?5?$CFs?$AA@ 004bc234     libdb41s:os_rw.obj
 0003:0000724c       ??_C@_0BE@OICO@seek?3?5?$CFlu?5?$CFd?5?$CFd?3?5?$CFs?$AA@ 004bc24c     libdb41s:os_seek.obj
 0003:00007260       ??_C@_0EH@KIKI@Page?5?$CFlu?3?5queue?5record?5length?5?$CFl@ 004bc260     libdb41s:qam_verify.obj
 0003:000072a8       ??_C@_0EI@PHLJ@Page?5?$CFlu?3?5current?5recno?5?$CFlu?5refe@ 004bc2a8     libdb41s:qam_verify.obj
 0003:000072f0       ??_C@_0CP@CGKN@Page?5?$CFlu?3?5queue?5databases?5must?5b@ 004bc2f0     libdb41s:qam_verify.obj
 0003:00007320       ??_C@_0DE@OEC@Page?5?$CFlu?3?5queue?5record?5?$CFlu?5exten@ 004bc320     libdb41s:qam_verify.obj
 0003:00007354       ??_C@_0DE@POMH@Page?5?$CFlu?3?5queue?5database?5page?5of@ 004bc354     libdb41s:qam_verify.obj
 0003:00007388       ??_C@_0CK@GMKH@Page?5?$CFlu?3?5queue?5database?5has?5no?5@ 004bc388     libdb41s:qam_verify.obj
 0003:000073b4       ??_C@_0DF@GIPJ@Page?5?$CFlu?3?5re_len?5of?5?$CFlu?5in?5non?9f@ 004bc3b4     libdb41s:bt_verify.obj
 0003:000073ec       ??_C@_0DD@GLD@Page?5?$CFlu?3?5recno?5metadata?5page?5sp@ 004bc3ec     libdb41s:bt_verify.obj
 0003:00007420       ??_C@_0DP@HLJM@Page?5?$CFlu?3?5metadata?5page?5has?5renu@ 004bc420     libdb41s:bt_verify.obj
 0003:00007460       ??_C@_0EC@DCBC@Page?5?$CFlu?3?5Btree?5metadata?5page?5il@ 004bc460     libdb41s:bt_verify.obj
 0003:000074a4       ??_C@_0EJ@KDGF@Page?5?$CFlu?3?5Btree?5metadata?5page?5ha@ 004bc4a4     libdb41s:bt_verify.obj
 0003:000074f0       ??_C@_0DF@DMPH@Page?5?$CFlu?3?5nonsensical?5root?5page?5@ 004bc4f0     libdb41s:bt_verify.obj
 0003:00007528       ??_C@_0DL@GIGH@Page?5?$CFlu?3?5nonsensical?5bt_minkey?5@ 004bc528     libdb41s:bt_verify.obj
 0003:00007564       ??_C@_0CI@MDFM@Page?5?$CFlu?3?5nonsensical?5type?5for?5i@ 004bc564     libdb41s:bt_verify.obj
 0003:0000758c       ??_C@_0CC@KKFA@Page?5?$CFlu?3?5Recno?5database?5has?5dup@ 004bc58c     libdb41s:bt_verify.obj
 0003:000075b0       ??_C@_0DE@CAKP@Page?5?$CFlu?3?5?$CFs?5called?5on?5nonsensic@ 004bc5b0     libdb41s:bt_verify.obj
 0003:000075e4       ??_C@_0BA@CMPH@__ram_vrfy_leaf?$AA@ 004bc5e4     libdb41s:bt_verify.obj
 0003:000075f4       ??_C@_0L@LHAA@__bam_vrfy?$AA@ 004bc5f4     libdb41s:bt_verify.obj
 0003:00007600       ??_C@_0CM@LIHI@Page?5?$CFlu?3?5item?5order?5check?5unsaf@ 004bc600     libdb41s:bt_verify.obj
 0003:0000762c       ??_C@_0CN@CFKJ@Page?5?$CFlu?3?5bad?5HOFFSET?5?$CFlu?0?5appea@ 004bc62c     libdb41s:bt_verify.obj
 0003:0000765c       ??_C@_0CK@MPCP@Page?5?$CFlu?3?5gap?5between?5items?5at?5o@ 004bc65c     libdb41s:bt_verify.obj
 0003:00007688       ??_C@_0CG@FAKN@Page?5?$CFlu?3?5bad?5offset?5?$CFlu?5at?5inde@ 004bc688     libdb41s:bt_verify.obj
 0003:000076b0       ??_C@_0DN@PJAI@Page?5?$CFlu?3?5RINTERNAL?5structure?5at@ 004bc6b0     libdb41s:bt_verify.obj
 0003:000076f0       ??_C@_0P@DCGH@__ram_vrfy_inp?$AA@ 004bc6f0     libdb41s:bt_verify.obj
 0003:00007700       ??_C@_0P@OMMP@__bam_vrfy_inp?$AA@ 004bc700     libdb41s:bt_verify.obj
 0003:00007710       ??_C@_0CK@HFIK@Page?5?$CFlu?3?5overlapping?5items?5at?5o@ 004bc710     libdb41s:bt_verify.obj
 0003:0000773c       ??_C@_0BP@DPCM@Page?5?$CFlu?3?5offset?5?$CFlu?5unaligned?$AA@ 004bc73c     libdb41s:bt_verify.obj
 0003:0000775c       ??_C@_0CM@JLAN@Page?5?$CFlu?3?5offpage?5item?5?$CFlu?5has?5b@ 004bc75c     libdb41s:bt_verify.obj
 0003:00007788       ??_C@_0CI@KKMF@Page?5?$CFlu?3?5impossible?5tlen?5?$CFlu?0?5i@ 004bc788     libdb41s:bt_verify.obj
 0003:000077b0       ??_C@_0DO@BKAA@Page?5?$CFlu?3?5duplicate?5page?5referen@ 004bc7b0     libdb41s:bt_verify.obj
 0003:000077f0       ??_C@_0EH@DGPJ@Page?5?$CFlu?3?5duplicate?5page?5referen@ 004bc7f0     libdb41s:bt_verify.obj
 0003:00007838       ??_C@_0CH@OICH@Page?5?$CFlu?3?5item?5?$CFlu?5of?5invalid?5ty@ 004bc838     libdb41s:bt_verify.obj
 0003:00007860       ??_C@_0CC@NMCK@Page?5?$CFlu?3?5item?5?$CFlu?5marked?5delete@ 004bc860     libdb41s:bt_verify.obj
 0003:00007884       ??_C@_0BO@BAMK@Page?5?$CFlu?3?5duplicated?5item?5?$CFlu?$AA@ 004bc884     libdb41s:bt_verify.obj
 0003:000078a4       ??_C@_0BF@JGCC@__bam_vrfy_itemorder?$AA@ 004bc8a4     libdb41s:bt_verify.obj
 0003:000078bc       ??_C@_0DK@PKF@Page?5?$CFlu?3?5database?5with?5no?5dupli@ 004bc8bc     libdb41s:bt_verify.obj
 0003:000078f8       ??_C@_0CI@ECAE@Page?5?$CFlu?3?5out?9of?9order?5key?5at?5en@ 004bc8f8     libdb41s:bt_verify.obj
 0003:00007920       ??_C@_0DC@HHOB@Page?5?$CFlu?3?5error?5?$CFlu?5in?5fetching?5@ 004bc920     libdb41s:bt_verify.obj
 0003:00007954       ??_C@_0DM@PCJD@Page?5?$CFlu?3?5btree?5root?5of?5incorrec@ 004bc954     libdb41s:bt_verify.obj
 0003:00007990       ??_C@_0DH@HJBC@Page?5?$CFlu?3?5duplicate?5tree?5referen@ 004bc990     libdb41s:bt_verify.obj
 0003:000079c8       ??_C@_0CM@OPOD@Page?5?$CFlu?3?5recno?5database?5has?5bad@ 004bc9c8     libdb41s:bt_verify.obj
 0003:000079f4       ??_C@_0CK@GCNN@Page?5?$CFlu?3?5btree?5metadata?5page?5ha@ 004bc9f4     libdb41s:bt_verify.obj
 0003:00007a20       ??_C@_0CN@MIHM@Page?5?$CFlu?3?5btree?5metadata?5page?5ob@ 004bca20     libdb41s:bt_verify.obj
 0003:00007a50       ??_C@_0DL@EADL@Page?5?$CFlu?3?5btree?5or?5recno?5page?5is@ 004bca50     libdb41s:bt_verify.obj
 0003:00007a8c       ??_C@_0BE@NNAM@btree?5or?5recno?5page?$AA@ 004bca8c     libdb41s:bt_verify.obj
 0003:00007aa0       ??_C@_0CC@HHGK@Page?5?$CFlu?3?5unterminated?5leaf?5chai@ 004bcaa0     libdb41s:bt_verify.obj
 0003:00007ac4       ??_C@_0BH@NDJF@Page?5?$CFlu?3?5linked?5twice?$AA@ 004bcac4     libdb41s:bt_verify.obj
 0003:00007adc       ??_C@_0DI@DMOG@Page?5?$CFlu?3?5bad?5record?5count?3?5has?5@ 004bcadc     libdb41s:bt_verify.obj
 0003:00007b14       ??_C@_0DD@DOHP@Page?5?$CFlu?3?5internal?5page?5is?5empty@ 004bcb14     libdb41s:bt_verify.obj
 0003:00007b48       ??_C@_0DH@COKN@Page?5?$CFlu?3?5Btree?5level?5incorrect?3@ 004bcb48     libdb41s:bt_verify.obj
 0003:00007b80       ??_C@_0EE@HLAA@Page?5?$CFlu?3?5item?5?$CFlu?5has?5incorrect@ 004bcb80     libdb41s:bt_verify.obj
 0003:00007bc4       ??_C@_0BD@CLIB@__bam_vrfy_subtree?$AA@ 004bcbc4     libdb41s:bt_verify.obj
 0003:00007bd8       ??_C@_0DH@NMCC@Page?5?$CFlu?3?5recno?5level?5incorrect?3@ 004bcbd8     libdb41s:bt_verify.obj
 0003:00007c10       ??_C@_0CN@MAHK@Page?5?$CFlu?3?5recno?5page?5returned?5ba@ 004bcc10     libdb41s:bt_verify.obj
 0003:00007c40       ??_C@_0CG@EBOM@Page?5?$CFlu?3?5duplicates?5in?5non?9dup?5@ 004bcc40     libdb41s:bt_verify.obj
 0003:00007c68       ??_C@_0CM@PMDJ@Page?5?$CFlu?3?5non?9recno?5leaf?5page?5in@ 004bcc68     libdb41s:bt_verify.obj
 0003:00007c94       ??_C@_0CJ@NBNN@Page?5?$CFlu?3?5recno?5leaf?5page?5non?9re@ 004bcc94     libdb41s:bt_verify.obj
 0003:00007cc0       ??_C@_0EG@NJOG@Page?5?$CFlu?3?5incorrect?5prev_pgno?5?$CFl@ 004bccc0     libdb41s:bt_verify.obj
 0003:00007d08       ??_C@_0EG@NEJJ@Page?5?$CFlu?3?5incorrect?5next_pgno?5?$CFl@ 004bcd08     libdb41s:bt_verify.obj
 0003:00007d50       ??_C@_0EG@IPMA@Page?5?$CFlu?3?5unexpected?5page?5type?5?$CF@ 004bcd50     libdb41s:bt_verify.obj
 0003:00007d98       ??_C@_0DB@OEGC@Page?5?$CFlu?3?5last?5item?5on?5page?5had?5@ 004bcd98     libdb41s:bt_verify.obj
 0003:00007dcc       ??_C@_0DN@ODGH@Page?5?$CFlu?3?5last?5item?5on?5page?5sort@ 004bcdcc     libdb41s:bt_verify.obj
 0003:00007e0c       ??_C@_0CL@BMGF@Page?5?$CFlu?3?5unknown?5type?5for?5inter@ 004bce0c     libdb41s:bt_verify.obj
 0003:00007e38       ??_C@_0DC@GDFF@Page?5?$CFlu?3?5first?5item?5on?5page?5had@ 004bce38     libdb41s:bt_verify.obj
 0003:00007e6c       ??_C@_0DO@MIKK@Page?5?$CFlu?3?5first?5item?5on?5page?5sor@ 004bce6c     libdb41s:bt_verify.obj
 0003:00007eac       ??_C@_0BF@HGGP@__bam_vrfy_treeorder?$AA@ 004bceac     libdb41s:bt_verify.obj
 0003:00007ec4       ??_C@_0DB@HAIP@__bam_salvage_walkdupint?5called?5@ 004bcec4     libdb41s:bt_verify.obj
 0003:00007ef8       ??_C@_0CL@BAC@Page?5?$CFlu?3?5spares?5array?5entry?5?$CFd?5@ 004bcef8     libdb41s:hash_verify.obj
 0003:00007f24       ??_C@_0CJ@LON@Page?5?$CFlu?3?5suspiciously?5high?5nele@ 004bcf24     libdb41s:hash_verify.obj
 0003:00007f50       ??_C@_0DA@OKMM@Page?5?$CFlu?3?5incorrect?5low_mask?5?$CFlu@ 004bcf50     libdb41s:hash_verify.obj
 0003:00007f80       ??_C@_0DB@MMLN@Page?5?$CFlu?3?5incorrect?5high_mask?5?$CFl@ 004bcf80     libdb41s:hash_verify.obj
 0003:00007fb4       ??_C@_0DB@LBLH@Page?5?$CFlu?3?5Impossible?5max_bucket?5@ 004bcfb4     libdb41s:hash_verify.obj
 0003:00007fe8       ??_C@_0FH@GCDG@Page?5?$CFlu?3?5database?5has?5different@ 004bcfe8     libdb41s:hash_verify.obj
 0003:00008040       ??_C@_0DC@GHBO@Page?5?$CFlu?3?5item?5?$CFlu?5is?5out?5of?5ord@ 004bd040     libdb41s:hash_verify.obj
 0003:00008074       ??_C@_0CL@BBBN@Page?5?$CFlu?3?5entries?5array?5collided@ 004bd074     libdb41s:hash_verify.obj
 0003:000080a0       ??_C@_0L@GGCJ@__ham_vrfy?$AA@ 004bd0a0     libdb41s:hash_verify.obj
 0003:000080ac       ??_C@_0BP@GCBC@Page?5?$CFlu?3?5item?5?$CFi?5has?5bad?5type?$AA@ 004bd0ac     libdb41s:hash_verify.obj
 0003:000080cc       ??_C@_0CP@LJCN@Page?5?$CFlu?3?5offpage?5item?5?$CFlu?5has?5b@ 004bd0cc     libdb41s:hash_verify.obj
 0003:000080fc       ??_C@_0CM@LGEO@Page?5?$CFlu?3?5duplicate?5item?5?$CFlu?5has@ 004bd0fc     libdb41s:hash_verify.obj
 0003:00008128       ??_C@_0DH@NIJE@Page?5?$CFlu?3?5duplicate?5item?5?$CFlu?5has@ 004bd128     libdb41s:hash_verify.obj
 0003:00008160       ??_C@_0DA@FOLF@Page?5?$CFlu?3?5hash?5key?5stored?5as?5dup@ 004bd160     libdb41s:hash_verify.obj
 0003:00008190       ??_C@_0DA@ICGB@Page?5?$CFlu?3?5hash?5bucket?5?$CFlu?5maps?5t@ 004bd190     libdb41s:hash_verify.obj
 0003:000081c0       ??_C@_0DD@KMGF@Page?5?$CFlu?3?5non?9empty?5page?5in?5unus@ 004bd1c0     libdb41s:hash_verify.obj
 0003:000081f4       ??_C@_0CG@JIG@Page?5?$CFlu?3?5above?5max_bucket?5refer@ 004bd1f4     libdb41s:hash_verify.obj
 0003:0000821c       ??_C@_0CK@HHIA@Page?5?$CFlu?3?5Hash?5meta?5page?5referen@ 004bd21c     libdb41s:hash_verify.obj
 0003:00008248       ??_C@_0CO@FKBJ@Page?5?$CFlu?3?5impossible?5first?5page?5@ 004bd248     libdb41s:hash_verify.obj
 0003:00008278       ??_C@_0CF@OLJI@Page?5?$CFlu?3?5hash?5page?5referenced?5t@ 004bd278     libdb41s:hash_verify.obj
 0003:000082a0       ??_C@_0CG@CMNN@Page?5?$CFlu?3?5hash?5page?5has?5bad?5next@ 004bd2a0     libdb41s:hash_verify.obj
 0003:000082c8       ??_C@_0CG@MPPK@Page?5?$CFlu?3?5hash?5page?5has?5bad?5prev@ 004bd2c8     libdb41s:hash_verify.obj
 0003:000082f0       ??_C@_0CP@DEPG@Page?5?$CFlu?3?5unsorted?5dups?5in?5sorte@ 004bd2f0     libdb41s:hash_verify.obj
 0003:00008320       ??_C@_0DH@CKDH@Page?5?$CFlu?3?5duplicates?5present?5in?5@ 004bd320     libdb41s:hash_verify.obj
 0003:00008358       ??_C@_0DI@DNCJ@Page?5?$CFlu?3?5first?5page?5in?5hash?5buc@ 004bd358     libdb41s:hash_verify.obj
 0003:00008390       ??_C@_0CG@GDIF@Page?5?$CFlu?3?5item?5?$CFlu?5hashes?5incorr@ 004bd390     libdb41s:hash_verify.obj
 0003:000083b8       ??_C@_0DB@PCCA@Page?5?$CFlu?3?5overflow?5page?5has?5zero@ 004bd3b8     libdb41s:db_overflow.obj
 0003:000083ec       ??_C@_0CD@FFGK@Page?5?$CFlu?3?5overflow?5item?5incomple@ 004bd3ec     libdb41s:db_overflow.obj
 0003:00008410       ??_C@_0DC@NLHD@Page?5?$CFlu?3?5encountered?5twice?5in?5o@ 004bd410     libdb41s:db_overflow.obj
 0003:00008444       ??_C@_0CN@BGOH@Page?5?$CFlu?3?5bad?5next_pgno?5?$CFlu?5on?5o@ 004bd444     libdb41s:db_overflow.obj
 0003:00008474       ??_C@_0DN@FBMD@Page?5?$CFlu?3?5bad?5prev_pgno?5?$CFlu?5on?5o@ 004bd474     libdb41s:db_overflow.obj
 0003:000084b4       ??_C@_0DL@IJNA@Page?5?$CFlu?3?5first?5page?5in?5overflow@ 004bd4b4     libdb41s:db_overflow.obj
 0003:000084f0       ??_C@_0CM@ID@Page?5?$CFlu?3?5overflow?5page?5of?5inval@ 004bd4f0     libdb41s:db_overflow.obj
 0003:0000851c       ??_C@_0BO@MPHF@Closing?5already?9closed?5cursor?$AA@ 004bd51c     libdb41s:db_cam.obj
 0003:0000853c       ??_C@_0N@FNND@__db_c_count?$AA@ 004bd53c     libdb41s:db_cam.obj
 0003:0000854c       ??_C@_0CC@NIDJ@Cannot?5duplicate?5writeable?5curso@ 004bd54c     libdb41s:db_cam.obj
 0003:00008570       ??_C@_0M@NLFH@__db_c_idup?$AA@ 004bd570     libdb41s:db_cam.obj
 0003:0000857c       ??_C@_0L@MHHF@__db_c_get?$AA@ 004bd57c     libdb41s:db_cam.obj
 0003:00008588       ??_C@_0DB@DJJG@Put?5results?5in?5a?5non?9unique?5seco@ 004bd588     libdb41s:db_cam.obj
 0003:000085bc       ??_C@_0CL@IFB@index?5not?5configured?5to?5support?5@ 004bd5bc     libdb41s:db_cam.obj
 0003:000085e8       ??_C@_0CM@IOKO@Length?5improper?5for?5fixed?5length@ 004bd5e8     libdb41s:db_cam.obj
 0003:00008614       ??_C@_0DI@BEGC@Duplicate?5data?5items?5are?5not?5sup@ 004bd614     libdb41s:db_cam.obj
 0003:0000864c       ??_C@_0CE@KCOK@Write?5attempted?5on?5read?9only?5cur@ 004bd64c     libdb41s:db_cam.obj
 0003:00008670       ??_C@_08MKFC@fsync?5?$CFs?$AA@ 004bd670     libdb41s:os_fsync.obj
 0003:0000867c       ??_C@_0O@MHLP@__bam_c_close?$AA@ 004bd67c     libdb41s:bt_cursor.obj
 0003:0000868c       ??_C@_0M@GMNH@__bam_c_get?$AA@ 004bd68c     libdb41s:bt_cursor.obj
